---
triple:          'arm64-apple-darwin'
binary-path:     '/Users/mala0061/Dev/mecha.id/sekejap/target/debug/deps/libsekejap.dylib'
relocations:
  - { offset: 0x1E, size: 0x8, addend: 0x0, symName: '__ZN4core3ptr8non_null16NonNull$LT$T$GT$20offset_from_unsigned17h1322cfb4a7ecb441E', symObjAddr: 0x0, symBinAddr: 0x8F0, symSize: 0x7C }
  - { offset: 0xA83, size: 0x8, addend: 0x0, symName: '__ZN4core3ptr8non_null16NonNull$LT$T$GT$20offset_from_unsigned17h1322cfb4a7ecb441E', symObjAddr: 0x0, symBinAddr: 0x8F0, symSize: 0x7C }
  - { offset: 0xB8D, size: 0x8, addend: 0x0, symName: '__ZN4core3ptr8non_null16NonNull$LT$T$GT$20offset_from_unsigned17h22fd66194d6d27e0E', symObjAddr: 0x7C, symBinAddr: 0x96C, symSize: 0x7C }
  - { offset: 0xCC0, size: 0x8, addend: 0x0, symName: '__ZN4core3ptr8non_null16NonNull$LT$T$GT$20offset_from_unsigned17h7b163810da5cced1E', symObjAddr: 0xF8, symBinAddr: 0x9E8, symSize: 0x7C }
  - { offset: 0xDCA, size: 0x8, addend: 0x0, symName: '__ZN4core3ptr8non_null16NonNull$LT$T$GT$20offset_from_unsigned17h810fa76d065d72c8E', symObjAddr: 0x174, symBinAddr: 0xA64, symSize: 0x7C }
  - { offset: 0xEBC, size: 0x8, addend: 0x0, symName: __ZN4core3fmt9Arguments17from_str_nonconst17h61861f23e9c57d83E, symObjAddr: 0x0, symBinAddr: 0xAE0, symSize: 0x28 }
  - { offset: 0x1208, size: 0x8, addend: 0x0, symName: __ZN4core3fmt9Arguments17from_str_nonconst17h61861f23e9c57d83E, symObjAddr: 0x0, symBinAddr: 0xAE0, symSize: 0x28 }
  - { offset: 0x122B, size: 0x8, addend: 0x0, symName: __ZN4core3fmt9Arguments8from_str17h2ae6c2f6cbb9dd81E, symObjAddr: 0x28, symBinAddr: 0xB08, symSize: 0x20 }
  - { offset: 0x126C, size: 0x8, addend: 0x0, symName: '__ZN103_$LT$pyo3..instance..Bound$LT$pyo3..types..any..PyAny$GT$$u20$as$u20$pyo3..types..any..PyAnyMethods$GT$18downcast_unchecked17h29f12d91292a3841E', symObjAddr: 0x0, symBinAddr: 0xB28, symSize: 0x74 }
  - { offset: 0x1AE0, size: 0x8, addend: 0x0, symName: '__ZN4core5array4iter94_$LT$impl$u20$core..iter..traits..collect..IntoIterator$u20$for$u20$$u5b$T$u3b$$u20$N$u5d$$GT$9into_iter17h92451dda601a8f49E', symObjAddr: 0xC38, symBinAddr: 0x1760, symSize: 0x74 }
  - { offset: 0x3377, size: 0x8, addend: 0x0, symName: '__ZN4core5slice29_$LT$impl$u20$$u5b$T$u5d$$GT$4iter17hfbec62b8b6f394fbE', symObjAddr: 0xCAC, symBinAddr: 0x17D4, symSize: 0x28 }
  - { offset: 0x4233, size: 0x8, addend: 0x0, symName: '__ZN50_$LT$T$u20$as$u20$core..convert..Into$LT$U$GT$$GT$4into17h4de069f36e95b06fE', symObjAddr: 0x1E00, symBinAddr: 0x2928, symSize: 0x24 }
  - { offset: 0x4899, size: 0x8, addend: 0x0, symName: '__ZN103_$LT$pyo3..instance..Bound$LT$pyo3..types..any..PyAny$GT$$u20$as$u20$pyo3..types..any..PyAnyMethods$GT$18downcast_unchecked17h29f12d91292a3841E', symObjAddr: 0x0, symBinAddr: 0xB28, symSize: 0x74 }
  - { offset: 0x48D0, size: 0x8, addend: 0x0, symName: '__ZN103_$LT$pyo3..instance..Bound$LT$pyo3..types..any..PyAny$GT$$u20$as$u20$pyo3..types..any..PyAnyMethods$GT$18downcast_unchecked17h3133dc11613eb92cE', symObjAddr: 0x74, symBinAddr: 0xB9C, symSize: 0x74 }
  - { offset: 0x4907, size: 0x8, addend: 0x0, symName: '__ZN103_$LT$pyo3..instance..Bound$LT$pyo3..types..any..PyAny$GT$$u20$as$u20$pyo3..types..any..PyAnyMethods$GT$18downcast_unchecked17h9190a08cb0635f0aE', symObjAddr: 0xE8, symBinAddr: 0xC10, symSize: 0x74 }
  - { offset: 0x493E, size: 0x8, addend: 0x0, symName: '__ZN103_$LT$pyo3..instance..Bound$LT$pyo3..types..any..PyAny$GT$$u20$as$u20$pyo3..types..any..PyAnyMethods$GT$18downcast_unchecked17h97201f947b15cdd9E', symObjAddr: 0x15C, symBinAddr: 0xC84, symSize: 0x74 }
  - { offset: 0x4975, size: 0x8, addend: 0x0, symName: '__ZN103_$LT$pyo3..instance..Bound$LT$pyo3..types..any..PyAny$GT$$u20$as$u20$pyo3..types..any..PyAnyMethods$GT$18downcast_unchecked17ha65870574fe8b5c1E', symObjAddr: 0x1D0, symBinAddr: 0xCF8, symSize: 0x74 }
  - { offset: 0x49AC, size: 0x8, addend: 0x0, symName: '__ZN103_$LT$pyo3..instance..Bound$LT$pyo3..types..any..PyAny$GT$$u20$as$u20$pyo3..types..any..PyAnyMethods$GT$23downcast_into_unchecked17h0443b9fb98797853E', symObjAddr: 0x244, symBinAddr: 0xD6C, symSize: 0x14 }
  - { offset: 0x49E3, size: 0x8, addend: 0x0, symName: '__ZN103_$LT$pyo3..instance..Bound$LT$pyo3..types..any..PyAny$GT$$u20$as$u20$pyo3..types..any..PyAnyMethods$GT$23downcast_into_unchecked17h7366fa00a5df2d98E', symObjAddr: 0x258, symBinAddr: 0xD80, symSize: 0x14 }
  - { offset: 0x4A1A, size: 0x8, addend: 0x0, symName: '__ZN103_$LT$pyo3..instance..Bound$LT$pyo3..types..any..PyAny$GT$$u20$as$u20$pyo3..types..any..PyAnyMethods$GT$23downcast_into_unchecked17ha74abc4bd92b8c5cE', symObjAddr: 0x26C, symBinAddr: 0xD94, symSize: 0x14 }
  - { offset: 0x4A51, size: 0x8, addend: 0x0, symName: '__ZN103_$LT$pyo3..instance..Bound$LT$pyo3..types..any..PyAny$GT$$u20$as$u20$pyo3..types..any..PyAnyMethods$GT$23downcast_into_unchecked17hd9010c0bedbe5f82E', symObjAddr: 0x280, symBinAddr: 0xDA8, symSize: 0x14 }
  - { offset: 0x4A88, size: 0x8, addend: 0x0, symName: '__ZN103_$LT$pyo3..instance..Bound$LT$pyo3..types..any..PyAny$GT$$u20$as$u20$pyo3..types..any..PyAnyMethods$GT$7extract17h0086ac2d2839f771E', symObjAddr: 0x294, symBinAddr: 0xDBC, symSize: 0x30 }
  - { offset: 0x4ABF, size: 0x8, addend: 0x0, symName: '__ZN103_$LT$pyo3..instance..Bound$LT$pyo3..types..any..PyAny$GT$$u20$as$u20$pyo3..types..any..PyAnyMethods$GT$7extract17h2cb4dd55ab7a54cfE', symObjAddr: 0x2C4, symBinAddr: 0xDEC, symSize: 0x30 }
  - { offset: 0x4AF6, size: 0x8, addend: 0x0, symName: '__ZN103_$LT$pyo3..instance..Bound$LT$pyo3..types..any..PyAny$GT$$u20$as$u20$pyo3..types..any..PyAnyMethods$GT$7extract17h34365ccef330a6ddE', symObjAddr: 0x2F4, symBinAddr: 0xE1C, symSize: 0x30 }
  - { offset: 0x4B2D, size: 0x8, addend: 0x0, symName: '__ZN103_$LT$pyo3..instance..Bound$LT$pyo3..types..any..PyAny$GT$$u20$as$u20$pyo3..types..any..PyAnyMethods$GT$7extract17h3db763e27ad72644E', symObjAddr: 0x324, symBinAddr: 0xE4C, symSize: 0x30 }
  - { offset: 0x4B64, size: 0x8, addend: 0x0, symName: '__ZN103_$LT$pyo3..instance..Bound$LT$pyo3..types..any..PyAny$GT$$u20$as$u20$pyo3..types..any..PyAnyMethods$GT$7extract17h45c0745da9ddd6b7E', symObjAddr: 0x354, symBinAddr: 0xE7C, symSize: 0x30 }
  - { offset: 0x4B9B, size: 0x8, addend: 0x0, symName: '__ZN103_$LT$pyo3..instance..Bound$LT$pyo3..types..any..PyAny$GT$$u20$as$u20$pyo3..types..any..PyAnyMethods$GT$7extract17h909bdcaa5232854dE', symObjAddr: 0x384, symBinAddr: 0xEAC, symSize: 0x30 }
  - { offset: 0x4BD2, size: 0x8, addend: 0x0, symName: '__ZN103_$LT$pyo3..instance..Bound$LT$pyo3..types..any..PyAny$GT$$u20$as$u20$pyo3..types..any..PyAnyMethods$GT$7extract17hbf3670fa79f21035E', symObjAddr: 0x3B4, symBinAddr: 0xEDC, symSize: 0x30 }
  - { offset: 0x4C09, size: 0x8, addend: 0x0, symName: '__ZN103_$LT$pyo3..instance..Bound$LT$pyo3..types..any..PyAny$GT$$u20$as$u20$pyo3..types..any..PyAnyMethods$GT$7extract17hdaa98b9975d3615dE', symObjAddr: 0x3E4, symBinAddr: 0xF0C, symSize: 0x30 }
  - { offset: 0x4C40, size: 0x8, addend: 0x0, symName: '__ZN103_$LT$pyo3..instance..Bound$LT$pyo3..types..any..PyAny$GT$$u20$as$u20$pyo3..types..any..PyAnyMethods$GT$7extract17hebb16574933794c0E', symObjAddr: 0x414, symBinAddr: 0xF3C, symSize: 0x30 }
  - { offset: 0x4C77, size: 0x8, addend: 0x0, symName: '__ZN103_$LT$pyo3..instance..Bound$LT$pyo3..types..any..PyAny$GT$$u20$as$u20$pyo3..types..any..PyAnyMethods$GT$8downcast17h75c3769fe1ea02d6E', symObjAddr: 0x444, symBinAddr: 0xF6C, symSize: 0x84 }
  - { offset: 0x4CAE, size: 0x8, addend: 0x0, symName: '__ZN103_$LT$pyo3..instance..Bound$LT$pyo3..types..any..PyAny$GT$$u20$as$u20$pyo3..types..any..PyAnyMethods$GT$8downcast17h82a289c96f4e4185E', symObjAddr: 0x4C8, symBinAddr: 0xFF0, symSize: 0x84 }
  - { offset: 0x4CE5, size: 0x8, addend: 0x0, symName: '__ZN103_$LT$pyo3..instance..Bound$LT$pyo3..types..any..PyAny$GT$$u20$as$u20$pyo3..types..any..PyAnyMethods$GT$8downcast17heae5739e0411b26bE', symObjAddr: 0x54C, symBinAddr: 0x1074, symSize: 0x84 }
  - { offset: 0x4D1C, size: 0x8, addend: 0x0, symName: '__ZN103_$LT$pyo3..instance..Bound$LT$pyo3..types..any..PyAny$GT$$u20$as$u20$pyo3..types..any..PyAnyMethods$GT$8downcast17heaf363002d6c9889E', symObjAddr: 0x5D0, symBinAddr: 0x10F8, symSize: 0x84 }
  - { offset: 0x4D53, size: 0x8, addend: 0x0, symName: '__ZN103_$LT$pyo3..instance..Bound$LT$pyo3..types..any..PyAny$GT$$u20$as$u20$pyo3..types..any..PyAnyMethods$GT$8downcast17hf80419aad561ad72E', symObjAddr: 0x654, symBinAddr: 0x117C, symSize: 0x84 }
  - { offset: 0x4DAB, size: 0x8, addend: 0x0, symName: '__ZN115_$LT$pyo3..instance..Bound$LT$pyo3..types..module..PyModule$GT$$u20$as$u20$pyo3..types..module..PyModuleMethods$GT$3add17hdef0341cc5dfd963E', symObjAddr: 0x6D8, symBinAddr: 0x1200, symSize: 0x140 }
  - { offset: 0x4E1F, size: 0x8, addend: 0x0, symName: '__ZN115_$LT$pyo3..instance..Bound$LT$pyo3..types..module..PyModule$GT$$u20$as$u20$pyo3..types..module..PyModuleMethods$GT$9add_class17h2b81a8a8f7af7edbE', symObjAddr: 0x818, symBinAddr: 0x1340, symSize: 0xB8 }
  - { offset: 0x4E93, size: 0x8, addend: 0x0, symName: '__ZN115_$LT$pyo3..instance..Bound$LT$pyo3..types..module..PyModule$GT$$u20$as$u20$pyo3..types..module..PyModuleMethods$GT$9add_class17h8dacb2930506a56fE', symObjAddr: 0x8D0, symBinAddr: 0x13F8, symSize: 0xB8 }
  - { offset: 0x4F07, size: 0x8, addend: 0x0, symName: '__ZN115_$LT$pyo3..instance..Bound$LT$pyo3..types..module..PyModule$GT$$u20$as$u20$pyo3..types..module..PyModuleMethods$GT$9add_class17hcec9fbb25787cd72E', symObjAddr: 0x988, symBinAddr: 0x14B0, symSize: 0xB8 }
  - { offset: 0x4F7B, size: 0x8, addend: 0x0, symName: '__ZN115_$LT$pyo3..instance..Bound$LT$pyo3..types..module..PyModule$GT$$u20$as$u20$pyo3..types..module..PyModuleMethods$GT$9add_class17hd17316b32a4d5c3cE', symObjAddr: 0xA40, symBinAddr: 0x1568, symSize: 0xB8 }
  - { offset: 0x5098, size: 0x8, addend: 0x0, symName: '__ZN127_$LT$pyo3..instance..Py$LT$pyo3..types..any..PyAny$GT$$u20$as$u20$core..convert..From$LT$pyo3..instance..Bound$LT$T$GT$$GT$$GT$4from17hbdc22c9c790f74b7E', symObjAddr: 0xAF8, symBinAddr: 0x1620, symSize: 0x84 }
  - { offset: 0x50F3, size: 0x8, addend: 0x0, symName: '__ZN129_$LT$pyo3..instance..Py$LT$T$GT$$u20$as$u20$pyo3..conversion..IntoPy$LT$pyo3..instance..Py$LT$pyo3..types..any..PyAny$GT$$GT$$GT$7into_py17h37ac55e8ff565d46E', symObjAddr: 0xB7C, symBinAddr: 0x16A4, symSize: 0x24 }
  - { offset: 0x5145, size: 0x8, addend: 0x0, symName: '__ZN129_$LT$pyo3..instance..Py$LT$T$GT$$u20$as$u20$pyo3..conversion..IntoPy$LT$pyo3..instance..Py$LT$pyo3..types..any..PyAny$GT$$GT$$GT$7into_py17hf5e4e4871b9c1412E', symObjAddr: 0xBA0, symBinAddr: 0x16C8, symSize: 0x24 }
  - { offset: 0x5197, size: 0x8, addend: 0x0, symName: '__ZN129_$LT$pyo3..instance..Py$LT$T$GT$$u20$as$u20$pyo3..conversion..IntoPy$LT$pyo3..instance..Py$LT$pyo3..types..any..PyAny$GT$$GT$$GT$7into_py17hf8dfc183b4ec4a02E', symObjAddr: 0xBC4, symBinAddr: 0x16EC, symSize: 0x24 }
  - { offset: 0x51EF, size: 0x8, addend: 0x0, symName: '__ZN132_$LT$pyo3..instance..Bound$LT$T$GT$$u20$as$u20$pyo3..conversion..IntoPy$LT$pyo3..instance..Py$LT$pyo3..types..any..PyAny$GT$$GT$$GT$7into_py17h916ae3b9a8232610E', symObjAddr: 0xBE8, symBinAddr: 0x1710, symSize: 0x28 }
  - { offset: 0x5247, size: 0x8, addend: 0x0, symName: '__ZN135_$LT$pyo3..instance..Borrowed$LT$T$GT$$u20$as$u20$pyo3..conversion..IntoPy$LT$pyo3..instance..Py$LT$pyo3..types..any..PyAny$GT$$GT$$GT$7into_py17h9c7c7cd5e30a891fE', symObjAddr: 0xC10, symBinAddr: 0x1738, symSize: 0x28 }
  - { offset: 0x5B02, size: 0x8, addend: 0x0, symName: '__ZN4pyo38instance11Py$LT$T$GT$24from_borrowed_ptr_or_opt28_$u7b$$u7b$closure$u7d$$u7d$17habf4310c7ee7405aE', symObjAddr: 0x1020, symBinAddr: 0x1B48, symSize: 0xFC }
  - { offset: 0x5D18, size: 0x8, addend: 0x0, symName: '__ZN4pyo38instance39Borrowed$LT$pyo3..types..any..PyAny$GT$15from_ptr_or_opt28_$u7b$$u7b$closure$u7d$$u7d$17ha2fc4d9dc663376bE', symObjAddr: 0x1D7C, symBinAddr: 0x28A4, symSize: 0x20 }
  - { offset: 0x5F3C, size: 0x8, addend: 0x0, symName: '__ZN69_$LT$pyo3..instance..Bound$LT$T$GT$$u20$as$u20$core..clone..Clone$GT$5clone17h1982509d5f609fffE', symObjAddr: 0x1E8C, symBinAddr: 0x29B4, symSize: 0x34 }
  - { offset: 0x5F73, size: 0x8, addend: 0x0, symName: '__ZN69_$LT$pyo3..instance..Bound$LT$T$GT$$u20$as$u20$core..clone..Clone$GT$5clone17h1c8524fbccb7db2cE', symObjAddr: 0x1EC0, symBinAddr: 0x29E8, symSize: 0x34 }
  - { offset: 0x5FAA, size: 0x8, addend: 0x0, symName: '__ZN69_$LT$pyo3..instance..Bound$LT$T$GT$$u20$as$u20$core..clone..Clone$GT$5clone17h92bdd57bf8e82712E', symObjAddr: 0x1EF4, symBinAddr: 0x2A1C, symSize: 0x34 }
  - { offset: 0x5FE1, size: 0x8, addend: 0x0, symName: '__ZN69_$LT$pyo3..instance..Bound$LT$T$GT$$u20$as$u20$core..clone..Clone$GT$5clone17hbc900018e1e1e71fE', symObjAddr: 0x1F28, symBinAddr: 0x2A50, symSize: 0x34 }
  - { offset: 0x6018, size: 0x8, addend: 0x0, symName: '__ZN69_$LT$pyo3..instance..Bound$LT$T$GT$$u20$as$u20$core..clone..Clone$GT$5clone17he14e6e48c5cad957E', symObjAddr: 0x1F5C, symBinAddr: 0x2A84, symSize: 0x34 }
  - { offset: 0x6055, size: 0x8, addend: 0x0, symName: '__ZN77_$LT$pyo3..instance..Borrowed$LT$T$GT$$u20$as$u20$core..ops..deref..Deref$GT$5deref17hb38fabe722b9939bE', symObjAddr: 0x1FB8, symBinAddr: 0x2AE0, symSize: 0x74 }
  - { offset: 0x6092, size: 0x8, addend: 0x0, symName: '__ZN78_$LT$pyo3..instance..Py$LT$T$GT$$u20$as$u20$pyo3..conversion..FromPyObject$GT$13extract_bound17h6809caa7c24c2f19E', symObjAddr: 0x202C, symBinAddr: 0x2B54, symSize: 0x3C }
  - { offset: 0x60CF, size: 0x8, addend: 0x0, symName: '__ZN81_$LT$pyo3..instance..Bound$LT$T$GT$$u20$as$u20$pyo3..conversion..FromPyObject$GT$13extract_bound17hf8992f244204def5E', symObjAddr: 0x2068, symBinAddr: 0x2B90, symSize: 0x4C }
  - { offset: 0x6195, size: 0x8, addend: 0x0, symName: '__ZN4pyo35impl_9pymethods133_$LT$impl$u20$core..convert..From$LT$pyo3..impl_..pymethods..BoundRef$LT$T$GT$$GT$$u20$for$u20$$RF$pyo3..instance..Bound$LT$T$GT$$GT$4from17h1f944c74600725c6E', symObjAddr: 0xCD4, symBinAddr: 0x17FC, symSize: 0x14 }
  - { offset: 0x6297, size: 0x8, addend: 0x0, symName: '__ZN71_$LT$T$u20$as$u20$pyo3..impl_..extract_argument..PyFunctionArgument$GT$7extract17hc10d57e5f3a0a17dE', symObjAddr: 0x1F90, symBinAddr: 0x2AB8, symSize: 0x28 }
  - { offset: 0x672D, size: 0x8, addend: 0x0, symName: '__ZN57_$LT$T$u20$as$u20$pyo3..conversion..FromPyObjectBound$GT$20from_py_object_bound17hebca931fd718fd7dE', symObjAddr: 0x1E24, symBinAddr: 0x294C, symSize: 0x34 }
  - { offset: 0x6764, size: 0x8, addend: 0x0, symName: '__ZN57_$LT$T$u20$as$u20$pyo3..conversion..FromPyObjectBound$GT$20from_py_object_bound17hf2b861c882bc0b5aE', symObjAddr: 0x1E58, symBinAddr: 0x2980, symSize: 0x34 }
  - { offset: 0x7532, size: 0x8, addend: 0x0, symName: '__ZN4pyo38instance11Py$LT$T$GT$10into_bound17h475dc53883ac0c7dE', symObjAddr: 0xCE8, symBinAddr: 0x1810, symSize: 0x1C }
  - { offset: 0x7579, size: 0x8, addend: 0x0, symName: '__ZN4pyo38instance11Py$LT$T$GT$10into_bound17h515b3ed353674efbE', symObjAddr: 0xD04, symBinAddr: 0x182C, symSize: 0x1C }
  - { offset: 0x8DA2, size: 0x8, addend: 0x0, symName: '__ZN4pyo38instance11Py$LT$T$GT$10into_bound17ha991f31e96c5aeebE', symObjAddr: 0xD20, symBinAddr: 0x1848, symSize: 0x1C }
  - { offset: 0x8DE9, size: 0x8, addend: 0x0, symName: '__ZN4pyo38instance11Py$LT$T$GT$10into_bound17heb77cff8656b4da9E', symObjAddr: 0xD3C, symBinAddr: 0x1864, symSize: 0x1C }
  - { offset: 0x8E30, size: 0x8, addend: 0x0, symName: '__ZN4pyo38instance11Py$LT$T$GT$13from_non_null17h055be4678b12e3a0E', symObjAddr: 0xD58, symBinAddr: 0x1880, symSize: 0x14 }
  - { offset: 0x8E5C, size: 0x8, addend: 0x0, symName: '__ZN4pyo38instance11Py$LT$T$GT$13from_non_null17h24d5d9a5017cb518E', symObjAddr: 0xD6C, symBinAddr: 0x1894, symSize: 0x14 }
  - { offset: 0x8E88, size: 0x8, addend: 0x0, symName: '__ZN4pyo38instance11Py$LT$T$GT$13from_non_null17h998932150666f150E', symObjAddr: 0xD80, symBinAddr: 0x18A8, symSize: 0x14 }
  - { offset: 0x8EB4, size: 0x8, addend: 0x0, symName: '__ZN4pyo38instance11Py$LT$T$GT$13from_non_null17hcecc15cf4e0b96eeE', symObjAddr: 0xD94, symBinAddr: 0x18BC, symSize: 0x14 }
  - { offset: 0x8EE0, size: 0x8, addend: 0x0, symName: '__ZN4pyo38instance11Py$LT$T$GT$13from_non_null17hf7c1fecf614bf36aE', symObjAddr: 0xDA8, symBinAddr: 0x18D0, symSize: 0x14 }
  - { offset: 0x8F26, size: 0x8, addend: 0x0, symName: '__ZN4pyo38instance11Py$LT$T$GT$16get_class_object17h150626332f9d116fE', symObjAddr: 0xDBC, symBinAddr: 0x18E4, symSize: 0x78 }
  - { offset: 0x8F82, size: 0x8, addend: 0x0, symName: '__ZN4pyo38instance11Py$LT$T$GT$16get_class_object17h5d1ca052c4ac71e8E', symObjAddr: 0xE34, symBinAddr: 0x195C, symSize: 0x78 }
  - { offset: 0x8FDE, size: 0x8, addend: 0x0, symName: '__ZN4pyo38instance11Py$LT$T$GT$16get_class_object17h6aaa6ca3fb9e1d06E', symObjAddr: 0xEAC, symBinAddr: 0x19D4, symSize: 0x78 }
  - { offset: 0x903A, size: 0x8, addend: 0x0, symName: '__ZN4pyo38instance11Py$LT$T$GT$16get_class_object17hbbab9ac728a78ac1E', symObjAddr: 0xF24, symBinAddr: 0x1A4C, symSize: 0x78 }
  - { offset: 0x90CE, size: 0x8, addend: 0x0, symName: '__ZN4pyo38instance11Py$LT$T$GT$17from_borrowed_ptr17hbb62e1c9e3068b09E', symObjAddr: 0xF9C, symBinAddr: 0x1AC4, symSize: 0x50 }
  - { offset: 0x9115, size: 0x8, addend: 0x0, symName: '__ZN4pyo38instance11Py$LT$T$GT$24from_borrowed_ptr_or_opt17h3fa57e6dbf4b5912E', symObjAddr: 0xFEC, symBinAddr: 0x1B14, symSize: 0x34 }
  - { offset: 0x91A4, size: 0x8, addend: 0x0, symName: '__ZN4pyo38instance11Py$LT$T$GT$3new17h3b7ae2f782c47e6fE', symObjAddr: 0x111C, symBinAddr: 0x1C44, symSize: 0x50 }
  - { offset: 0x91F5, size: 0x8, addend: 0x0, symName: '__ZN4pyo38instance11Py$LT$T$GT$3new17h83e6a4f41bfacc82E', symObjAddr: 0x116C, symBinAddr: 0x1C94, symSize: 0x50 }
  - { offset: 0x9246, size: 0x8, addend: 0x0, symName: '__ZN4pyo38instance11Py$LT$T$GT$3new17hd6f6a486d15e2c87E', symObjAddr: 0x11BC, symBinAddr: 0x1CE4, symSize: 0x50 }
  - { offset: 0x9299, size: 0x8, addend: 0x0, symName: '__ZN4pyo38instance11Py$LT$T$GT$6as_ptr17h1b93ca918bd17f98E', symObjAddr: 0x120C, symBinAddr: 0x1D34, symSize: 0x1C }
  - { offset: 0x92C5, size: 0x8, addend: 0x0, symName: '__ZN4pyo38instance11Py$LT$T$GT$6as_ptr17hb67a176a7d552c0bE', symObjAddr: 0x1228, symBinAddr: 0x1D50, symSize: 0x1C }
  - { offset: 0x92F1, size: 0x8, addend: 0x0, symName: '__ZN4pyo38instance11Py$LT$T$GT$6as_ptr17hd90c59c2057e9d0fE', symObjAddr: 0x1244, symBinAddr: 0x1D6C, symSize: 0x1C }
  - { offset: 0x931D, size: 0x8, addend: 0x0, symName: '__ZN4pyo38instance11Py$LT$T$GT$6as_ptr17heaebacf1e975105cE', symObjAddr: 0x1260, symBinAddr: 0x1D88, symSize: 0x1C }
  - { offset: 0x9349, size: 0x8, addend: 0x0, symName: '__ZN4pyo38instance11Py$LT$T$GT$8into_any17h13a0dd24fb37ef6dE', symObjAddr: 0x127C, symBinAddr: 0x1DA4, symSize: 0x3C }
  - { offset: 0x9375, size: 0x8, addend: 0x0, symName: '__ZN4pyo38instance11Py$LT$T$GT$8into_any17h38905aa8a909e300E', symObjAddr: 0x12B8, symBinAddr: 0x1DE0, symSize: 0x3C }
  - { offset: 0x93A1, size: 0x8, addend: 0x0, symName: '__ZN4pyo38instance11Py$LT$T$GT$8into_any17h3e20dd404100fd6aE', symObjAddr: 0x12F4, symBinAddr: 0x1E1C, symSize: 0x3C }
  - { offset: 0x93CD, size: 0x8, addend: 0x0, symName: '__ZN4pyo38instance11Py$LT$T$GT$8into_any17hbc4f6c385f35094dE', symObjAddr: 0x1330, symBinAddr: 0x1E58, symSize: 0x3C }
  - { offset: 0x93F9, size: 0x8, addend: 0x0, symName: '__ZN4pyo38instance11Py$LT$T$GT$8into_ptr17he337c0859cf83bd9E', symObjAddr: 0x136C, symBinAddr: 0x1E94, symSize: 0x30 }
  - { offset: 0x9425, size: 0x8, addend: 0x0, symName: '__ZN4pyo38instance11Py$LT$T$GT$9clone_ref17h4e367b5a136547b7E', symObjAddr: 0x139C, symBinAddr: 0x1EC4, symSize: 0x100 }
  - { offset: 0x94D4, size: 0x8, addend: 0x0, symName: '__ZN4pyo38instance11Py$LT$T$GT$9clone_ref17h536e4ba4c2ac7c43E', symObjAddr: 0x149C, symBinAddr: 0x1FC4, symSize: 0x100 }
  - { offset: 0x9583, size: 0x8, addend: 0x0, symName: '__ZN4pyo38instance11Py$LT$T$GT$9clone_ref17h5d04763ab096625aE', symObjAddr: 0x159C, symBinAddr: 0x20C4, symSize: 0x100 }
  - { offset: 0x9632, size: 0x8, addend: 0x0, symName: '__ZN4pyo38instance11Py$LT$T$GT$9clone_ref17h5f0270f3dac3a3efE', symObjAddr: 0x169C, symBinAddr: 0x21C4, symSize: 0x100 }
  - { offset: 0x96EE, size: 0x8, addend: 0x0, symName: '__ZN4pyo38instance11Py$LT$T$GT$9clone_ref17h835d33acb791ceaaE', symObjAddr: 0x179C, symBinAddr: 0x22C4, symSize: 0x100 }
  - { offset: 0x97AA, size: 0x8, addend: 0x0, symName: '__ZN4pyo38instance14Bound$LT$T$GT$10try_borrow17h49942758f188c3f5E', symObjAddr: 0x189C, symBinAddr: 0x23C4, symSize: 0x24 }
  - { offset: 0x97E3, size: 0x8, addend: 0x0, symName: '__ZN4pyo38instance14Bound$LT$T$GT$10try_borrow17h7a5a5eb26a014714E', symObjAddr: 0x18C0, symBinAddr: 0x23E8, symSize: 0x24 }
  - { offset: 0x981C, size: 0x8, addend: 0x0, symName: '__ZN4pyo38instance14Bound$LT$T$GT$10try_borrow17hb92393870cf1931bE', symObjAddr: 0x18E4, symBinAddr: 0x240C, symSize: 0x24 }
  - { offset: 0x9855, size: 0x8, addend: 0x0, symName: '__ZN4pyo38instance14Bound$LT$T$GT$10try_borrow17hc0fc70935154c8a3E', symObjAddr: 0x1908, symBinAddr: 0x2430, symSize: 0x24 }
  - { offset: 0x9881, size: 0x8, addend: 0x0, symName: '__ZN4pyo38instance14Bound$LT$T$GT$14try_borrow_mut17hb72f53dd2d021b30E', symObjAddr: 0x192C, symBinAddr: 0x2454, symSize: 0x24 }
  - { offset: 0x98AD, size: 0x8, addend: 0x0, symName: '__ZN4pyo38instance14Bound$LT$T$GT$16get_class_object17h1bf61ef943141179E', symObjAddr: 0x1950, symBinAddr: 0x2478, symSize: 0x2C }
  - { offset: 0x98D9, size: 0x8, addend: 0x0, symName: '__ZN4pyo38instance14Bound$LT$T$GT$16get_class_object17h5fd6a66582bd5df1E', symObjAddr: 0x197C, symBinAddr: 0x24A4, symSize: 0x2C }
  - { offset: 0x9905, size: 0x8, addend: 0x0, symName: '__ZN4pyo38instance14Bound$LT$T$GT$16get_class_object17h70766cd8447a0976E', symObjAddr: 0x19A8, symBinAddr: 0x24D0, symSize: 0x2C }
  - { offset: 0x9931, size: 0x8, addend: 0x0, symName: '__ZN4pyo38instance14Bound$LT$T$GT$16get_class_object17h8e0178414347e275E', symObjAddr: 0x19D4, symBinAddr: 0x24FC, symSize: 0x2C }
  - { offset: 0x995D, size: 0x8, addend: 0x0, symName: '__ZN4pyo38instance14Bound$LT$T$GT$3new17h12db3413d078dbb3E', symObjAddr: 0x1A00, symBinAddr: 0x2528, symSize: 0x58 }
  - { offset: 0x99AB, size: 0x8, addend: 0x0, symName: '__ZN4pyo38instance14Bound$LT$T$GT$3new17hac9c5a4993871242E', symObjAddr: 0x1A58, symBinAddr: 0x2580, symSize: 0x58 }
  - { offset: 0x99F9, size: 0x8, addend: 0x0, symName: '__ZN4pyo38instance14Bound$LT$T$GT$3new17hb637a99bc747f2b2E', symObjAddr: 0x1AB0, symBinAddr: 0x25D8, symSize: 0x60 }
  - { offset: 0x9A49, size: 0x8, addend: 0x0, symName: '__ZN4pyo38instance14Bound$LT$T$GT$6as_ptr17h3b98e7820411618aE', symObjAddr: 0x1B10, symBinAddr: 0x2638, symSize: 0x2C }
  - { offset: 0x9A75, size: 0x8, addend: 0x0, symName: '__ZN4pyo38instance14Bound$LT$T$GT$6as_ptr17h59bcb0986f9bd3a1E', symObjAddr: 0x1B3C, symBinAddr: 0x2664, symSize: 0x2C }
  - { offset: 0x9AA1, size: 0x8, addend: 0x0, symName: '__ZN4pyo38instance14Bound$LT$T$GT$6as_ptr17h84706d1381aed541E', symObjAddr: 0x1B68, symBinAddr: 0x2690, symSize: 0x2C }
  - { offset: 0x9ACD, size: 0x8, addend: 0x0, symName: '__ZN4pyo38instance14Bound$LT$T$GT$6as_ptr17hdfd6aa71f8434d3aE', symObjAddr: 0x1B94, symBinAddr: 0x26BC, symSize: 0x2C }
  - { offset: 0x9AF9, size: 0x8, addend: 0x0, symName: '__ZN4pyo38instance14Bound$LT$T$GT$6unbind17h492e3190c6e189c0E', symObjAddr: 0x1BC0, symBinAddr: 0x26E8, symSize: 0x48 }
  - { offset: 0x9B43, size: 0x8, addend: 0x0, symName: '__ZN4pyo38instance14Bound$LT$T$GT$6unbind17h5775dc92e006278cE', symObjAddr: 0x1C08, symBinAddr: 0x2730, symSize: 0x48 }
  - { offset: 0x9B8D, size: 0x8, addend: 0x0, symName: '__ZN4pyo38instance14Bound$LT$T$GT$6unbind17h621ca5615316cca0E', symObjAddr: 0x1C50, symBinAddr: 0x2778, symSize: 0x48 }
  - { offset: 0x9BD7, size: 0x8, addend: 0x0, symName: '__ZN4pyo38instance14Bound$LT$T$GT$6unbind17hc3d72f813e883162E', symObjAddr: 0x1C98, symBinAddr: 0x27C0, symSize: 0x48 }
  - { offset: 0x9C21, size: 0x8, addend: 0x0, symName: '__ZN4pyo38instance14Bound$LT$T$GT$8into_any17h1e7f85f5d0b8af85E', symObjAddr: 0x1CE0, symBinAddr: 0x2808, symSize: 0x30 }
  - { offset: 0x9C4D, size: 0x8, addend: 0x0, symName: '__ZN4pyo38instance14Bound$LT$T$GT$8into_ptr17h264e1a01935c9261E', symObjAddr: 0x1D10, symBinAddr: 0x2838, symSize: 0x40 }
  - { offset: 0x9C79, size: 0x8, addend: 0x0, symName: '__ZN4pyo38instance17Borrowed$LT$T$GT$8to_owned17hc54574465c980837E', symObjAddr: 0x1D50, symBinAddr: 0x2878, symSize: 0x2C }
  - { offset: 0x9CB2, size: 0x8, addend: 0x0, symName: '__ZN4pyo38instance39Borrowed$LT$pyo3..types..any..PyAny$GT$18downcast_unchecked17h41066daf0a8a4cb2E', symObjAddr: 0x1D9C, symBinAddr: 0x28C4, symSize: 0x14 }
  - { offset: 0x9CEB, size: 0x8, addend: 0x0, symName: '__ZN4pyo38instance39Borrowed$LT$pyo3..types..any..PyAny$GT$18downcast_unchecked17h7737dcb19970c926E', symObjAddr: 0x1DB0, symBinAddr: 0x28D8, symSize: 0x14 }
  - { offset: 0x9D24, size: 0x8, addend: 0x0, symName: '__ZN4pyo38instance39Borrowed$LT$pyo3..types..any..PyAny$GT$18downcast_unchecked17h8cd102973f81a3c7E', symObjAddr: 0x1DC4, symBinAddr: 0x28EC, symSize: 0x14 }
  - { offset: 0x9D5D, size: 0x8, addend: 0x0, symName: '__ZN4pyo38internal8get_slot78_$LT$impl$u20$pyo3..instance..Bound$LT$pyo3..types..typeobject..PyType$GT$$GT$8get_slot17hef9a0e16ab49f7b6E', symObjAddr: 0x1DD8, symBinAddr: 0x2900, symSize: 0x28 }
  - { offset: 0x9E86, size: 0x8, addend: 0x0, symName: __ZN3std2io5error5Error3new17hb02b89b5f1587d03E, symObjAddr: 0x0, symBinAddr: 0x2BDC, symSize: 0x4C }
  - { offset: 0xA37B, size: 0x8, addend: 0x0, symName: __ZN3std2io5error5Error3new17hb02b89b5f1587d03E, symObjAddr: 0x0, symBinAddr: 0x2BDC, symSize: 0x4C }
  - { offset: 0xA3D5, size: 0x8, addend: 0x0, symName: '__ZN87_$LT$I$u20$as$u20$core..iter..traits..iterator..Iterator..advance_by..SpecAdvanceBy$GT$15spec_advance_by28_$u7b$$u7b$closure$u7d$$u7d$17h10222ba9e7ff3df3E', symObjAddr: 0x0, symBinAddr: 0x2C28, symSize: 0x40 }
  - { offset: 0xABCB, size: 0x8, addend: 0x0, symName: '__ZN87_$LT$I$u20$as$u20$core..iter..traits..iterator..Iterator..advance_by..SpecAdvanceBy$GT$15spec_advance_by28_$u7b$$u7b$closure$u7d$$u7d$17h10222ba9e7ff3df3E', symObjAddr: 0x0, symBinAddr: 0x2C28, symSize: 0x40 }
  - { offset: 0xAC18, size: 0x8, addend: 0x0, symName: '__ZN87_$LT$I$u20$as$u20$core..iter..traits..iterator..Iterator..advance_by..SpecAdvanceBy$GT$15spec_advance_by28_$u7b$$u7b$closure$u7d$$u7d$17h36babefa3be6f807E', symObjAddr: 0x40, symBinAddr: 0x2C68, symSize: 0x40 }
  - { offset: 0xAC65, size: 0x8, addend: 0x0, symName: '__ZN87_$LT$I$u20$as$u20$core..iter..traits..iterator..Iterator..advance_by..SpecAdvanceBy$GT$15spec_advance_by28_$u7b$$u7b$closure$u7d$$u7d$17habc7e041c22afcf0E', symObjAddr: 0x80, symBinAddr: 0x2CA8, symSize: 0x40 }
  - { offset: 0xACB2, size: 0x8, addend: 0x0, symName: '__ZN87_$LT$I$u20$as$u20$core..iter..traits..iterator..Iterator..advance_by..SpecAdvanceBy$GT$15spec_advance_by28_$u7b$$u7b$closure$u7d$$u7d$17he962bde728c0d9a4E', symObjAddr: 0xC0, symBinAddr: 0x2CE8, symSize: 0x40 }
  - { offset: 0xC349, size: 0x8, addend: 0x0, symName: __ZN4pyo311type_object10PyTypeInfo16is_type_of_bound17h7af2a7790cd0ce65E, symObjAddr: 0x0, symBinAddr: 0x2D28, symSize: 0x50 }
  - { offset: 0xCB48, size: 0x8, addend: 0x0, symName: '__ZN50_$LT$T$u20$as$u20$core..convert..Into$LT$U$GT$$GT$4into17h091d40121a99d8d8E', symObjAddr: 0x1EC, symBinAddr: 0x2F14, symSize: 0x14 }
  - { offset: 0xCB89, size: 0x8, addend: 0x0, symName: '__ZN50_$LT$T$u20$as$u20$core..convert..Into$LT$U$GT$$GT$4into17h0c41a195c1190f8dE', symObjAddr: 0x200, symBinAddr: 0x2F28, symSize: 0x14 }
  - { offset: 0xCBCA, size: 0x8, addend: 0x0, symName: '__ZN50_$LT$T$u20$as$u20$core..convert..Into$LT$U$GT$$GT$4into17h7a3ebe01165099e3E', symObjAddr: 0x214, symBinAddr: 0x2F3C, symSize: 0x14 }
  - { offset: 0xCC0B, size: 0x8, addend: 0x0, symName: '__ZN50_$LT$T$u20$as$u20$core..convert..Into$LT$U$GT$$GT$4into17hcc43eb70747ae3d5E', symObjAddr: 0x228, symBinAddr: 0x2F50, symSize: 0x14 }
  - { offset: 0xEFFC, size: 0x8, addend: 0x0, symName: '__ZN67_$LT$sekejap..PyDB$u20$as$u20$pyo3..impl_..pyclass..PyClassImpl$GT$3doc28_$u7b$$u7b$closure$u7d$$u7d$17h55cfd514668dcbd6E', symObjAddr: 0x2CC, symBinAddr: 0x2FF4, symSize: 0x54 }
  - { offset: 0xF059, size: 0x8, addend: 0x0, symName: '__ZN68_$LT$sekejap..PyHit$u20$as$u20$pyo3..impl_..pyclass..PyClassImpl$GT$10items_iter15INTRINSIC_ITEMS28_$u7b$$u7b$closure$u7d$$u7d$17hd0c3f534d4b00964E', symObjAddr: 0x320, symBinAddr: 0x3048, symSize: 0x48 }
  - { offset: 0xF081, size: 0x8, addend: 0x0, symName: '__ZN68_$LT$sekejap..PyHit$u20$as$u20$pyo3..impl_..pyclass..PyClassImpl$GT$10items_iter15INTRINSIC_ITEMS28_$u7b$$u7b$closure$u7d$$u7d$17hfe2025a7a1749128E', symObjAddr: 0x368, symBinAddr: 0x3090, symSize: 0x44 }
  - { offset: 0xF0BE, size: 0x8, addend: 0x0, symName: '__ZN68_$LT$sekejap..PyHit$u20$as$u20$pyo3..impl_..pyclass..PyClassImpl$GT$3doc28_$u7b$$u7b$closure$u7d$$u7d$17h918e0d22b275ef5fE', symObjAddr: 0x3AC, symBinAddr: 0x30D4, symSize: 0x58 }
  - { offset: 0xF11B, size: 0x8, addend: 0x0, symName: '__ZN72_$LT$sekejap..PyEdgeHit$u20$as$u20$pyo3..impl_..pyclass..PyClassImpl$GT$10items_iter15INTRINSIC_ITEMS28_$u7b$$u7b$closure$u7d$$u7d$17h14955889d5a57d08E', symObjAddr: 0x404, symBinAddr: 0x312C, symSize: 0x44 }
  - { offset: 0xF143, size: 0x8, addend: 0x0, symName: '__ZN72_$LT$sekejap..PyEdgeHit$u20$as$u20$pyo3..impl_..pyclass..PyClassImpl$GT$10items_iter15INTRINSIC_ITEMS28_$u7b$$u7b$closure$u7d$$u7d$17hdcd4594e1b32454cE', symObjAddr: 0x448, symBinAddr: 0x3170, symSize: 0x44 }
  - { offset: 0xF16B, size: 0x8, addend: 0x0, symName: '__ZN72_$LT$sekejap..PyEdgeHit$u20$as$u20$pyo3..impl_..pyclass..PyClassImpl$GT$10items_iter15INTRINSIC_ITEMS28_$u7b$$u7b$closure$u7d$$u7d$17he1d5a90825523a73E', symObjAddr: 0x48C, symBinAddr: 0x31B4, symSize: 0x44 }
  - { offset: 0xF193, size: 0x8, addend: 0x0, symName: '__ZN72_$LT$sekejap..PyEdgeHit$u20$as$u20$pyo3..impl_..pyclass..PyClassImpl$GT$10items_iter15INTRINSIC_ITEMS28_$u7b$$u7b$closure$u7d$$u7d$17he5a499e5207d2870E', symObjAddr: 0x4D0, symBinAddr: 0x31F8, symSize: 0x44 }
  - { offset: 0xF1BB, size: 0x8, addend: 0x0, symName: '__ZN72_$LT$sekejap..PyEdgeHit$u20$as$u20$pyo3..impl_..pyclass..PyClassImpl$GT$10items_iter15INTRINSIC_ITEMS28_$u7b$$u7b$closure$u7d$$u7d$17hfd021c7c1ffcb9cfE', symObjAddr: 0x514, symBinAddr: 0x323C, symSize: 0x44 }
  - { offset: 0xF20D, size: 0x8, addend: 0x0, symName: '__ZN72_$LT$sekejap..PyEdgeHit$u20$as$u20$pyo3..impl_..pyclass..PyClassImpl$GT$3doc28_$u7b$$u7b$closure$u7d$$u7d$17h8acf3741ce25ff24E', symObjAddr: 0x558, symBinAddr: 0x3280, symSize: 0x58 }
  - { offset: 0xF26A, size: 0x8, addend: 0x0, symName: '__ZN75_$LT$sekejap..PyPathResult$u20$as$u20$pyo3..impl_..pyclass..PyClassImpl$GT$10items_iter15INTRINSIC_ITEMS28_$u7b$$u7b$closure$u7d$$u7d$17h478bae2c5885353fE', symObjAddr: 0x5B0, symBinAddr: 0x32D8, symSize: 0x44 }
  - { offset: 0xF292, size: 0x8, addend: 0x0, symName: '__ZN75_$LT$sekejap..PyPathResult$u20$as$u20$pyo3..impl_..pyclass..PyClassImpl$GT$10items_iter15INTRINSIC_ITEMS28_$u7b$$u7b$closure$u7d$$u7d$17h874cd734aad1ba02E', symObjAddr: 0x5F4, symBinAddr: 0x331C, symSize: 0x44 }
  - { offset: 0xF2BA, size: 0x8, addend: 0x0, symName: '__ZN75_$LT$sekejap..PyPathResult$u20$as$u20$pyo3..impl_..pyclass..PyClassImpl$GT$10items_iter15INTRINSIC_ITEMS28_$u7b$$u7b$closure$u7d$$u7d$17heb08f5d3b89b1d4dE', symObjAddr: 0x638, symBinAddr: 0x3360, symSize: 0x44 }
  - { offset: 0xF2FE, size: 0x8, addend: 0x0, symName: '__ZN75_$LT$sekejap..PyPathResult$u20$as$u20$pyo3..impl_..pyclass..PyClassImpl$GT$3doc28_$u7b$$u7b$closure$u7d$$u7d$17hefe9aa1cfce7037fE', symObjAddr: 0x67C, symBinAddr: 0x33A4, symSize: 0x58 }
  - { offset: 0xF351, size: 0x8, addend: 0x0, symName: '__ZN7sekejap12to_pyedgehit28_$u7b$$u7b$closure$u7d$$u7d$17h6f3491b8ed14394bE', symObjAddr: 0x6D4, symBinAddr: 0x33FC, symSize: 0x24 }
  - { offset: 0xF399, size: 0x8, addend: 0x0, symName: '__ZN7sekejap4PyDB10path_query28_$u7b$$u7b$closure$u7d$$u7d$17h4c399369a727fb54E', symObjAddr: 0x6F8, symBinAddr: 0x3420, symSize: 0x144 }
  - { offset: 0xF3DD, size: 0x8, addend: 0x0, symName: '__ZN7sekejap4PyDB3put28_$u7b$$u7b$closure$u7d$$u7d$17he8557bc718266d92E', symObjAddr: 0x8BC, symBinAddr: 0x35E4, symSize: 0x10 }
  - { offset: 0xF41E, size: 0x8, addend: 0x0, symName: '__ZN7sekejap4PyDB20__pymethod___new____28_$u7b$$u7b$closure$u7d$$u7d$17ha03aedf7ebb90933E', symObjAddr: 0x83C, symBinAddr: 0x3564, symSize: 0x24 }
  - { offset: 0xF453, size: 0x8, addend: 0x0, symName: '__ZN7sekejap4PyDB22__pymethod___enter____28_$u7b$$u7b$closure$u7d$$u7d$17h2b8e565f788a0bdbE', symObjAddr: 0x860, symBinAddr: 0x3588, symSize: 0x30 }
  - { offset: 0xF49F, size: 0x8, addend: 0x0, symName: '__ZN7sekejap4PyDB2db28_$u7b$$u7b$closure$u7d$$u7d$17h5c70a41aac2ea5f8E', symObjAddr: 0x890, symBinAddr: 0x35B8, symSize: 0x2C }
  - { offset: 0xF4D6, size: 0x8, addend: 0x0, symName: '__ZN7sekejap4PyDB6db_mut28_$u7b$$u7b$closure$u7d$$u7d$17hca1061f664606286E', symObjAddr: 0x8CC, symBinAddr: 0x35F4, symSize: 0x2C }
  - { offset: 0xF513, size: 0x8, addend: 0x0, symName: '__ZN7sekejap5PyHit8__repr__28_$u7b$$u7b$closure$u7d$$u7d$17h9994ea85db92914bE', symObjAddr: 0x8F8, symBinAddr: 0x3620, symSize: 0x54 }
  - { offset: 0xF552, size: 0x8, addend: 0x0, symName: __ZN7sekejap6db_err17h0563fc3bc22ce1b8E, symObjAddr: 0x94C, symBinAddr: 0x3674, symSize: 0x74 }
  - { offset: 0xF587, size: 0x8, addend: 0x0, symName: __ZN7sekejap6db_err17h62566ab55b0dcd07E, symObjAddr: 0x9C0, symBinAddr: 0x36E8, symSize: 0x74 }
  - { offset: 0xF5BC, size: 0x8, addend: 0x0, symName: __ZN7sekejap6db_err17hca24ce7a5ae27c72E, symObjAddr: 0xA34, symBinAddr: 0x375C, symSize: 0x6C }
  - { offset: 0xF5F7, size: 0x8, addend: 0x0, symName: '__ZN7sekejap8to_pyhit28_$u7b$$u7b$closure$u7d$$u7d$17h9c72e87e895275ccE', symObjAddr: 0xAA0, symBinAddr: 0x37C8, symSize: 0x24 }
  - { offset: 0x103C9, size: 0x8, addend: 0x0, symName: __ZN4pyo311type_object10PyTypeInfo16is_type_of_bound17h7af2a7790cd0ce65E, symObjAddr: 0x0, symBinAddr: 0x2D28, symSize: 0x50 }
  - { offset: 0x103FE, size: 0x8, addend: 0x0, symName: __ZN4pyo311type_object10PyTypeInfo16is_type_of_bound17hd5ce21317b4f9707E, symObjAddr: 0x50, symBinAddr: 0x2D78, symSize: 0x50 }
  - { offset: 0x10433, size: 0x8, addend: 0x0, symName: __ZN4pyo311type_object10PyTypeInfo16is_type_of_bound17he09245bf09a62de6E, symObjAddr: 0xA0, symBinAddr: 0x2DC8, symSize: 0x50 }
  - { offset: 0x10468, size: 0x8, addend: 0x0, symName: __ZN4pyo311type_object10PyTypeInfo16is_type_of_bound17hf6c1c27929418a39E, symObjAddr: 0xF0, symBinAddr: 0x2E18, symSize: 0x50 }
  - { offset: 0x104A3, size: 0x8, addend: 0x0, symName: '__ZN52_$LT$T$u20$as$u20$pyo3..type_object..PyTypeCheck$GT$10type_check17h2e9c41cde19d6ec8E', symObjAddr: 0x23C, symBinAddr: 0x2F64, symSize: 0x24 }
  - { offset: 0x104D8, size: 0x8, addend: 0x0, symName: '__ZN52_$LT$T$u20$as$u20$pyo3..type_object..PyTypeCheck$GT$10type_check17h672258ed6235ed83E', symObjAddr: 0x260, symBinAddr: 0x2F88, symSize: 0x24 }
  - { offset: 0x1050D, size: 0x8, addend: 0x0, symName: '__ZN52_$LT$T$u20$as$u20$pyo3..type_object..PyTypeCheck$GT$10type_check17h73473ca1e2264fe2E', symObjAddr: 0x284, symBinAddr: 0x2FAC, symSize: 0x24 }
  - { offset: 0x10542, size: 0x8, addend: 0x0, symName: '__ZN52_$LT$T$u20$as$u20$pyo3..type_object..PyTypeCheck$GT$10type_check17h83205d9d75e69a7fE', symObjAddr: 0x2A8, symBinAddr: 0x2FD0, symSize: 0x24 }
  - { offset: 0x10583, size: 0x8, addend: 0x0, symName: '__ZN4pyo312pyclass_init123_$LT$impl$u20$pyo3..callback..IntoPyCallbackOutput$LT$pyo3..pyclass_init..PyClassInitializer$LT$T$GT$$GT$$u20$for$u20$U$GT$7convert17h8dd9553d4a559fdaE', symObjAddr: 0x140, symBinAddr: 0x2E68, symSize: 0x6C }
  - { offset: 0x1088D, size: 0x8, addend: 0x0, symName: __ZN4pyo35impl_7pyclass11PyClassImpl11dict_offset17h1bdab054ea4106bcE, symObjAddr: 0x1AC, symBinAddr: 0x2ED4, symSize: 0x8 }
  - { offset: 0x108B4, size: 0x8, addend: 0x0, symName: __ZN4pyo35impl_7pyclass11PyClassImpl11dict_offset17h672e10b9e45564abE, symObjAddr: 0x1B4, symBinAddr: 0x2EDC, symSize: 0x8 }
  - { offset: 0x108DB, size: 0x8, addend: 0x0, symName: __ZN4pyo35impl_7pyclass11PyClassImpl11dict_offset17h8a0e6a20b4c8dcb7E, symObjAddr: 0x1BC, symBinAddr: 0x2EE4, symSize: 0x8 }
  - { offset: 0x10902, size: 0x8, addend: 0x0, symName: __ZN4pyo35impl_7pyclass11PyClassImpl11dict_offset17ha5887c000028c5eeE, symObjAddr: 0x1C4, symBinAddr: 0x2EEC, symSize: 0x8 }
  - { offset: 0x10929, size: 0x8, addend: 0x0, symName: __ZN4pyo35impl_7pyclass11PyClassImpl15weaklist_offset17h2d61c1d6c77f480dE, symObjAddr: 0x1CC, symBinAddr: 0x2EF4, symSize: 0x8 }
  - { offset: 0x10950, size: 0x8, addend: 0x0, symName: __ZN4pyo35impl_7pyclass11PyClassImpl15weaklist_offset17h62e9af81a09ace0dE, symObjAddr: 0x1D4, symBinAddr: 0x2EFC, symSize: 0x8 }
  - { offset: 0x10977, size: 0x8, addend: 0x0, symName: __ZN4pyo35impl_7pyclass11PyClassImpl15weaklist_offset17hdaf4e54bea728e5fE, symObjAddr: 0x1DC, symBinAddr: 0x2F04, symSize: 0x8 }
  - { offset: 0x1099E, size: 0x8, addend: 0x0, symName: __ZN4pyo35impl_7pyclass11PyClassImpl15weaklist_offset17hf9d3af0eafdb0256E, symObjAddr: 0x1E4, symBinAddr: 0x2F0C, symSize: 0x8 }
  - { offset: 0x1194A, size: 0x8, addend: 0x0, symName: '__ZN87_$LT$T$u20$as$u20$alloc..slice..$LT$impl$u20$$u5b$T$u5d$$GT$..to_vec_in..ConvertVec$GT$6to_vec17h12bed1c276ae8429E', symObjAddr: 0xAC4, symBinAddr: 0x37EC, symSize: 0x378 }
  - { offset: 0x11E1F, size: 0x8, addend: 0x0, symName: '__ZN87_$LT$T$u20$as$u20$alloc..slice..$LT$impl$u20$$u5b$T$u5d$$GT$..to_vec_in..ConvertVec$GT$6to_vec17h2c2ba52035f06e26E', symObjAddr: 0xE3C, symBinAddr: 0x3B64, symSize: 0x378 }
  - { offset: 0x14A92, size: 0x8, addend: 0x0, symName: __ZN9hashbrown3raw13RawTableInner13drop_elements17h9172353b2f8a78efE, symObjAddr: 0x0, symBinAddr: 0x3EDC, symSize: 0x15C }
  - { offset: 0x15D13, size: 0x8, addend: 0x0, symName: __ZN9hashbrown3raw13RawTableInner13drop_elements17h9172353b2f8a78efE, symObjAddr: 0x0, symBinAddr: 0x3EDC, symSize: 0x15C }
  - { offset: 0x160BC, size: 0x8, addend: 0x0, symName: __ZN9hashbrown3raw13RawTableInner16drop_inner_table17haeba5e0e72cb42eeE, symObjAddr: 0x15C, symBinAddr: 0x4038, symSize: 0xAC }
  - { offset: 0x162B2, size: 0x8, addend: 0x0, symName: '__ZN9hashbrown3raw21RawIterRange$LT$T$GT$3new17hd4ede0b2947c5904E', symObjAddr: 0x208, symBinAddr: 0x40E4, symSize: 0x98 }
  - { offset: 0x16546, size: 0x8, addend: 0x0, symName: '__ZN9hashbrown3raw21RawIterRange$LT$T$GT$9next_impl17h2873fb180e449a7bE', symObjAddr: 0x2A0, symBinAddr: 0x417C, symSize: 0x1B4 }
  - { offset: 0x1689F, size: 0x8, addend: 0x0, symName: '__ZN9hashbrown3raw21RawTable$LT$T$C$A$GT$16with_capacity_in17h3ea13706b809f9e0E', symObjAddr: 0x454, symBinAddr: 0x4330, symSize: 0x98 }
  - { offset: 0x16927, size: 0x8, addend: 0x0, symName: '__ZN4core3str6traits54_$LT$impl$u20$core..cmp..PartialEq$u20$for$u20$str$GT$2eq17hae8ff5ef5398597aE', symObjAddr: 0x0, symBinAddr: 0x43C8, symSize: 0xA0 }
  - { offset: 0x1696C, size: 0x8, addend: 0x0, symName: '__ZN4core3str6traits54_$LT$impl$u20$core..cmp..PartialEq$u20$for$u20$str$GT$2eq17hae8ff5ef5398597aE', symObjAddr: 0x0, symBinAddr: 0x43C8, symSize: 0xA0 }
  - { offset: 0x16C13, size: 0x8, addend: 0x0, symName: __ZN4pyo35impl_5panic9PanicTrap3new17h6f2777b0b4268525E, symObjAddr: 0x0, symBinAddr: 0x4468, symSize: 0x18 }
  - { offset: 0x16CA2, size: 0x8, addend: 0x0, symName: __ZN4pyo35impl_5panic9PanicTrap3new17h6f2777b0b4268525E, symObjAddr: 0x0, symBinAddr: 0x4468, symSize: 0x18 }
  - { offset: 0x16CC4, size: 0x8, addend: 0x0, symName: __ZN4pyo35impl_5panic9PanicTrap6disarm17h5df10019f8b0a507E, symObjAddr: 0x18, symBinAddr: 0x4480, symSize: 0x28 }
  - { offset: 0x16D04, size: 0x8, addend: 0x0, symName: __ZN3std4path4Path6exists17hab620c6301a39bc0E, symObjAddr: 0x0, symBinAddr: 0x44A8, symSize: 0x4C }
  - { offset: 0x17065, size: 0x8, addend: 0x0, symName: '__ZN62_$LT$std..path..PathBuf$u20$as$u20$core..ops..deref..Deref$GT$5deref17h4d575ffbf0d20e9bE', symObjAddr: 0x64, symBinAddr: 0x450C, symSize: 0x34 }
  - { offset: 0x1757A, size: 0x8, addend: 0x0, symName: __ZN3std4path4Path6exists17hab620c6301a39bc0E, symObjAddr: 0x0, symBinAddr: 0x44A8, symSize: 0x4C }
  - { offset: 0x175E1, size: 0x8, addend: 0x0, symName: __ZN3std4path4Path7display17hbf81a7451691e51eE, symObjAddr: 0x4C, symBinAddr: 0x44F4, symSize: 0x18 }
  - { offset: 0x17721, size: 0x8, addend: 0x0, symName: __ZN4pyo38callback7convert17hf74ead5b6fa4489aE, symObjAddr: 0x0, symBinAddr: 0x4540, symSize: 0x34 }
  - { offset: 0x189DB, size: 0x8, addend: 0x0, symName: __ZN4pyo38callback7convert17hf74ead5b6fa4489aE, symObjAddr: 0x0, symBinAddr: 0x4540, symSize: 0x34 }
  - { offset: 0x191A2, size: 0x8, addend: 0x0, symName: __ZN4core4char7methods25encode_utf8_raw_unchecked17h762cdeca107b17f7E, symObjAddr: 0x0, symBinAddr: 0x4574, symSize: 0x188 }
  - { offset: 0x19222, size: 0x8, addend: 0x0, symName: __ZN4core4char7methods25encode_utf8_raw_unchecked17h762cdeca107b17f7E, symObjAddr: 0x0, symBinAddr: 0x4574, symSize: 0x188 }
  - { offset: 0x1940F, size: 0x8, addend: 0x0, symName: '__ZN10serde_core2de5impls87_$LT$impl$u20$serde_core..de..Deserialize$u20$for$u20$core..option..Option$LT$T$GT$$GT$11deserialize17h0a1be73b23ed620dE', symObjAddr: 0x0, symBinAddr: 0x46FC, symSize: 0x28 }
  - { offset: 0x1ABF7, size: 0x8, addend: 0x0, symName: '__ZN4core3ptr9const_ptr33_$LT$impl$u20$$BP$const$u20$T$GT$7is_null17h513b06c436fc56ecE', symObjAddr: 0x17C, symBinAddr: 0x4878, symSize: 0x18 }
  - { offset: 0x1AE0E, size: 0x8, addend: 0x0, symName: '__ZN4core5slice29_$LT$impl$u20$$u5b$T$u5d$$GT$15copy_from_slice17hcb44fa5cf05baff0E', symObjAddr: 0x194, symBinAddr: 0x4890, symSize: 0x34 }
  - { offset: 0x1AE77, size: 0x8, addend: 0x0, symName: '__ZN4core5slice29_$LT$impl$u20$$u5b$T$u5d$$GT$18split_at_unchecked17h9bf54f1e52d89cffE', symObjAddr: 0x1C8, symBinAddr: 0x48C4, symSize: 0xE8 }
  - { offset: 0x1B004, size: 0x8, addend: 0x0, symName: '__ZN4core5slice29_$LT$impl$u20$$u5b$T$u5d$$GT$8split_at17h92507d59d8d363d6E', symObjAddr: 0x2B0, symBinAddr: 0x49AC, symSize: 0xAC }
  - { offset: 0x1D55C, size: 0x8, addend: 0x0, symName: __ZN4core6option6Option4Some17h0fb47969b9d07fe1E, symObjAddr: 0x122C, symBinAddr: 0x5928, symSize: 0x18 }
  - { offset: 0x1D58F, size: 0x8, addend: 0x0, symName: __ZN4core6option6Option4Some17h311121c39a676511E, symObjAddr: 0x1244, symBinAddr: 0x5940, symSize: 0x18 }
  - { offset: 0x1D5C2, size: 0x8, addend: 0x0, symName: __ZN4core6option6Option4Some17h7436e26f7a2aa18eE, symObjAddr: 0x125C, symBinAddr: 0x5958, symSize: 0x28 }
  - { offset: 0x1D5F5, size: 0x8, addend: 0x0, symName: __ZN4core6option6Option4Some17h7a26dd2dd82f2bd3E, symObjAddr: 0x1284, symBinAddr: 0x5980, symSize: 0x18 }
  - { offset: 0x1D628, size: 0x8, addend: 0x0, symName: __ZN4core6option6Option4Some17h881a5e6f55d7fdb9E, symObjAddr: 0x129C, symBinAddr: 0x5998, symSize: 0x18 }
  - { offset: 0x1D65B, size: 0x8, addend: 0x0, symName: __ZN4core6option6Option4Some17hb3cd27526a8374ccE, symObjAddr: 0x12B4, symBinAddr: 0x59B0, symSize: 0x14 }
  - { offset: 0x1D695, size: 0x8, addend: 0x0, symName: '__ZN68_$LT$core..option..Option$LT$T$GT$$u20$as$u20$core..clone..Clone$GT$5clone17h7e61f1c20b1655c5E', symObjAddr: 0x1374, symBinAddr: 0x5A70, symSize: 0x7C }
  - { offset: 0x1E2F5, size: 0x8, addend: 0x0, symName: '__ZN10serde_core2de5impls87_$LT$impl$u20$serde_core..de..Deserialize$u20$for$u20$core..option..Option$LT$T$GT$$GT$11deserialize17h0a1be73b23ed620dE', symObjAddr: 0x0, symBinAddr: 0x46FC, symSize: 0x28 }
  - { offset: 0x1E335, size: 0x8, addend: 0x0, symName: '__ZN10serde_core2de5impls87_$LT$impl$u20$serde_core..de..Deserialize$u20$for$u20$core..option..Option$LT$T$GT$$GT$11deserialize17h0f1d62c9441c27fdE', symObjAddr: 0x28, symBinAddr: 0x4724, symSize: 0x24 }
  - { offset: 0x1E375, size: 0x8, addend: 0x0, symName: '__ZN10serde_core2de5impls87_$LT$impl$u20$serde_core..de..Deserialize$u20$for$u20$core..option..Option$LT$T$GT$$GT$11deserialize17h1d2873353fc459daE', symObjAddr: 0x4C, symBinAddr: 0x4748, symSize: 0x24 }
  - { offset: 0x1E3B5, size: 0x8, addend: 0x0, symName: '__ZN10serde_core2de5impls87_$LT$impl$u20$serde_core..de..Deserialize$u20$for$u20$core..option..Option$LT$T$GT$$GT$11deserialize17h313198402aef23bdE', symObjAddr: 0x70, symBinAddr: 0x476C, symSize: 0x24 }
  - { offset: 0x1E3F5, size: 0x8, addend: 0x0, symName: '__ZN10serde_core2de5impls87_$LT$impl$u20$serde_core..de..Deserialize$u20$for$u20$core..option..Option$LT$T$GT$$GT$11deserialize17h41cf65af68bf0db0E', symObjAddr: 0x94, symBinAddr: 0x4790, symSize: 0x28 }
  - { offset: 0x1E435, size: 0x8, addend: 0x0, symName: '__ZN10serde_core2de5impls87_$LT$impl$u20$serde_core..de..Deserialize$u20$for$u20$core..option..Option$LT$T$GT$$GT$11deserialize17h4ba608cdd9b7f67cE', symObjAddr: 0xBC, symBinAddr: 0x47B8, symSize: 0x28 }
  - { offset: 0x1E475, size: 0x8, addend: 0x0, symName: '__ZN10serde_core2de5impls87_$LT$impl$u20$serde_core..de..Deserialize$u20$for$u20$core..option..Option$LT$T$GT$$GT$11deserialize17h5afb6a29b39e68c1E', symObjAddr: 0xE4, symBinAddr: 0x47E0, symSize: 0x28 }
  - { offset: 0x1E4B5, size: 0x8, addend: 0x0, symName: '__ZN10serde_core2de5impls87_$LT$impl$u20$serde_core..de..Deserialize$u20$for$u20$core..option..Option$LT$T$GT$$GT$11deserialize17h9b97274b29fdc77dE', symObjAddr: 0x10C, symBinAddr: 0x4808, symSize: 0x24 }
  - { offset: 0x1E4F5, size: 0x8, addend: 0x0, symName: '__ZN10serde_core2de5impls87_$LT$impl$u20$serde_core..de..Deserialize$u20$for$u20$core..option..Option$LT$T$GT$$GT$11deserialize17hb31edf82e39b07d7E', symObjAddr: 0x130, symBinAddr: 0x482C, symSize: 0x28 }
  - { offset: 0x1E535, size: 0x8, addend: 0x0, symName: '__ZN10serde_core2de5impls87_$LT$impl$u20$serde_core..de..Deserialize$u20$for$u20$core..option..Option$LT$T$GT$$GT$11deserialize17he691a88aeacb9463E', symObjAddr: 0x158, symBinAddr: 0x4854, symSize: 0x24 }
  - { offset: 0x1E9AA, size: 0x8, addend: 0x0, symName: '__ZN86_$LT$core..option..Option$LT$T$GT$$u20$as$u20$pyo3..impl_..wrap..SomeWrap$LT$T$GT$$GT$4wrap17h2641f8c7b0b0c498E', symObjAddr: 0x13F0, symBinAddr: 0x5AEC, symSize: 0x18 }
  - { offset: 0x1EAF4, size: 0x8, addend: 0x0, symName: '__ZN4pyo311conversions3std6option141_$LT$impl$u20$pyo3..conversion..IntoPy$LT$pyo3..instance..Py$LT$pyo3..types..any..PyAny$GT$$GT$$u20$for$u20$core..option..Option$LT$T$GT$$GT$7into_py17h5b95cc8d3d9705faE', symObjAddr: 0x12C8, symBinAddr: 0x59C4, symSize: 0x40 }
  - { offset: 0x1EB43, size: 0x8, addend: 0x0, symName: '__ZN4pyo311conversions3std6option141_$LT$impl$u20$pyo3..conversion..IntoPy$LT$pyo3..instance..Py$LT$pyo3..types..any..PyAny$GT$$GT$$u20$for$u20$core..option..Option$LT$T$GT$$GT$7into_py17h77eea2e27a231accE', symObjAddr: 0x1308, symBinAddr: 0x5A04, symSize: 0x3C }
  - { offset: 0x1EBC4, size: 0x8, addend: 0x0, symName: '__ZN4pyo311conversions3std6option88_$LT$impl$u20$pyo3..conversion..ToPyObject$u20$for$u20$core..option..Option$LT$T$GT$$GT$9to_object17ha9ff0beffe161c4eE', symObjAddr: 0x1344, symBinAddr: 0x5A40, symSize: 0x30 }
  - { offset: 0x21312, size: 0x8, addend: 0x0, symName: '__ZN4core6option15Option$LT$T$GT$10ok_or_else17h3f7c714136cc0abfE', symObjAddr: 0x35C, symBinAddr: 0x4A58, symSize: 0x74 }
  - { offset: 0x2138A, size: 0x8, addend: 0x0, symName: '__ZN4core6option15Option$LT$T$GT$10ok_or_else17hf17c78b8e1e21ad9E', symObjAddr: 0x3D0, symBinAddr: 0x4ACC, symSize: 0x74 }
  - { offset: 0x21402, size: 0x8, addend: 0x0, symName: '__ZN4core6option15Option$LT$T$GT$11map_or_else17h21c1aa9ad1612763E', symObjAddr: 0x444, symBinAddr: 0x4B40, symSize: 0x100 }
  - { offset: 0x2148C, size: 0x8, addend: 0x0, symName: '__ZN4core6option15Option$LT$T$GT$11map_or_else17h40c6d4a2330033c8E', symObjAddr: 0x544, symBinAddr: 0x4C40, symSize: 0xD0 }
  - { offset: 0x21507, size: 0x8, addend: 0x0, symName: '__ZN4core6option15Option$LT$T$GT$11map_or_else17hfb738233a3b3c63dE', symObjAddr: 0x614, symBinAddr: 0x4D10, symSize: 0xF4 }
  - { offset: 0x21583, size: 0x8, addend: 0x0, symName: '__ZN4core6option15Option$LT$T$GT$3map17h497dad7b3878aff1E', symObjAddr: 0x708, symBinAddr: 0x4E04, symSize: 0x5C }
  - { offset: 0x215FB, size: 0x8, addend: 0x0, symName: '__ZN4core6option15Option$LT$T$GT$3map17h68d490d0d5c022f3E', symObjAddr: 0x764, symBinAddr: 0x4E60, symSize: 0x5C }
  - { offset: 0x21673, size: 0x8, addend: 0x0, symName: '__ZN4core6option15Option$LT$T$GT$3map17h70a45761bfec28c1E', symObjAddr: 0x7C0, symBinAddr: 0x4EBC, symSize: 0x6C }
  - { offset: 0x21705, size: 0x8, addend: 0x0, symName: '__ZN4core6option15Option$LT$T$GT$3map17h76b3bd64fe98c54fE', symObjAddr: 0x82C, symBinAddr: 0x4F28, symSize: 0x64 }
  - { offset: 0x21770, size: 0x8, addend: 0x0, symName: '__ZN4core6option15Option$LT$T$GT$3map17h7b5aeb41343141eaE', symObjAddr: 0x890, symBinAddr: 0x4F8C, symSize: 0x9C }
  - { offset: 0x217E9, size: 0x8, addend: 0x0, symName: '__ZN4core6option15Option$LT$T$GT$3map17h97360be0a738ad6cE', symObjAddr: 0x92C, symBinAddr: 0x5028, symSize: 0x50 }
  - { offset: 0x21861, size: 0x8, addend: 0x0, symName: '__ZN4core6option15Option$LT$T$GT$3map17hdbfafa985d50422eE', symObjAddr: 0x97C, symBinAddr: 0x5078, symSize: 0x50 }
  - { offset: 0x218CC, size: 0x8, addend: 0x0, symName: '__ZN4core6option15Option$LT$T$GT$3map17hde303a611f6d3299E', symObjAddr: 0x9CC, symBinAddr: 0x50C8, symSize: 0x6C }
  - { offset: 0x21944, size: 0x8, addend: 0x0, symName: '__ZN4core6option15Option$LT$T$GT$4take17h652b98dc935452acE', symObjAddr: 0xA38, symBinAddr: 0x5134, symSize: 0x68 }
  - { offset: 0x2198E, size: 0x8, addend: 0x0, symName: '__ZN4core6option15Option$LT$T$GT$6as_mut17h0849acbd62080d78E', symObjAddr: 0xAA0, symBinAddr: 0x519C, symSize: 0x50 }
  - { offset: 0x21A37, size: 0x8, addend: 0x0, symName: '__ZN4core6option15Option$LT$T$GT$6as_ref17h948048c813c120aaE', symObjAddr: 0xAF0, symBinAddr: 0x51EC, symSize: 0x4C }
  - { offset: 0x21A8E, size: 0x8, addend: 0x0, symName: '__ZN4core6option15Option$LT$T$GT$6as_ref17hb5617a5fc32980b8E', symObjAddr: 0xB3C, symBinAddr: 0x5238, symSize: 0x50 }
  - { offset: 0x21AE5, size: 0x8, addend: 0x0, symName: '__ZN4core6option15Option$LT$T$GT$6as_ref17hd7db87fc6c464fc8E', symObjAddr: 0xB8C, symBinAddr: 0x5288, symSize: 0x50 }
  - { offset: 0x21B5A, size: 0x8, addend: 0x0, symName: '__ZN4core6option15Option$LT$T$GT$6expect17hcc635872be1e32eaE', symObjAddr: 0xBDC, symBinAddr: 0x52D8, symSize: 0x5C }
  - { offset: 0x21C05, size: 0x8, addend: 0x0, symName: '__ZN4core6option15Option$LT$T$GT$6insert17h1d43f9f781a8fffcE', symObjAddr: 0xC38, symBinAddr: 0x5334, symSize: 0xA8 }
  - { offset: 0x21D0B, size: 0x8, addend: 0x0, symName: '__ZN4core6option15Option$LT$T$GT$6insert17h569f489c752b9c93E', symObjAddr: 0xCE0, symBinAddr: 0x53DC, symSize: 0xA8 }
  - { offset: 0x21E11, size: 0x8, addend: 0x0, symName: '__ZN4core6option15Option$LT$T$GT$6insert17h5cd1bb549ae387e3E', symObjAddr: 0xD88, symBinAddr: 0x5484, symSize: 0xA8 }
  - { offset: 0x21F17, size: 0x8, addend: 0x0, symName: '__ZN4core6option15Option$LT$T$GT$6insert17h7694bce898e0e990E', symObjAddr: 0xE30, symBinAddr: 0x552C, symSize: 0xA8 }
  - { offset: 0x2201D, size: 0x8, addend: 0x0, symName: '__ZN4core6option15Option$LT$T$GT$6insert17h808ef86eb4e0884aE', symObjAddr: 0xED8, symBinAddr: 0x55D4, symSize: 0xA8 }
  - { offset: 0x220C0, size: 0x8, addend: 0x0, symName: '__ZN4core6option15Option$LT$T$GT$7is_some17h19a2683a24cd1d40E', symObjAddr: 0xF80, symBinAddr: 0x567C, symSize: 0x28 }
  - { offset: 0x220EC, size: 0x8, addend: 0x0, symName: '__ZN4core6option15Option$LT$T$GT$7is_some17h4d1ec4d54b33d8a2E', symObjAddr: 0xFA8, symBinAddr: 0x56A4, symSize: 0x2C }
  - { offset: 0x22125, size: 0x8, addend: 0x0, symName: '__ZN4core6option15Option$LT$T$GT$7is_some17h5020d7c798c957e6E', symObjAddr: 0xFD4, symBinAddr: 0x56D0, symSize: 0x2C }
  - { offset: 0x2215E, size: 0x8, addend: 0x0, symName: '__ZN4core6option15Option$LT$T$GT$7is_some17h583970d5fe47c876E', symObjAddr: 0x1000, symBinAddr: 0x56FC, symSize: 0x20 }
  - { offset: 0x22197, size: 0x8, addend: 0x0, symName: '__ZN4core6option15Option$LT$T$GT$7is_some17h5b5badbd356af419E', symObjAddr: 0x1020, symBinAddr: 0x571C, symSize: 0x2C }
  - { offset: 0x221D0, size: 0x8, addend: 0x0, symName: '__ZN4core6option15Option$LT$T$GT$7is_some17h633c63a997dfaea7E', symObjAddr: 0x104C, symBinAddr: 0x5748, symSize: 0x28 }
  - { offset: 0x221FC, size: 0x8, addend: 0x0, symName: '__ZN4core6option15Option$LT$T$GT$7is_some17ha28120b5511f89d4E', symObjAddr: 0x1074, symBinAddr: 0x5770, symSize: 0x28 }
  - { offset: 0x22235, size: 0x8, addend: 0x0, symName: '__ZN4core6option15Option$LT$T$GT$7is_some17haaea155c63d17e16E', symObjAddr: 0x109C, symBinAddr: 0x5798, symSize: 0x28 }
  - { offset: 0x2226E, size: 0x8, addend: 0x0, symName: '__ZN4core6option15Option$LT$T$GT$7is_some17hae427d12b8bfd9a4E', symObjAddr: 0x10C4, symBinAddr: 0x57C0, symSize: 0x28 }
  - { offset: 0x222A7, size: 0x8, addend: 0x0, symName: '__ZN4core6option15Option$LT$T$GT$7is_some17hc5df0c6794555200E', symObjAddr: 0x10EC, symBinAddr: 0x57E8, symSize: 0x2C }
  - { offset: 0x222E0, size: 0x8, addend: 0x0, symName: '__ZN4core6option15Option$LT$T$GT$7is_some17heb69c29837caff73E', symObjAddr: 0x1118, symBinAddr: 0x5814, symSize: 0x28 }
  - { offset: 0x22319, size: 0x8, addend: 0x0, symName: '__ZN4core6option15Option$LT$T$GT$7is_some17hf791aef5ea002f9aE', symObjAddr: 0x1140, symBinAddr: 0x583C, symSize: 0x2C }
  - { offset: 0x22352, size: 0x8, addend: 0x0, symName: '__ZN4core6option15Option$LT$T$GT$7is_some17hfa72ac9e4286bb86E', symObjAddr: 0x116C, symBinAddr: 0x5868, symSize: 0x2C }
  - { offset: 0x2238B, size: 0x8, addend: 0x0, symName: '__ZN4core6option15Option$LT$T$GT$7replace17h032899db2bd4754cE', symObjAddr: 0x1198, symBinAddr: 0x5894, symSize: 0x28 }
  - { offset: 0x2249E, size: 0x8, addend: 0x0, symName: '__ZN4core6option15Option$LT$T$GT$8as_deref17hf5baa1d4e3e71d94E', symObjAddr: 0x11C0, symBinAddr: 0x58BC, symSize: 0x6C }
  - { offset: 0x2268A, size: 0x8, addend: 0x0, symName: '__ZN103_$LT$pyo3..instance..Bound$LT$pyo3..types..any..PyAny$GT$$u20$as$u20$pyo3..types..any..PyAnyMethods$GT$7is_none17hd4e91c1bdaf74509E', symObjAddr: 0x0, symBinAddr: 0x5B04, symSize: 0x44 }
  - { offset: 0x23909, size: 0x8, addend: 0x0, symName: '__ZN103_$LT$pyo3..instance..Bound$LT$pyo3..types..any..PyAny$GT$$u20$as$u20$pyo3..types..any..PyAnyMethods$GT$7is_none17hd4e91c1bdaf74509E', symObjAddr: 0x0, symBinAddr: 0x5B04, symSize: 0x44 }
  - { offset: 0x23958, size: 0x8, addend: 0x0, symName: '__ZN119_$LT$pyo3..instance..Bound$LT$pyo3..types..typeobject..PyType$GT$$u20$as$u20$pyo3..types..typeobject..PyTypeMethods$GT$11as_type_ptr17h1f9e1417ca552216E', symObjAddr: 0x44, symBinAddr: 0x5B48, symSize: 0x24 }
  - { offset: 0x2406E, size: 0x8, addend: 0x0, symName: '__ZN4pyo38instance36Bound$LT$pyo3..types..any..PyAny$GT$14from_owned_ptr17hf812ba2a893f879bE', symObjAddr: 0x68, symBinAddr: 0x5B6C, symSize: 0x2C }
  - { offset: 0x240B6, size: 0x8, addend: 0x0, symName: '__ZN4pyo38instance39Borrowed$LT$pyo3..types..any..PyAny$GT$15from_ptr_or_opt17h5326158dbe973abdE', symObjAddr: 0x94, symBinAddr: 0x5B98, symSize: 0x2C }
  - { offset: 0x240F4, size: 0x8, addend: 0x0, symName: '__ZN4pyo38instance39Borrowed$LT$pyo3..types..any..PyAny$GT$18from_ptr_unchecked17h92c1e8968260b161E', symObjAddr: 0xC0, symBinAddr: 0x5BC4, symSize: 0x2C }
  - { offset: 0x24132, size: 0x8, addend: 0x0, symName: '__ZN4pyo38instance39Borrowed$LT$pyo3..types..any..PyAny$GT$8from_ptr17h755a77d080300fc8E', symObjAddr: 0xEC, symBinAddr: 0x5BF0, symSize: 0x34 }
  - { offset: 0x241AF, size: 0x8, addend: 0x0, symName: __ZN4core5error5Error11description17h024c4ab9d32f900aE, symObjAddr: 0x0, symBinAddr: 0x5C24, symSize: 0x20 }
  - { offset: 0x241CB, size: 0x8, addend: 0x0, symName: __ZN4core5error5Error11description17h024c4ab9d32f900aE, symObjAddr: 0x0, symBinAddr: 0x5C24, symSize: 0x20 }
  - { offset: 0x24200, size: 0x8, addend: 0x0, symName: __ZN4core5error5Error5cause17h4904b60b18dcfa02E, symObjAddr: 0x20, symBinAddr: 0x5C44, symSize: 0x24 }
  - { offset: 0x24235, size: 0x8, addend: 0x0, symName: __ZN4core5error5Error6source17hc7d2a1d3ed622d18E, symObjAddr: 0x44, symBinAddr: 0x5C68, symSize: 0x24 }
  - { offset: 0x2426A, size: 0x8, addend: 0x0, symName: __ZN4core5error5Error7provide17h4dd60eee637f4239E, symObjAddr: 0x68, symBinAddr: 0x5C8C, symSize: 0x18 }
  - { offset: 0x242A9, size: 0x8, addend: 0x0, symName: __ZN4core5error5Error7type_id17h299a8f1d5c3480abE, symObjAddr: 0x80, symBinAddr: 0x5CA4, symSize: 0x20 }
  - { offset: 0x246BB, size: 0x8, addend: 0x0, symName: '__ZN105_$LT$std..ffi..os_str..OsString$u20$as$u20$core..ops..index..Index$LT$core..ops..range..RangeFull$GT$$GT$5index17h022e7c72af977b58E', symObjAddr: 0x0, symBinAddr: 0x5CC4, symSize: 0x70 }
  - { offset: 0x24AA5, size: 0x8, addend: 0x0, symName: '__ZN105_$LT$std..ffi..os_str..OsString$u20$as$u20$core..ops..index..Index$LT$core..ops..range..RangeFull$GT$$GT$5index17h022e7c72af977b58E', symObjAddr: 0x0, symBinAddr: 0x5CC4, symSize: 0x70 }
  - { offset: 0x24C75, size: 0x8, addend: 0x0, symName: '__ZN109_$LT$pyo3..types..dict..borrowed_iter..BorrowedDictIter$u20$as$u20$core..iter..traits..iterator..Iterator$GT$4next17hd031403d58875691E', symObjAddr: 0x0, symBinAddr: 0x5D34, symSize: 0xE4 }
  - { offset: 0x25E4E, size: 0x8, addend: 0x0, symName: '__ZN109_$LT$pyo3..types..dict..borrowed_iter..BorrowedDictIter$u20$as$u20$core..iter..traits..iterator..Iterator$GT$4next17hd031403d58875691E', symObjAddr: 0x0, symBinAddr: 0x5D34, symSize: 0xE4 }
  - { offset: 0x2656F, size: 0x8, addend: 0x0, symName: '__ZN10serde_core2de5impls61_$LT$impl$u20$serde_core..de..Deserialize$u20$for$u20$f32$GT$11deserialize17h8df45c3f49f90b86E', symObjAddr: 0x0, symBinAddr: 0x5E18, symSize: 0x24 }
  - { offset: 0x265BD, size: 0x8, addend: 0x0, symName: '__ZN160_$LT$serde_core..de..impls..$LT$impl$u20$serde_core..de..Deserialize$u20$for$u20$usize$GT$..deserialize..PrimitiveVisitor$u20$as$u20$serde_core..de..Visitor$GT$9visit_i6417h8f8993af4735d87dE', symObjAddr: 0x380, symBinAddr: 0x6198, symSize: 0x9C }
  - { offset: 0x2662D, size: 0x8, addend: 0x0, symName: '__ZN160_$LT$serde_core..de..impls..$LT$impl$u20$serde_core..de..Deserialize$u20$for$u20$usize$GT$..deserialize..PrimitiveVisitor$u20$as$u20$serde_core..de..Visitor$GT$9visit_u6417hc999d3eef18f7288E', symObjAddr: 0x41C, symBinAddr: 0x6234, symSize: 0x38 }
  - { offset: 0x26684, size: 0x8, addend: 0x0, symName: '__ZN160_$LT$serde_core..de..impls..$LT$impl$u20$serde_core..de..Deserialize$u20$for$u20$usize$GT$..deserialize..PrimitiveVisitor$u20$as$u20$serde_core..de..Visitor$GT$9visit_u6428_$u7b$$u7b$closure$u7d$$u7d$17h25b3136bbe4d79c7E', symObjAddr: 0x454, symBinAddr: 0x626C, symSize: 0x48 }
  - { offset: 0x266DB, size: 0x8, addend: 0x0, symName: '__ZN10serde_core2de5impls63_$LT$impl$u20$serde_core..de..Deserialize$u20$for$u20$usize$GT$11deserialize17h1a20a96002f25264E', symObjAddr: 0x128, symBinAddr: 0x5F40, symSize: 0x24 }
  - { offset: 0x26710, size: 0x8, addend: 0x0, symName: '__ZN10serde_core2de5impls63_$LT$impl$u20$serde_core..de..Deserialize$u20$for$u20$usize$GT$11deserialize17h92d111a79d92a33dE', symObjAddr: 0x14C, symBinAddr: 0x5F64, symSize: 0x28 }
  - { offset: 0x2675D, size: 0x8, addend: 0x0, symName: '__ZN158_$LT$serde_core..de..impls..$LT$impl$u20$serde_core..de..Deserialize$u20$for$u20$u64$GT$..deserialize..PrimitiveVisitor$u20$as$u20$serde_core..de..Visitor$GT$9visit_i6417haabdf5da4198ae22E', symObjAddr: 0x2E4, symBinAddr: 0x60FC, symSize: 0x84 }
  - { offset: 0x267CD, size: 0x8, addend: 0x0, symName: '__ZN158_$LT$serde_core..de..impls..$LT$impl$u20$serde_core..de..Deserialize$u20$for$u20$u64$GT$..deserialize..PrimitiveVisitor$u20$as$u20$serde_core..de..Visitor$GT$9visit_u6417h7eff8b288b1384c4E', symObjAddr: 0x368, symBinAddr: 0x6180, symSize: 0x18 }
  - { offset: 0x2681D, size: 0x8, addend: 0x0, symName: '__ZN10serde_core2de5impls61_$LT$impl$u20$serde_core..de..Deserialize$u20$for$u20$u64$GT$11deserialize17h612dd47d67d8941aE', symObjAddr: 0xBC, symBinAddr: 0x5ED4, symSize: 0x24 }
  - { offset: 0x26852, size: 0x8, addend: 0x0, symName: '__ZN10serde_core2de5impls61_$LT$impl$u20$serde_core..de..Deserialize$u20$for$u20$u64$GT$11deserialize17hd1bf0efbab536557E', symObjAddr: 0xE0, symBinAddr: 0x5EF8, symSize: 0x24 }
  - { offset: 0x268BE, size: 0x8, addend: 0x0, symName: '__ZN181_$LT$serde_core..de..impls..$LT$impl$u20$serde_core..de..Deserialize$u20$for$u20$$LP$T0$C$T1$RP$$GT$..deserialize..TupleVisitor$LT$T0$C$T1$GT$$u20$as$u20$serde_core..de..Visitor$GT$9expecting17hb584eb0723cba20cE', symObjAddr: 0x49C, symBinAddr: 0x62B4, symSize: 0x40 }
  - { offset: 0x2690D, size: 0x8, addend: 0x0, symName: '__ZN181_$LT$serde_core..de..impls..$LT$impl$u20$serde_core..de..Deserialize$u20$for$u20$$LP$T0$C$T1$RP$$GT$..deserialize..TupleVisitor$LT$T0$C$T1$GT$$u20$as$u20$serde_core..de..Visitor$GT$9visit_seq17h0a041d9a778350dcE', symObjAddr: 0x4DC, symBinAddr: 0x62F4, symSize: 0x1C8 }
  - { offset: 0x269FF, size: 0x8, addend: 0x0, symName: '__ZN10serde_core2de5impls73_$LT$impl$u20$serde_core..de..Deserialize$u20$for$u20$$LP$T0$C$T1$RP$$GT$11deserialize17h730a22f23056a1beE', symObjAddr: 0x198, symBinAddr: 0x5FB0, symSize: 0x2C }
  - { offset: 0x26A4E, size: 0x8, addend: 0x0, symName: '__ZN10serde_core2de5impls61_$LT$impl$u20$serde_core..de..Deserialize$u20$for$u20$f32$GT$11deserialize17h8df45c3f49f90b86E', symObjAddr: 0x0, symBinAddr: 0x5E18, symSize: 0x24 }
  - { offset: 0x26A89, size: 0x8, addend: 0x0, symName: '__ZN10serde_core2de5impls61_$LT$impl$u20$serde_core..de..Deserialize$u20$for$u20$f64$GT$11deserialize17h9444c81674bdd8e2E', symObjAddr: 0x24, symBinAddr: 0x5E3C, symSize: 0x24 }
  - { offset: 0x26ABE, size: 0x8, addend: 0x0, symName: '__ZN10serde_core2de5impls61_$LT$impl$u20$serde_core..de..Deserialize$u20$for$u20$f64$GT$11deserialize17he11046e81b417f9eE', symObjAddr: 0x48, symBinAddr: 0x5E60, symSize: 0x28 }
  - { offset: 0x26AFD, size: 0x8, addend: 0x0, symName: '__ZN158_$LT$serde_core..de..impls..$LT$impl$u20$serde_core..de..Deserialize$u20$for$u20$f64$GT$..deserialize..PrimitiveVisitor$u20$as$u20$serde_core..de..Visitor$GT$9visit_f6417h1b071c7c77e72d30E', symObjAddr: 0x294, symBinAddr: 0x60AC, symSize: 0x18 }
  - { offset: 0x26B4B, size: 0x8, addend: 0x0, symName: '__ZN158_$LT$serde_core..de..impls..$LT$impl$u20$serde_core..de..Deserialize$u20$for$u20$f64$GT$..deserialize..PrimitiveVisitor$u20$as$u20$serde_core..de..Visitor$GT$9visit_i6417hc215d006ab9f19a2E', symObjAddr: 0x2AC, symBinAddr: 0x60C4, symSize: 0x1C }
  - { offset: 0x26B99, size: 0x8, addend: 0x0, symName: '__ZN158_$LT$serde_core..de..impls..$LT$impl$u20$serde_core..de..Deserialize$u20$for$u20$f64$GT$..deserialize..PrimitiveVisitor$u20$as$u20$serde_core..de..Visitor$GT$9visit_u6417hf4a6716ffef7882fE', symObjAddr: 0x2C8, symBinAddr: 0x60E0, symSize: 0x1C }
  - { offset: 0x26BF7, size: 0x8, addend: 0x0, symName: '__ZN10serde_core2de5impls61_$LT$impl$u20$serde_core..de..Deserialize$u20$for$u20$u32$GT$11deserialize17h389900b8c4b357fbE', symObjAddr: 0x70, symBinAddr: 0x5E88, symSize: 0x28 }
  - { offset: 0x26C2C, size: 0x8, addend: 0x0, symName: '__ZN10serde_core2de5impls61_$LT$impl$u20$serde_core..de..Deserialize$u20$for$u20$u32$GT$11deserialize17h68151ad4ee62adecE', symObjAddr: 0x98, symBinAddr: 0x5EB0, symSize: 0x24 }
  - { offset: 0x26C67, size: 0x8, addend: 0x0, symName: '__ZN10serde_core2de5impls62_$LT$impl$u20$serde_core..de..Deserialize$u20$for$u20$bool$GT$11deserialize17hfdd6833f208b8613E', symObjAddr: 0x104, symBinAddr: 0x5F1C, symSize: 0x24 }
  - { offset: 0x26CA2, size: 0x8, addend: 0x0, symName: '__ZN10serde_core2de5impls66_$LT$impl$u20$serde_core..de..Deserialize$u20$for$u20$$LP$$RP$$GT$11deserialize17h2b1ec1e1db5df788E', symObjAddr: 0x174, symBinAddr: 0x5F8C, symSize: 0x24 }
  - { offset: 0x26CE7, size: 0x8, addend: 0x0, symName: '__ZN182_$LT$serde_core..de..impls..$LT$impl$u20$serde_core..de..Deserialize$u20$for$u20$alloc..vec..Vec$LT$T$GT$$GT$..deserialize..VecVisitor$LT$T$GT$$u20$as$u20$serde_core..de..Visitor$GT$9expecting17h17f60f375a3ed64eE', symObjAddr: 0x6A4, symBinAddr: 0x64BC, symSize: 0x40 }
  - { offset: 0x26D2D, size: 0x8, addend: 0x0, symName: '__ZN182_$LT$serde_core..de..impls..$LT$impl$u20$serde_core..de..Deserialize$u20$for$u20$alloc..vec..Vec$LT$T$GT$$GT$..deserialize..VecVisitor$LT$T$GT$$u20$as$u20$serde_core..de..Visitor$GT$9expecting17h1ad1d47a1a28a177E', symObjAddr: 0x6E4, symBinAddr: 0x64FC, symSize: 0x40 }
  - { offset: 0x26D73, size: 0x8, addend: 0x0, symName: '__ZN182_$LT$serde_core..de..impls..$LT$impl$u20$serde_core..de..Deserialize$u20$for$u20$alloc..vec..Vec$LT$T$GT$$GT$..deserialize..VecVisitor$LT$T$GT$$u20$as$u20$serde_core..de..Visitor$GT$9expecting17h3e8025f99a0113fdE', symObjAddr: 0x724, symBinAddr: 0x653C, symSize: 0x40 }
  - { offset: 0x26DB9, size: 0x8, addend: 0x0, symName: '__ZN182_$LT$serde_core..de..impls..$LT$impl$u20$serde_core..de..Deserialize$u20$for$u20$alloc..vec..Vec$LT$T$GT$$GT$..deserialize..VecVisitor$LT$T$GT$$u20$as$u20$serde_core..de..Visitor$GT$9expecting17h47e9e588798d688aE', symObjAddr: 0x764, symBinAddr: 0x657C, symSize: 0x40 }
  - { offset: 0x26DFF, size: 0x8, addend: 0x0, symName: '__ZN182_$LT$serde_core..de..impls..$LT$impl$u20$serde_core..de..Deserialize$u20$for$u20$alloc..vec..Vec$LT$T$GT$$GT$..deserialize..VecVisitor$LT$T$GT$$u20$as$u20$serde_core..de..Visitor$GT$9expecting17h99bf603a6ffe68a1E', symObjAddr: 0x7A4, symBinAddr: 0x65BC, symSize: 0x40 }
  - { offset: 0x26E45, size: 0x8, addend: 0x0, symName: '__ZN182_$LT$serde_core..de..impls..$LT$impl$u20$serde_core..de..Deserialize$u20$for$u20$alloc..vec..Vec$LT$T$GT$$GT$..deserialize..VecVisitor$LT$T$GT$$u20$as$u20$serde_core..de..Visitor$GT$9expecting17ha77d85bdff6fc8beE', symObjAddr: 0x7E4, symBinAddr: 0x65FC, symSize: 0x40 }
  - { offset: 0x26E8B, size: 0x8, addend: 0x0, symName: '__ZN182_$LT$serde_core..de..impls..$LT$impl$u20$serde_core..de..Deserialize$u20$for$u20$alloc..vec..Vec$LT$T$GT$$GT$..deserialize..VecVisitor$LT$T$GT$$u20$as$u20$serde_core..de..Visitor$GT$9expecting17hf70f80ebc8e821b1E', symObjAddr: 0x824, symBinAddr: 0x663C, symSize: 0x40 }
  - { offset: 0x26ED1, size: 0x8, addend: 0x0, symName: '__ZN182_$LT$serde_core..de..impls..$LT$impl$u20$serde_core..de..Deserialize$u20$for$u20$alloc..vec..Vec$LT$T$GT$$GT$..deserialize..VecVisitor$LT$T$GT$$u20$as$u20$serde_core..de..Visitor$GT$9visit_seq17h1b96b783e87c176bE', symObjAddr: 0x864, symBinAddr: 0x667C, symSize: 0x198 }
  - { offset: 0x26F91, size: 0x8, addend: 0x0, symName: '__ZN182_$LT$serde_core..de..impls..$LT$impl$u20$serde_core..de..Deserialize$u20$for$u20$alloc..vec..Vec$LT$T$GT$$GT$..deserialize..VecVisitor$LT$T$GT$$u20$as$u20$serde_core..de..Visitor$GT$9visit_seq17h1fe87c813d5cc566E', symObjAddr: 0x9FC, symBinAddr: 0x6814, symSize: 0x180 }
  - { offset: 0x2704E, size: 0x8, addend: 0x0, symName: '__ZN182_$LT$serde_core..de..impls..$LT$impl$u20$serde_core..de..Deserialize$u20$for$u20$alloc..vec..Vec$LT$T$GT$$GT$..deserialize..VecVisitor$LT$T$GT$$u20$as$u20$serde_core..de..Visitor$GT$9visit_seq17h209eff7a2d68fb36E', symObjAddr: 0xB7C, symBinAddr: 0x6994, symSize: 0x150 }
  - { offset: 0x27108, size: 0x8, addend: 0x0, symName: '__ZN182_$LT$serde_core..de..impls..$LT$impl$u20$serde_core..de..Deserialize$u20$for$u20$alloc..vec..Vec$LT$T$GT$$GT$..deserialize..VecVisitor$LT$T$GT$$u20$as$u20$serde_core..de..Visitor$GT$9visit_seq17h24e531583b9d7c7dE', symObjAddr: 0xCCC, symBinAddr: 0x6AE4, symSize: 0x1A0 }
  - { offset: 0x271C8, size: 0x8, addend: 0x0, symName: '__ZN182_$LT$serde_core..de..impls..$LT$impl$u20$serde_core..de..Deserialize$u20$for$u20$alloc..vec..Vec$LT$T$GT$$GT$..deserialize..VecVisitor$LT$T$GT$$u20$as$u20$serde_core..de..Visitor$GT$9visit_seq17h69637271bac36821E', symObjAddr: 0xE6C, symBinAddr: 0x6C84, symSize: 0x194 }
  - { offset: 0x27288, size: 0x8, addend: 0x0, symName: '__ZN182_$LT$serde_core..de..impls..$LT$impl$u20$serde_core..de..Deserialize$u20$for$u20$alloc..vec..Vec$LT$T$GT$$GT$..deserialize..VecVisitor$LT$T$GT$$u20$as$u20$serde_core..de..Visitor$GT$9visit_seq17h6972d42510ee1fe9E', symObjAddr: 0x1000, symBinAddr: 0x6E18, symSize: 0x14C }
  - { offset: 0x27342, size: 0x8, addend: 0x0, symName: '__ZN182_$LT$serde_core..de..impls..$LT$impl$u20$serde_core..de..Deserialize$u20$for$u20$alloc..vec..Vec$LT$T$GT$$GT$..deserialize..VecVisitor$LT$T$GT$$u20$as$u20$serde_core..de..Visitor$GT$9visit_seq17h7b7aaa6c749c9fdcE', symObjAddr: 0x114C, symBinAddr: 0x6F64, symSize: 0x180 }
  - { offset: 0x273FF, size: 0x8, addend: 0x0, symName: '__ZN182_$LT$serde_core..de..impls..$LT$impl$u20$serde_core..de..Deserialize$u20$for$u20$alloc..vec..Vec$LT$T$GT$$GT$..deserialize..VecVisitor$LT$T$GT$$u20$as$u20$serde_core..de..Visitor$GT$9visit_seq17h8c584a61a93f79e3E', symObjAddr: 0x12CC, symBinAddr: 0x70E4, symSize: 0x194 }
  - { offset: 0x274BF, size: 0x8, addend: 0x0, symName: '__ZN182_$LT$serde_core..de..impls..$LT$impl$u20$serde_core..de..Deserialize$u20$for$u20$alloc..vec..Vec$LT$T$GT$$GT$..deserialize..VecVisitor$LT$T$GT$$u20$as$u20$serde_core..de..Visitor$GT$9visit_seq17hc993d1a6f331fca8E', symObjAddr: 0x1460, symBinAddr: 0x7278, symSize: 0x1A4 }
  - { offset: 0x2757F, size: 0x8, addend: 0x0, symName: '__ZN182_$LT$serde_core..de..impls..$LT$impl$u20$serde_core..de..Deserialize$u20$for$u20$alloc..vec..Vec$LT$T$GT$$GT$..deserialize..VecVisitor$LT$T$GT$$u20$as$u20$serde_core..de..Visitor$GT$9visit_seq17hd597300fb5810011E', symObjAddr: 0x1604, symBinAddr: 0x741C, symSize: 0x190 }
  - { offset: 0x2777B, size: 0x8, addend: 0x0, symName: '__ZN219_$LT$serde_core..de..impls..$LT$impl$u20$serde_core..de..Deserialize$u20$for$u20$std..collections..hash..map..HashMap$LT$K$C$V$C$S$GT$$GT$..deserialize..MapVisitor$LT$K$C$V$C$S$GT$$u20$as$u20$serde_core..de..Visitor$GT$9expecting17h68c4ae4d7f45b65bE', symObjAddr: 0x1794, symBinAddr: 0x75AC, symSize: 0x40 }
  - { offset: 0x277D3, size: 0x8, addend: 0x0, symName: '__ZN219_$LT$serde_core..de..impls..$LT$impl$u20$serde_core..de..Deserialize$u20$for$u20$std..collections..hash..map..HashMap$LT$K$C$V$C$S$GT$$GT$..deserialize..MapVisitor$LT$K$C$V$C$S$GT$$u20$as$u20$serde_core..de..Visitor$GT$9visit_map17h1b7aaac08637812dE', symObjAddr: 0x17D4, symBinAddr: 0x75EC, symSize: 0x1B0 }
  - { offset: 0x2789E, size: 0x8, addend: 0x0, symName: '__ZN219_$LT$serde_core..de..impls..$LT$impl$u20$serde_core..de..Deserialize$u20$for$u20$std..collections..hash..map..HashMap$LT$K$C$V$C$S$GT$$GT$..deserialize..MapVisitor$LT$K$C$V$C$S$GT$$u20$as$u20$serde_core..de..Visitor$GT$9visit_map17hde58b354203d741aE', symObjAddr: 0x1984, symBinAddr: 0x779C, symSize: 0x1A0 }
  - { offset: 0x279D1, size: 0x8, addend: 0x0, symName: '__ZN89_$LT$serde_core..de..impls..OptionVisitor$LT$T$GT$$u20$as$u20$serde_core..de..Visitor$GT$10visit_none17h235f4699549c5c3fE', symObjAddr: 0x1D34, symBinAddr: 0x7B4C, symSize: 0x24 }
  - { offset: 0x27A1D, size: 0x8, addend: 0x0, symName: '__ZN89_$LT$serde_core..de..impls..OptionVisitor$LT$T$GT$$u20$as$u20$serde_core..de..Visitor$GT$10visit_none17h60c9cf94c4331011E', symObjAddr: 0x1D58, symBinAddr: 0x7B70, symSize: 0x24 }
  - { offset: 0x27A69, size: 0x8, addend: 0x0, symName: '__ZN89_$LT$serde_core..de..impls..OptionVisitor$LT$T$GT$$u20$as$u20$serde_core..de..Visitor$GT$10visit_none17h827798662bd1189dE', symObjAddr: 0x1D7C, symBinAddr: 0x7B94, symSize: 0x28 }
  - { offset: 0x27AB5, size: 0x8, addend: 0x0, symName: '__ZN89_$LT$serde_core..de..impls..OptionVisitor$LT$T$GT$$u20$as$u20$serde_core..de..Visitor$GT$10visit_none17hd10bab8014ee9d23E', symObjAddr: 0x1DA4, symBinAddr: 0x7BBC, symSize: 0x28 }
  - { offset: 0x27B01, size: 0x8, addend: 0x0, symName: '__ZN89_$LT$serde_core..de..impls..OptionVisitor$LT$T$GT$$u20$as$u20$serde_core..de..Visitor$GT$10visit_none17he320898f8938fbf6E', symObjAddr: 0x1DCC, symBinAddr: 0x7BE4, symSize: 0x28 }
  - { offset: 0x27B4D, size: 0x8, addend: 0x0, symName: '__ZN89_$LT$serde_core..de..impls..OptionVisitor$LT$T$GT$$u20$as$u20$serde_core..de..Visitor$GT$10visit_some17h0b295ca25da44180E', symObjAddr: 0x1DF4, symBinAddr: 0x7C0C, symSize: 0x3C }
  - { offset: 0x27BA8, size: 0x8, addend: 0x0, symName: '__ZN89_$LT$serde_core..de..impls..OptionVisitor$LT$T$GT$$u20$as$u20$serde_core..de..Visitor$GT$10visit_some17h5a06a5e7085746adE', symObjAddr: 0x1E30, symBinAddr: 0x7C48, symSize: 0x3C }
  - { offset: 0x27C03, size: 0x8, addend: 0x0, symName: '__ZN89_$LT$serde_core..de..impls..OptionVisitor$LT$T$GT$$u20$as$u20$serde_core..de..Visitor$GT$10visit_some17hb49ab886bf032685E', symObjAddr: 0x1E6C, symBinAddr: 0x7C84, symSize: 0x3C }
  - { offset: 0x27C5E, size: 0x8, addend: 0x0, symName: '__ZN89_$LT$serde_core..de..impls..OptionVisitor$LT$T$GT$$u20$as$u20$serde_core..de..Visitor$GT$10visit_some17hda551a6ce56d096eE', symObjAddr: 0x1EA8, symBinAddr: 0x7CC0, symSize: 0x3C }
  - { offset: 0x27CB9, size: 0x8, addend: 0x0, symName: '__ZN89_$LT$serde_core..de..impls..OptionVisitor$LT$T$GT$$u20$as$u20$serde_core..de..Visitor$GT$10visit_some17he70dbae480a3fa38E', symObjAddr: 0x1EE4, symBinAddr: 0x7CFC, symSize: 0x3C }
  - { offset: 0x27DB1, size: 0x8, addend: 0x0, symName: __ZN10serde_core2de7Visitor9visit_f6417h353d60b9949779a8E, symObjAddr: 0x1C4, symBinAddr: 0x5FDC, symSize: 0x68 }
  - { offset: 0x27E00, size: 0x8, addend: 0x0, symName: __ZN10serde_core2de7Visitor9visit_f6417hbebdf10fbebb7d5eE, symObjAddr: 0x22C, symBinAddr: 0x6044, symSize: 0x68 }
  - { offset: 0x27E55, size: 0x8, addend: 0x0, symName: '__ZN46_$LT$T$u20$as$u20$serde_core..de..Expected$GT$3fmt17h20a059eec9c9b2afE', symObjAddr: 0x1B24, symBinAddr: 0x793C, symSize: 0x2C }
  - { offset: 0x27E9B, size: 0x8, addend: 0x0, symName: '__ZN46_$LT$T$u20$as$u20$serde_core..de..Expected$GT$3fmt17h654046797fa067bfE', symObjAddr: 0x1B50, symBinAddr: 0x7968, symSize: 0x2C }
  - { offset: 0x27EE1, size: 0x8, addend: 0x0, symName: '__ZN46_$LT$T$u20$as$u20$serde_core..de..Expected$GT$3fmt17h756b61aafbe92bb5E', symObjAddr: 0x1B7C, symBinAddr: 0x7994, symSize: 0x2C }
  - { offset: 0x27F27, size: 0x8, addend: 0x0, symName: '__ZN46_$LT$T$u20$as$u20$serde_core..de..Expected$GT$3fmt17h79b1fa29ee2a00caE', symObjAddr: 0x1BA8, symBinAddr: 0x79C0, symSize: 0x2C }
  - { offset: 0x27F6D, size: 0x8, addend: 0x0, symName: '__ZN46_$LT$T$u20$as$u20$serde_core..de..Expected$GT$3fmt17h8bcea95ff4b81b52E', symObjAddr: 0x1BD4, symBinAddr: 0x79EC, symSize: 0x2C }
  - { offset: 0x27FB3, size: 0x8, addend: 0x0, symName: '__ZN46_$LT$T$u20$as$u20$serde_core..de..Expected$GT$3fmt17h8da2227ff5985fffE', symObjAddr: 0x1C00, symBinAddr: 0x7A18, symSize: 0x2C }
  - { offset: 0x27FF9, size: 0x8, addend: 0x0, symName: '__ZN46_$LT$T$u20$as$u20$serde_core..de..Expected$GT$3fmt17h989ca0c0624acd81E', symObjAddr: 0x1C2C, symBinAddr: 0x7A44, symSize: 0x2C }
  - { offset: 0x2803F, size: 0x8, addend: 0x0, symName: '__ZN46_$LT$T$u20$as$u20$serde_core..de..Expected$GT$3fmt17ha10b56d714a12b1cE', symObjAddr: 0x1C58, symBinAddr: 0x7A70, symSize: 0x2C }
  - { offset: 0x28085, size: 0x8, addend: 0x0, symName: '__ZN46_$LT$T$u20$as$u20$serde_core..de..Expected$GT$3fmt17ha1480679b9e859b4E', symObjAddr: 0x1C84, symBinAddr: 0x7A9C, symSize: 0x2C }
  - { offset: 0x280CB, size: 0x8, addend: 0x0, symName: '__ZN46_$LT$T$u20$as$u20$serde_core..de..Expected$GT$3fmt17hab9440a99e4aab6fE', symObjAddr: 0x1CB0, symBinAddr: 0x7AC8, symSize: 0x2C }
  - { offset: 0x28111, size: 0x8, addend: 0x0, symName: '__ZN46_$LT$T$u20$as$u20$serde_core..de..Expected$GT$3fmt17hb62a0e73b5d58702E', symObjAddr: 0x1CDC, symBinAddr: 0x7AF4, symSize: 0x2C }
  - { offset: 0x28157, size: 0x8, addend: 0x0, symName: '__ZN46_$LT$T$u20$as$u20$serde_core..de..Expected$GT$3fmt17he74b46f40783b185E', symObjAddr: 0x1D08, symBinAddr: 0x7B20, symSize: 0x2C }
  - { offset: 0x2ABB1, size: 0x8, addend: 0x0, symName: __ZN4pyo36marker6Python19assume_gil_acquired17h197b7bad2ea6a353E, symObjAddr: 0x0, symBinAddr: 0x7D38, symSize: 0x4 }
  - { offset: 0x2BE1B, size: 0x8, addend: 0x0, symName: __ZN4pyo36marker6Python19assume_gil_acquired17h197b7bad2ea6a353E, symObjAddr: 0x0, symBinAddr: 0x7D38, symSize: 0x4 }
  - { offset: 0x2C28C, size: 0x8, addend: 0x0, symName: __ZN4pyo36marker6Python4None17hc5992e489f4d0d62E, symObjAddr: 0x4, symBinAddr: 0x7D3C, symSize: 0x20 }
  - { offset: 0x2C2D9, size: 0x8, addend: 0x0, symName: __ZN5alloc3fmt6format17h24fb1ede3d9d43abE, symObjAddr: 0x0, symBinAddr: 0x7D5C, symSize: 0xD8 }
  - { offset: 0x2C7F1, size: 0x8, addend: 0x0, symName: __ZN5alloc3fmt6format17h24fb1ede3d9d43abE, symObjAddr: 0x0, symBinAddr: 0x7D5C, symSize: 0xD8 }
  - { offset: 0x2C991, size: 0x8, addend: 0x0, symName: '__ZN4core3ptr9const_ptr33_$LT$impl$u20$$BP$const$u20$T$GT$20offset_from_unsigned18precondition_check17h0bf8fd76449754bdE', symObjAddr: 0x0, symBinAddr: 0x7E34, symSize: 0x60 }
  - { offset: 0x2C9B7, size: 0x8, addend: 0x0, symName: '__ZN4core3ptr9const_ptr33_$LT$impl$u20$$BP$const$u20$T$GT$20offset_from_unsigned18precondition_check17h0bf8fd76449754bdE', symObjAddr: 0x0, symBinAddr: 0x7E34, symSize: 0x60 }
  - { offset: 0x2CAA0, size: 0x8, addend: 0x0, symName: '__ZN4core3ptr9const_ptr33_$LT$impl$u20$$BP$const$u20$T$GT$6offset18precondition_check17hefb98a83f6bfe7e0E', symObjAddr: 0x60, symBinAddr: 0x7E94, symSize: 0xC4 }
  - { offset: 0x2CE87, size: 0x8, addend: 0x0, symName: __ZN3std5panic12catch_unwind17h140e018f40f5da7cE, symObjAddr: 0x0, symBinAddr: 0x7F58, symSize: 0xB8 }
  - { offset: 0x2E768, size: 0x8, addend: 0x0, symName: __ZN3std5panic12catch_unwind17h140e018f40f5da7cE, symObjAddr: 0x0, symBinAddr: 0x7F58, symSize: 0xB8 }
  - { offset: 0x2E7FA, size: 0x8, addend: 0x0, symName: __ZN3std5panic12catch_unwind17h33d94e135ff495d9E, symObjAddr: 0xB8, symBinAddr: 0x8010, symSize: 0xCC }
  - { offset: 0x2E8AD, size: 0x8, addend: 0x0, symName: __ZN3std5panic12catch_unwind17h5e2fb504f32f3dbfE, symObjAddr: 0x184, symBinAddr: 0x80DC, symSize: 0xB8 }
  - { offset: 0x2E93F, size: 0x8, addend: 0x0, symName: __ZN3std5panic12catch_unwind17ha2cd64d9b75e3bd0E, symObjAddr: 0x23C, symBinAddr: 0x8194, symSize: 0xB8 }
  - { offset: 0x2E9D1, size: 0x8, addend: 0x0, symName: __ZN3std5panic12catch_unwind17hcbcf328532c77da9E, symObjAddr: 0x2F4, symBinAddr: 0x824C, symSize: 0xA8 }
  - { offset: 0x2EA63, size: 0x8, addend: 0x0, symName: __ZN3std5panic12catch_unwind17hcd7e1c5c29d35032E, symObjAddr: 0x39C, symBinAddr: 0x82F4, symSize: 0xBC }
  - { offset: 0x2F543, size: 0x8, addend: 0x0, symName: '__ZN106_$LT$pyo3..impl_..extract_argument..NoVarargs$u20$as$u20$pyo3..impl_..extract_argument..VarargsHandler$GT$20handle_varargs_tuple17h0612be1bb2a3d169E', symObjAddr: 0x0, symBinAddr: 0x8404, symSize: 0x94 }
  - { offset: 0x30C47, size: 0x8, addend: 0x0, symName: '__ZN106_$LT$pyo3..impl_..extract_argument..NoVarargs$u20$as$u20$pyo3..impl_..extract_argument..VarargsHandler$GT$20handle_varargs_tuple17h0612be1bb2a3d169E', symObjAddr: 0x0, symBinAddr: 0x8404, symSize: 0x94 }
  - { offset: 0x30CC0, size: 0x8, addend: 0x0, symName: '__ZN106_$LT$pyo3..impl_..extract_argument..NoVarargs$u20$as$u20$pyo3..impl_..extract_argument..VarargsHandler$GT$23handle_varargs_fastcall17h4d07a3159b3b06d2E', symObjAddr: 0x94, symBinAddr: 0x8498, symSize: 0xA8 }
  - { offset: 0x30D34, size: 0x8, addend: 0x0, symName: '__ZN114_$LT$pyo3..impl_..extract_argument..NoVarkeywords$u20$as$u20$pyo3..impl_..extract_argument..VarkeywordsHandler$GT$17handle_varkeyword17h902f87b04cd47f88E', symObjAddr: 0x13C, symBinAddr: 0x8540, symSize: 0x60 }
  - { offset: 0x30E73, size: 0x8, addend: 0x0, symName: __ZN4pyo35impl_16extract_argument24unwrap_required_argument17h8c58f3a69543f58dE, symObjAddr: 0x538, symBinAddr: 0x893C, symSize: 0x58 }
  - { offset: 0x311B9, size: 0x8, addend: 0x0, symName: __ZN4pyo35impl_16extract_argument19FunctionDescription36find_keyword_parameter_in_positional17h1f3bc360e4624f3eE, symObjAddr: 0x19C, symBinAddr: 0x85A0, symSize: 0x5C }
  - { offset: 0x311EB, size: 0x8, addend: 0x0, symName: __ZN4pyo35impl_16extract_argument19FunctionDescription38find_keyword_parameter_in_keyword_only17h9f99e694b41890d5E, symObjAddr: 0x1F8, symBinAddr: 0x85FC, symSize: 0x5C }
  - { offset: 0x31728, size: 0x8, addend: 0x0, symName: __ZN4pyo35impl_16extract_argument19FunctionDescription44ensure_no_missing_required_keyword_arguments17h5c42ca2e68b95d15E, symObjAddr: 0x254, symBinAddr: 0x8658, symSize: 0x154 }
  - { offset: 0x317F4, size: 0x8, addend: 0x0, symName: __ZN4pyo35impl_16extract_argument19FunctionDescription47ensure_no_missing_required_positional_arguments17h9656bcec2729bea4E, symObjAddr: 0x3A8, symBinAddr: 0x87AC, symSize: 0x190 }
  - { offset: 0x31989, size: 0x8, addend: 0x0, symName: __ZN4pyo33gil8GILGuard6python17h49d56712b05876e7E, symObjAddr: 0x0, symBinAddr: 0x8994, symSize: 0x20 }
  - { offset: 0x31A39, size: 0x8, addend: 0x0, symName: __ZN4pyo33gil8GILGuard6python17h49d56712b05876e7E, symObjAddr: 0x0, symBinAddr: 0x8994, symSize: 0x20 }
  - { offset: 0x31A9C, size: 0x8, addend: 0x0, symName: '__ZN53_$LT$T$u20$as$u20$core..convert..TryFrom$LT$U$GT$$GT$8try_from17h827d6ab424c20614E', symObjAddr: 0x1C, symBinAddr: 0x89B4, symSize: 0x28 }
  - { offset: 0x31BB1, size: 0x8, addend: 0x0, symName: '__ZN59_$LT$alloc..alloc..Global$u20$as$u20$core..clone..Clone$GT$5clone17hcfb84029645dc9f6E', symObjAddr: 0x0, symBinAddr: 0x89DC, symSize: 0x10 }
  - { offset: 0x32790, size: 0x8, addend: 0x0, symName: '__ZN59_$LT$alloc..alloc..Global$u20$as$u20$core..clone..Clone$GT$5clone17hcfb84029645dc9f6E', symObjAddr: 0x0, symBinAddr: 0x89DC, symSize: 0x10 }
  - { offset: 0x327E6, size: 0x8, addend: 0x0, symName: '__ZN63_$LT$alloc..alloc..Global$u20$as$u20$core..alloc..Allocator$GT$10deallocate17h0e657f50f60b9aeaE', symObjAddr: 0x254, symBinAddr: 0x8C30, symSize: 0x58 }
  - { offset: 0x328CB, size: 0x8, addend: 0x0, symName: '__ZN63_$LT$alloc..alloc..Global$u20$as$u20$core..alloc..Allocator$GT$6shrink17ha51edcdc72c905e1E', symObjAddr: 0x2AC, symBinAddr: 0x8C88, symSize: 0x37C }
  - { offset: 0x32EDC, size: 0x8, addend: 0x0, symName: __ZN5alloc5alloc15exchange_malloc17h0386b79577c40122E, symObjAddr: 0x10, symBinAddr: 0x89EC, symSize: 0xAC }
  - { offset: 0x33238, size: 0x8, addend: 0x0, symName: __ZN5alloc5alloc6Global10alloc_impl17h02bc8b5149c6498bE, symObjAddr: 0xBC, symBinAddr: 0x8A98, symSize: 0x198 }
  - { offset: 0x3374D, size: 0x8, addend: 0x0, symName: __ZN3std9panicking12catch_unwind7do_call17h3d06292d0615f10bE, symObjAddr: 0x0, symBinAddr: 0x9004, symSize: 0x6C }
  - { offset: 0x35643, size: 0x8, addend: 0x0, symName: __ZN3std9panicking12catch_unwind7do_call17h3d06292d0615f10bE, symObjAddr: 0x0, symBinAddr: 0x9004, symSize: 0x6C }
  - { offset: 0x35729, size: 0x8, addend: 0x0, symName: __ZN3std9panicking12catch_unwind7do_call17h666051d0c0004ebfE, symObjAddr: 0x6C, symBinAddr: 0x9070, symSize: 0x60 }
  - { offset: 0x3580F, size: 0x8, addend: 0x0, symName: __ZN3std9panicking12catch_unwind7do_call17h88f06c8b403dfccdE, symObjAddr: 0xCC, symBinAddr: 0x90D0, symSize: 0x74 }
  - { offset: 0x358F5, size: 0x8, addend: 0x0, symName: __ZN3std9panicking12catch_unwind7do_call17h9d83f4d6f0c1f610E, symObjAddr: 0x140, symBinAddr: 0x9144, symSize: 0x6C }
  - { offset: 0x359DB, size: 0x8, addend: 0x0, symName: __ZN3std9panicking12catch_unwind7do_call17ha8f884c502c262f0E, symObjAddr: 0x1AC, symBinAddr: 0x91B0, symSize: 0x70 }
  - { offset: 0x35AC1, size: 0x8, addend: 0x0, symName: __ZN3std9panicking12catch_unwind7do_call17haf9e3087b294ae2eE, symObjAddr: 0x21C, symBinAddr: 0x9220, symSize: 0x6C }
  - { offset: 0x35BA7, size: 0x8, addend: 0x0, symName: __ZN3std9panicking12catch_unwind8do_catch17h101dbc8719d44e65E, symObjAddr: 0x288, symBinAddr: 0x928C, symSize: 0x70 }
  - { offset: 0x35C3C, size: 0x8, addend: 0x0, symName: __ZN3std9panicking12catch_unwind8do_catch17h255cfb238dcbcbbdE, symObjAddr: 0x2F8, symBinAddr: 0x92FC, symSize: 0x70 }
  - { offset: 0x35CD1, size: 0x8, addend: 0x0, symName: __ZN3std9panicking12catch_unwind8do_catch17h61666b102e500ddfE, symObjAddr: 0x368, symBinAddr: 0x936C, symSize: 0x70 }
  - { offset: 0x35D66, size: 0x8, addend: 0x0, symName: __ZN3std9panicking12catch_unwind8do_catch17ha478c6077be53355E, symObjAddr: 0x3D8, symBinAddr: 0x93DC, symSize: 0x70 }
  - { offset: 0x35DFB, size: 0x8, addend: 0x0, symName: __ZN3std9panicking12catch_unwind8do_catch17hba2336ef638460a5E, symObjAddr: 0x448, symBinAddr: 0x944C, symSize: 0x70 }
  - { offset: 0x35E90, size: 0x8, addend: 0x0, symName: __ZN3std9panicking12catch_unwind8do_catch17he0bd5f1fcf95d10dE, symObjAddr: 0x4B8, symBinAddr: 0x94BC, symSize: 0x70 }
  - { offset: 0x36366, size: 0x8, addend: 0x0, symName: __ZN4pyo35impl_4wrap19map_result_into_ptr17h28961bdc2fa58681E, symObjAddr: 0x0, symBinAddr: 0x952C, symSize: 0x38 }
  - { offset: 0x38B5B, size: 0x8, addend: 0x0, symName: __ZN4pyo35impl_4wrap19map_result_into_ptr17h28961bdc2fa58681E, symObjAddr: 0x0, symBinAddr: 0x952C, symSize: 0x38 }
  - { offset: 0x38BAA, size: 0x8, addend: 0x0, symName: __ZN4pyo35impl_4wrap19map_result_into_ptr17h3492de60cc3b115bE, symObjAddr: 0x38, symBinAddr: 0x9564, symSize: 0x38 }
  - { offset: 0x38BF9, size: 0x8, addend: 0x0, symName: __ZN4pyo35impl_4wrap19map_result_into_ptr17h6b671567e6101347E, symObjAddr: 0x70, symBinAddr: 0x959C, symSize: 0x38 }
  - { offset: 0x38C48, size: 0x8, addend: 0x0, symName: __ZN4pyo35impl_4wrap19map_result_into_ptr17h82d6006a0583aa1aE, symObjAddr: 0xA8, symBinAddr: 0x95D4, symSize: 0x38 }
  - { offset: 0x38C97, size: 0x8, addend: 0x0, symName: __ZN4pyo35impl_4wrap19map_result_into_ptr17h966f64a9da655b5fE, symObjAddr: 0xE0, symBinAddr: 0x960C, symSize: 0x38 }
  - { offset: 0x38CE6, size: 0x8, addend: 0x0, symName: __ZN4pyo35impl_4wrap19map_result_into_ptr17ha8a9f877cf94040dE, symObjAddr: 0x118, symBinAddr: 0x9644, symSize: 0x38 }
  - { offset: 0x38D35, size: 0x8, addend: 0x0, symName: __ZN4pyo35impl_4wrap19map_result_into_ptr17haaf72d538fe8955eE, symObjAddr: 0x150, symBinAddr: 0x967C, symSize: 0x44 }
  - { offset: 0x38D84, size: 0x8, addend: 0x0, symName: __ZN4pyo35impl_4wrap19map_result_into_ptr17hbca158171aead3d2E, symObjAddr: 0x194, symBinAddr: 0x96C0, symSize: 0x38 }
  - { offset: 0x38DD3, size: 0x8, addend: 0x0, symName: __ZN4pyo35impl_4wrap19map_result_into_ptr17hf7f1e815a4d1076aE, symObjAddr: 0x1CC, symBinAddr: 0x96F8, symSize: 0x38 }
  - { offset: 0x38E27, size: 0x8, addend: 0x0, symName: '__ZN4pyo35impl_4wrap19map_result_into_ptr28_$u7b$$u7b$closure$u7d$$u7d$17h21ea3000158a0f75E', symObjAddr: 0x204, symBinAddr: 0x9730, symSize: 0x34 }
  - { offset: 0x38E75, size: 0x8, addend: 0x0, symName: '__ZN4pyo35impl_4wrap19map_result_into_ptr28_$u7b$$u7b$closure$u7d$$u7d$17h4641481f7f5c8030E', symObjAddr: 0x238, symBinAddr: 0x9764, symSize: 0x38 }
  - { offset: 0x38EC4, size: 0x8, addend: 0x0, symName: '__ZN4pyo35impl_4wrap19map_result_into_ptr28_$u7b$$u7b$closure$u7d$$u7d$17h56ef0ae1cd207f5aE', symObjAddr: 0x270, symBinAddr: 0x979C, symSize: 0x3C }
  - { offset: 0x38F13, size: 0x8, addend: 0x0, symName: '__ZN4pyo35impl_4wrap19map_result_into_ptr28_$u7b$$u7b$closure$u7d$$u7d$17h8c7b73dccca17c99E', symObjAddr: 0x2AC, symBinAddr: 0x97D8, symSize: 0x30 }
  - { offset: 0x38F61, size: 0x8, addend: 0x0, symName: '__ZN4pyo35impl_4wrap19map_result_into_ptr28_$u7b$$u7b$closure$u7d$$u7d$17h955845e6d0eff7f8E', symObjAddr: 0x2DC, symBinAddr: 0x9808, symSize: 0x24 }
  - { offset: 0x38FAF, size: 0x8, addend: 0x0, symName: '__ZN4pyo35impl_4wrap19map_result_into_ptr28_$u7b$$u7b$closure$u7d$$u7d$17h98c9744860f3e6d1E', symObjAddr: 0x300, symBinAddr: 0x982C, symSize: 0x38 }
  - { offset: 0x38FFE, size: 0x8, addend: 0x0, symName: '__ZN4pyo35impl_4wrap19map_result_into_ptr28_$u7b$$u7b$closure$u7d$$u7d$17hb72f2ed26631d804E', symObjAddr: 0x338, symBinAddr: 0x9864, symSize: 0x38 }
  - { offset: 0x3904D, size: 0x8, addend: 0x0, symName: '__ZN4pyo35impl_4wrap19map_result_into_ptr28_$u7b$$u7b$closure$u7d$$u7d$17he4c8a65ac36d026cE', symObjAddr: 0x370, symBinAddr: 0x989C, symSize: 0x30 }
  - { offset: 0x3909B, size: 0x8, addend: 0x0, symName: '__ZN4pyo35impl_4wrap19map_result_into_ptr28_$u7b$$u7b$closure$u7d$$u7d$17he9460ad13b00bdfbE', symObjAddr: 0x3A0, symBinAddr: 0x98CC, symSize: 0x38 }
  - { offset: 0x3919B, size: 0x8, addend: 0x0, symName: '__ZN56_$LT$T$u20$as$u20$pyo3..impl_..wrap..OkWrap$LT$T$GT$$GT$4wrap17h01b8c4c877a6aae7E', symObjAddr: 0x3D8, symBinAddr: 0x9904, symSize: 0x10 }
  - { offset: 0x391D0, size: 0x8, addend: 0x0, symName: '__ZN56_$LT$T$u20$as$u20$pyo3..impl_..wrap..OkWrap$LT$T$GT$$GT$4wrap17h57d42e3eb2c34ecbE', symObjAddr: 0x3E8, symBinAddr: 0x9914, symSize: 0xC }
  - { offset: 0x3B9D5, size: 0x8, addend: 0x0, symName: '__ZN73_$LT$pyo3..types..any..PyAny$u20$as$u20$pyo3..type_object..PyTypeInfo$GT$15type_object_raw17h32cfa9db4c7f13e9E', symObjAddr: 0x0, symBinAddr: 0x9920, symSize: 0x24 }
  - { offset: 0x3CAB2, size: 0x8, addend: 0x0, symName: '__ZN73_$LT$pyo3..types..any..PyAny$u20$as$u20$pyo3..type_object..PyTypeInfo$GT$15type_object_raw17h32cfa9db4c7f13e9E', symObjAddr: 0x0, symBinAddr: 0x9920, symSize: 0x24 }
  - { offset: 0x3D027, size: 0x8, addend: 0x0, symName: '__ZN5alloc3vec13in_place_drop20InPlaceDrop$LT$T$GT$3len17h920c619cbd2b932cE', symObjAddr: 0x0, symBinAddr: 0x9944, symSize: 0x84 }
  - { offset: 0x3D49B, size: 0x8, addend: 0x0, symName: '__ZN5alloc3vec13in_place_drop20InPlaceDrop$LT$T$GT$3len17h920c619cbd2b932cE', symObjAddr: 0x0, symBinAddr: 0x9944, symSize: 0x84 }
  - { offset: 0x3D56E, size: 0x8, addend: 0x0, symName: '__ZN5alloc3vec13in_place_drop20InPlaceDrop$LT$T$GT$3len17hcd7d9dc70f1ca91aE', symObjAddr: 0x84, symBinAddr: 0x99C8, symSize: 0x84 }
  - { offset: 0x3D631, size: 0x8, addend: 0x0, symName: '__ZN129_$LT$$u5b$core..mem..maybe_uninit..MaybeUninit$LT$T$GT$$u3b$$u20$N$u5d$$u20$as$u20$core..array..iter..iter_inner..PartialDrop$GT$12partial_drop17h3938547c7f6327c4E', symObjAddr: 0x0, symBinAddr: 0x9A4C, symSize: 0x4C }
  - { offset: 0x3DDFA, size: 0x8, addend: 0x0, symName: '__ZN129_$LT$$u5b$core..mem..maybe_uninit..MaybeUninit$LT$T$GT$$u3b$$u20$N$u5d$$u20$as$u20$core..array..iter..iter_inner..PartialDrop$GT$12partial_drop17h3938547c7f6327c4E', symObjAddr: 0x0, symBinAddr: 0x9A4C, symSize: 0x4C }
  - { offset: 0x3ED2B, size: 0x8, addend: 0x0, symName: '__ZN77_$LT$pyo3..exceptions..PyIOError$u20$as$u20$pyo3..type_object..PyTypeInfo$GT$15type_object_raw17h6dd44595a2b5f0a7E', symObjAddr: 0x0, symBinAddr: 0x9A98, symSize: 0x24 }
  - { offset: 0x3FE03, size: 0x8, addend: 0x0, symName: '__ZN77_$LT$pyo3..exceptions..PyIOError$u20$as$u20$pyo3..type_object..PyTypeInfo$GT$15type_object_raw17h6dd44595a2b5f0a7E', symObjAddr: 0x0, symBinAddr: 0x9A98, symSize: 0x24 }
  - { offset: 0x40377, size: 0x8, addend: 0x0, symName: __ZN4core4hint16assert_unchecked18precondition_check17he6f1e6a3a138a075E, symObjAddr: 0x0, symBinAddr: 0x9ABC, symSize: 0x58 }
  - { offset: 0x40393, size: 0x8, addend: 0x0, symName: __ZN4core4hint16assert_unchecked18precondition_check17he6f1e6a3a138a075E, symObjAddr: 0x0, symBinAddr: 0x9ABC, symSize: 0x58 }
  - { offset: 0x403DE, size: 0x8, addend: 0x0, symName: __ZN4core4hint21unreachable_unchecked18precondition_check17h23d9a8b3abb98279E, symObjAddr: 0x58, symBinAddr: 0x9B14, symSize: 0x3C }
  - { offset: 0x40472, size: 0x8, addend: 0x0, symName: '__ZN97_$LT$alloc..ffi..c_str..CString$u20$as$u20$core..borrow..Borrow$LT$core..ffi..c_str..CStr$GT$$GT$6borrow17h100422d4c1f3942cE', symObjAddr: 0x0, symBinAddr: 0x9B50, symSize: 0x20 }
  - { offset: 0x404F8, size: 0x8, addend: 0x0, symName: '__ZN97_$LT$alloc..ffi..c_str..CString$u20$as$u20$core..borrow..Borrow$LT$core..ffi..c_str..CStr$GT$$GT$6borrow17h100422d4c1f3942cE', symObjAddr: 0x0, symBinAddr: 0x9B50, symSize: 0x20 }
  - { offset: 0x4067D, size: 0x8, addend: 0x0, symName: '__ZN4pyo34sync20GILOnceCell$LT$T$GT$15get_or_try_init17h3ec86bbedc4c7f3eE', symObjAddr: 0x0, symBinAddr: 0x9B70, symSize: 0xB4 }
  - { offset: 0x42566, size: 0x8, addend: 0x0, symName: '__ZN4pyo34sync20GILOnceCell$LT$T$GT$15get_or_try_init17h3ec86bbedc4c7f3eE', symObjAddr: 0x0, symBinAddr: 0x9B70, symSize: 0xB4 }
  - { offset: 0x425DF, size: 0x8, addend: 0x0, symName: '__ZN4pyo34sync20GILOnceCell$LT$T$GT$15get_or_try_init17ha25ef1b987b16040E', symObjAddr: 0xB4, symBinAddr: 0x9C24, symSize: 0xB4 }
  - { offset: 0x42658, size: 0x8, addend: 0x0, symName: '__ZN4pyo34sync20GILOnceCell$LT$T$GT$15get_or_try_init17ha3975f31f66b1ec5E', symObjAddr: 0x168, symBinAddr: 0x9CD8, symSize: 0xB4 }
  - { offset: 0x426D1, size: 0x8, addend: 0x0, symName: '__ZN4pyo34sync20GILOnceCell$LT$T$GT$15get_or_try_init17hbd16758fdb07b183E', symObjAddr: 0x21C, symBinAddr: 0x9D8C, symSize: 0xB4 }
  - { offset: 0x4274A, size: 0x8, addend: 0x0, symName: '__ZN4pyo34sync20GILOnceCell$LT$T$GT$3get17hf0792af27363c9ebE', symObjAddr: 0x2D0, symBinAddr: 0x9E40, symSize: 0x70 }
  - { offset: 0x427CB, size: 0x8, addend: 0x0, symName: '__ZN4pyo34sync20GILOnceCell$LT$T$GT$3set17h66ffffae5af99c95E', symObjAddr: 0x340, symBinAddr: 0x9EB0, symSize: 0x194 }
  - { offset: 0x428C4, size: 0x8, addend: 0x0, symName: '__ZN4pyo34sync20GILOnceCell$LT$T$GT$4init17h2032affc0421bd86E', symObjAddr: 0x4D4, symBinAddr: 0x3200AC, symSize: 0x190 }
  - { offset: 0x4299A, size: 0x8, addend: 0x0, symName: '__ZN4pyo34sync20GILOnceCell$LT$T$GT$4init17h418510dafce0684eE', symObjAddr: 0x664, symBinAddr: 0x32023C, symSize: 0x190 }
  - { offset: 0x42A70, size: 0x8, addend: 0x0, symName: '__ZN4pyo34sync20GILOnceCell$LT$T$GT$4init17ha12d869030e663d1E', symObjAddr: 0x7F4, symBinAddr: 0x3203CC, symSize: 0x190 }
  - { offset: 0x42B46, size: 0x8, addend: 0x0, symName: '__ZN4pyo34sync20GILOnceCell$LT$T$GT$4init17ha72282616463da34E', symObjAddr: 0x984, symBinAddr: 0x32055C, symSize: 0x190 }
  - { offset: 0x42C47, size: 0x8, addend: 0x0, symName: '__ZN4pyo311conversions3std6option141_$LT$impl$u20$pyo3..conversion..IntoPy$LT$pyo3..instance..Py$LT$pyo3..types..any..PyAny$GT$$GT$$u20$for$u20$core..option..Option$LT$T$GT$$GT$7into_py28_$u7b$$u7b$closure$u7d$$u7d$17h0e7c61a0fe80e381E', symObjAddr: 0x0, symBinAddr: 0xA044, symSize: 0x20 }
  - { offset: 0x43E9B, size: 0x8, addend: 0x0, symName: '__ZN4pyo311conversions3std6option141_$LT$impl$u20$pyo3..conversion..IntoPy$LT$pyo3..instance..Py$LT$pyo3..types..any..PyAny$GT$$GT$$u20$for$u20$core..option..Option$LT$T$GT$$GT$7into_py28_$u7b$$u7b$closure$u7d$$u7d$17h0e7c61a0fe80e381E', symObjAddr: 0x0, symBinAddr: 0xA044, symSize: 0x20 }
  - { offset: 0x43EDB, size: 0x8, addend: 0x0, symName: '__ZN4pyo311conversions3std6option141_$LT$impl$u20$pyo3..conversion..IntoPy$LT$pyo3..instance..Py$LT$pyo3..types..any..PyAny$GT$$GT$$u20$for$u20$core..option..Option$LT$T$GT$$GT$7into_py28_$u7b$$u7b$closure$u7d$$u7d$17ha6e2eab2c2f26365E', symObjAddr: 0x20, symBinAddr: 0xA064, symSize: 0x20 }
  - { offset: 0x43F1B, size: 0x8, addend: 0x0, symName: '__ZN4pyo311conversions3std6option141_$LT$impl$u20$pyo3..conversion..IntoPy$LT$pyo3..instance..Py$LT$pyo3..types..any..PyAny$GT$$GT$$u20$for$u20$core..option..Option$LT$T$GT$$GT$7into_py28_$u7b$$u7b$closure$u7d$$u7d$17ha8eb97b7d9b51463E', symObjAddr: 0x40, symBinAddr: 0xA084, symSize: 0x38 }
  - { offset: 0x43F6A, size: 0x8, addend: 0x0, symName: '__ZN4pyo311conversions3std6option141_$LT$impl$u20$pyo3..conversion..IntoPy$LT$pyo3..instance..Py$LT$pyo3..types..any..PyAny$GT$$GT$$u20$for$u20$core..option..Option$LT$T$GT$$GT$7into_py28_$u7b$$u7b$closure$u7d$$u7d$17hdcb97b567c12ec6cE', symObjAddr: 0x78, symBinAddr: 0xA0BC, symSize: 0x34 }
  - { offset: 0x44011, size: 0x8, addend: 0x0, symName: '__ZN4pyo311conversions3std6option88_$LT$impl$u20$pyo3..conversion..ToPyObject$u20$for$u20$core..option..Option$LT$T$GT$$GT$9to_object28_$u7b$$u7b$closure$u7d$$u7d$17h4bed1b643d38b2f2E', symObjAddr: 0xAC, symBinAddr: 0xA0F0, symSize: 0x20 }
  - { offset: 0x44051, size: 0x8, addend: 0x0, symName: '__ZN4pyo311conversions3std6option88_$LT$impl$u20$pyo3..conversion..ToPyObject$u20$for$u20$core..option..Option$LT$T$GT$$GT$9to_object28_$u7b$$u7b$closure$u7d$$u7d$17hf1f5079c5c7f0320E', symObjAddr: 0xCC, symBinAddr: 0xA110, symSize: 0x30 }
  - { offset: 0x448CA, size: 0x8, addend: 0x0, symName: '__ZN100_$LT$pyo3..pycell..impl_..MutableClass$u20$as$u20$pyo3..pycell..impl_..GetBorrowChecker$LT$T$GT$$GT$14borrow_checker17h64c11c152b412530E', symObjAddr: 0x0, symBinAddr: 0xA140, symSize: 0x14 }
  - { offset: 0x46BB5, size: 0x8, addend: 0x0, symName: '__ZN100_$LT$pyo3..pycell..impl_..MutableClass$u20$as$u20$pyo3..pycell..impl_..GetBorrowChecker$LT$T$GT$$GT$14borrow_checker17h64c11c152b412530E', symObjAddr: 0x0, symBinAddr: 0xA140, symSize: 0x14 }
  - { offset: 0x46BEA, size: 0x8, addend: 0x0, symName: '__ZN100_$LT$pyo3..pycell..impl_..MutableClass$u20$as$u20$pyo3..pycell..impl_..GetBorrowChecker$LT$T$GT$$GT$14borrow_checker17h6a39c2b50f7e1018E', symObjAddr: 0x14, symBinAddr: 0xA154, symSize: 0x14 }
  - { offset: 0x46C1F, size: 0x8, addend: 0x0, symName: '__ZN100_$LT$pyo3..pycell..impl_..MutableClass$u20$as$u20$pyo3..pycell..impl_..GetBorrowChecker$LT$T$GT$$GT$14borrow_checker17hbc7caade47cd34c3E', symObjAddr: 0x28, symBinAddr: 0xA168, symSize: 0x14 }
  - { offset: 0x46C54, size: 0x8, addend: 0x0, symName: '__ZN100_$LT$pyo3..pycell..impl_..MutableClass$u20$as$u20$pyo3..pycell..impl_..GetBorrowChecker$LT$T$GT$$GT$14borrow_checker17hd8162cbdf95c985fE', symObjAddr: 0x3C, symBinAddr: 0xA17C, symSize: 0x14 }
  - { offset: 0x46C8F, size: 0x8, addend: 0x0, symName: '__ZN113_$LT$pyo3..pycell..impl_..PyClassObject$LT$T$GT$$u20$as$u20$pyo3..pycell..impl_..PyClassObjectLayout$LT$T$GT$$GT$10tp_dealloc17h19d468d11b404cb5E', symObjAddr: 0x50, symBinAddr: 0xA190, symSize: 0xB4 }
  - { offset: 0x46CF3, size: 0x8, addend: 0x0, symName: '__ZN113_$LT$pyo3..pycell..impl_..PyClassObject$LT$T$GT$$u20$as$u20$pyo3..pycell..impl_..PyClassObjectLayout$LT$T$GT$$GT$10tp_dealloc17h1ef95f6db0bee33bE', symObjAddr: 0x104, symBinAddr: 0xA244, symSize: 0xB4 }
  - { offset: 0x46D57, size: 0x8, addend: 0x0, symName: '__ZN113_$LT$pyo3..pycell..impl_..PyClassObject$LT$T$GT$$u20$as$u20$pyo3..pycell..impl_..PyClassObjectLayout$LT$T$GT$$GT$10tp_dealloc17h3e7e1be94d3db9d7E', symObjAddr: 0x1B8, symBinAddr: 0xA2F8, symSize: 0xB4 }
  - { offset: 0x46DBB, size: 0x8, addend: 0x0, symName: '__ZN113_$LT$pyo3..pycell..impl_..PyClassObject$LT$T$GT$$u20$as$u20$pyo3..pycell..impl_..PyClassObjectLayout$LT$T$GT$$GT$10tp_dealloc17hc36250f8563d7665E', symObjAddr: 0x26C, symBinAddr: 0xA3AC, symSize: 0xB4 }
  - { offset: 0x46E1F, size: 0x8, addend: 0x0, symName: '__ZN113_$LT$pyo3..pycell..impl_..PyClassObject$LT$T$GT$$u20$as$u20$pyo3..pycell..impl_..PyClassObjectLayout$LT$T$GT$$GT$17ensure_threadsafe17h3d059a37e6f19ee4E', symObjAddr: 0x320, symBinAddr: 0xA460, symSize: 0x30 }
  - { offset: 0x46E52, size: 0x8, addend: 0x0, symName: '__ZN113_$LT$pyo3..pycell..impl_..PyClassObject$LT$T$GT$$u20$as$u20$pyo3..pycell..impl_..PyClassObjectLayout$LT$T$GT$$GT$17ensure_threadsafe17h68f74f275a5449e6E', symObjAddr: 0x350, symBinAddr: 0xA490, symSize: 0x30 }
  - { offset: 0x46E85, size: 0x8, addend: 0x0, symName: '__ZN113_$LT$pyo3..pycell..impl_..PyClassObject$LT$T$GT$$u20$as$u20$pyo3..pycell..impl_..PyClassObjectLayout$LT$T$GT$$GT$17ensure_threadsafe17h8a31bb0be0bfaab7E', symObjAddr: 0x380, symBinAddr: 0xA4C0, symSize: 0x30 }
  - { offset: 0x46EB8, size: 0x8, addend: 0x0, symName: '__ZN113_$LT$pyo3..pycell..impl_..PyClassObject$LT$T$GT$$u20$as$u20$pyo3..pycell..impl_..PyClassObjectLayout$LT$T$GT$$GT$17ensure_threadsafe17hfa2cbfd331c8bdbeE', symObjAddr: 0x3B0, symBinAddr: 0xA4F0, symSize: 0x30 }
  - { offset: 0x46EF1, size: 0x8, addend: 0x0, symName: '__ZN117_$LT$pyo3..pycell..impl_..PyClassObjectBase$LT$U$GT$$u20$as$u20$pyo3..pycell..impl_..PyClassObjectLayout$LT$T$GT$$GT$10tp_dealloc17h8536f91b70db96abE', symObjAddr: 0x3E0, symBinAddr: 0xA520, symSize: 0x270 }
  - { offset: 0x46FF4, size: 0x8, addend: 0x0, symName: '__ZN117_$LT$pyo3..pycell..impl_..PyClassObjectBase$LT$U$GT$$u20$as$u20$pyo3..pycell..impl_..PyClassObjectLayout$LT$T$GT$$GT$17ensure_threadsafe17hf73ddf0c2b1cc1dbE', symObjAddr: 0x650, symBinAddr: 0xA790, symSize: 0x10 }
  - { offset: 0x481BF, size: 0x8, addend: 0x0, symName: '__ZN4pyo36pycell5impl_22PyClassObject$LT$T$GT$14borrow_checker17h08170d171caefe6eE', symObjAddr: 0x660, symBinAddr: 0xA7A0, symSize: 0x24 }
  - { offset: 0x481F8, size: 0x8, addend: 0x0, symName: '__ZN4pyo36pycell5impl_22PyClassObject$LT$T$GT$14borrow_checker17h1395f420cb7bfc34E', symObjAddr: 0x684, symBinAddr: 0xA7C4, symSize: 0x24 }
  - { offset: 0x49A1A, size: 0x8, addend: 0x0, symName: '__ZN4pyo36pycell5impl_22PyClassObject$LT$T$GT$14borrow_checker17h1dbb98f2506bf5a1E', symObjAddr: 0x6A8, symBinAddr: 0xA7E8, symSize: 0x24 }
  - { offset: 0x49A53, size: 0x8, addend: 0x0, symName: '__ZN4pyo36pycell5impl_22PyClassObject$LT$T$GT$14borrow_checker17h66714158f455c109E', symObjAddr: 0x6CC, symBinAddr: 0xA80C, symSize: 0x24 }
  - { offset: 0x49A8C, size: 0x8, addend: 0x0, symName: '__ZN4pyo36pycell5impl_22PyClassObject$LT$T$GT$7get_ptr17h1f49d66c8c705395E', symObjAddr: 0x6F0, symBinAddr: 0xA830, symSize: 0x24 }
  - { offset: 0x49AC5, size: 0x8, addend: 0x0, symName: '__ZN4pyo36pycell5impl_22PyClassObject$LT$T$GT$7get_ptr17h9abadb7a3e79883aE', symObjAddr: 0x714, symBinAddr: 0xA854, symSize: 0x24 }
  - { offset: 0x49AFE, size: 0x8, addend: 0x0, symName: '__ZN4pyo36pycell5impl_22PyClassObject$LT$T$GT$7get_ptr17h9ee5b7d0c2149f5dE', symObjAddr: 0x738, symBinAddr: 0xA878, symSize: 0x24 }
  - { offset: 0x49B37, size: 0x8, addend: 0x0, symName: '__ZN4pyo36pycell5impl_22PyClassObject$LT$T$GT$7get_ptr17hb5d30116d3ecad5eE', symObjAddr: 0x75C, symBinAddr: 0xA89C, symSize: 0x24 }
  - { offset: 0x49C07, size: 0x8, addend: 0x0, symName: '__ZN104_$LT$core..iter..adapters..copied..Copied$LT$I$GT$$u20$as$u20$core..iter..traits..iterator..Iterator$GT$4next17h3deeea2966afb720E', symObjAddr: 0x0, symBinAddr: 0xA8C0, symSize: 0x5C }
  - { offset: 0x4AE58, size: 0x8, addend: 0x0, symName: '__ZN104_$LT$core..iter..adapters..copied..Copied$LT$I$GT$$u20$as$u20$core..iter..traits..iterator..Iterator$GT$4next17h3deeea2966afb720E', symObjAddr: 0x0, symBinAddr: 0xA8C0, symSize: 0x5C }
  - { offset: 0x4AEFD, size: 0x8, addend: 0x0, symName: '__ZN63_$LT$I$u20$as$u20$core..iter..traits..collect..IntoIterator$GT$9into_iter17hb84450cf8d64061aE', symObjAddr: 0x5C, symBinAddr: 0xA91C, symSize: 0x1C }
  - { offset: 0x4B5B9, size: 0x8, addend: 0x0, symName: __ZN10serde_core2de10EnumAccess7variant17h66c9ee2b69bf5c37E, symObjAddr: 0x0, symBinAddr: 0xA938, symSize: 0x24 }
  - { offset: 0x4B8DF, size: 0x8, addend: 0x0, symName: __ZN10serde_core2de10EnumAccess7variant17h66c9ee2b69bf5c37E, symObjAddr: 0x0, symBinAddr: 0xA938, symSize: 0x24 }
  - { offset: 0x4B91F, size: 0x8, addend: 0x0, symName: __ZN10serde_core2de10EnumAccess7variant17h98b34e8ae0d034eeE, symObjAddr: 0x24, symBinAddr: 0xA95C, symSize: 0x24 }
  - { offset: 0x4B965, size: 0x8, addend: 0x0, symName: __ZN10serde_core2de9MapAccess10next_entry17h01c0d7b05dd1072bE, symObjAddr: 0x48, symBinAddr: 0xA980, symSize: 0x24 }
  - { offset: 0x4B9AE, size: 0x8, addend: 0x0, symName: __ZN10serde_core2de9MapAccess10next_entry17ha67d3acec1235353E, symObjAddr: 0x6C, symBinAddr: 0xA9A4, symSize: 0x24 }
  - { offset: 0x4B9F7, size: 0x8, addend: 0x0, symName: __ZN10serde_core2de9MapAccess10next_entry17haed65a8af062b4a0E, symObjAddr: 0x90, symBinAddr: 0xA9C8, symSize: 0x24 }
  - { offset: 0x4BA40, size: 0x8, addend: 0x0, symName: __ZN10serde_core2de9MapAccess10next_value17h055ee5c1030c61a2E, symObjAddr: 0xB4, symBinAddr: 0xA9EC, symSize: 0x24 }
  - { offset: 0x4BA80, size: 0x8, addend: 0x0, symName: __ZN10serde_core2de9MapAccess10next_value17h3cafbe04857c3db2E, symObjAddr: 0xD8, symBinAddr: 0xAA10, symSize: 0x24 }
  - { offset: 0x4BAC0, size: 0x8, addend: 0x0, symName: __ZN10serde_core2de9MapAccess10next_value17h48165331270147c5E, symObjAddr: 0xFC, symBinAddr: 0xAA34, symSize: 0x24 }
  - { offset: 0x4BB00, size: 0x8, addend: 0x0, symName: __ZN10serde_core2de9MapAccess10next_value17h4bacb3123123eea9E, symObjAddr: 0x120, symBinAddr: 0xAA58, symSize: 0x24 }
  - { offset: 0x4BB40, size: 0x8, addend: 0x0, symName: __ZN10serde_core2de9MapAccess10next_value17h5033366472eaac6aE, symObjAddr: 0x144, symBinAddr: 0xAA7C, symSize: 0x24 }
  - { offset: 0x4BB80, size: 0x8, addend: 0x0, symName: __ZN10serde_core2de9MapAccess10next_value17h6568f759bed86041E, symObjAddr: 0x168, symBinAddr: 0xAAA0, symSize: 0x24 }
  - { offset: 0x4BBC0, size: 0x8, addend: 0x0, symName: __ZN10serde_core2de9MapAccess10next_value17h7340e8ebd4a4db52E, symObjAddr: 0x18C, symBinAddr: 0xAAC4, symSize: 0x24 }
  - { offset: 0x4BC00, size: 0x8, addend: 0x0, symName: __ZN10serde_core2de9MapAccess10next_value17h7bfdcf8d8bbd411eE, symObjAddr: 0x1B0, symBinAddr: 0xAAE8, symSize: 0x24 }
  - { offset: 0x4BC40, size: 0x8, addend: 0x0, symName: __ZN10serde_core2de9MapAccess10next_value17h8618b14f26b5543bE, symObjAddr: 0x1D4, symBinAddr: 0xAB0C, symSize: 0x24 }
  - { offset: 0x4BC80, size: 0x8, addend: 0x0, symName: __ZN10serde_core2de9MapAccess10next_value17h9071269ea20b8c4cE, symObjAddr: 0x1F8, symBinAddr: 0xAB30, symSize: 0x24 }
  - { offset: 0x4BCC0, size: 0x8, addend: 0x0, symName: __ZN10serde_core2de9MapAccess10next_value17h9b4a5908127a431eE, symObjAddr: 0x21C, symBinAddr: 0xAB54, symSize: 0x24 }
  - { offset: 0x4BD00, size: 0x8, addend: 0x0, symName: __ZN10serde_core2de9MapAccess10next_value17h9f9353fd19cbc828E, symObjAddr: 0x240, symBinAddr: 0xAB78, symSize: 0x24 }
  - { offset: 0x4BD40, size: 0x8, addend: 0x0, symName: __ZN10serde_core2de9MapAccess10next_value17ha16aad31631d7703E, symObjAddr: 0x264, symBinAddr: 0xAB9C, symSize: 0x24 }
  - { offset: 0x4BD80, size: 0x8, addend: 0x0, symName: __ZN10serde_core2de9MapAccess10next_value17hae867798c3476ad2E, symObjAddr: 0x288, symBinAddr: 0xABC0, symSize: 0x24 }
  - { offset: 0x4BDC0, size: 0x8, addend: 0x0, symName: __ZN10serde_core2de9MapAccess10next_value17hb37445609a95e06fE, symObjAddr: 0x2AC, symBinAddr: 0xABE4, symSize: 0x24 }
  - { offset: 0x4BE00, size: 0x8, addend: 0x0, symName: __ZN10serde_core2de9MapAccess10next_value17hbcdfdc64a50297d3E, symObjAddr: 0x2D0, symBinAddr: 0xAC08, symSize: 0x24 }
  - { offset: 0x4BE40, size: 0x8, addend: 0x0, symName: __ZN10serde_core2de9MapAccess10next_value17hc301c6ab6d1f5b77E, symObjAddr: 0x2F4, symBinAddr: 0xAC2C, symSize: 0x24 }
  - { offset: 0x4BE80, size: 0x8, addend: 0x0, symName: __ZN10serde_core2de9MapAccess10next_value17hcd6ec27e0001e33fE, symObjAddr: 0x318, symBinAddr: 0xAC50, symSize: 0x24 }
  - { offset: 0x4BEC0, size: 0x8, addend: 0x0, symName: __ZN10serde_core2de9MapAccess10next_value17hd55e7b26862f0c89E, symObjAddr: 0x33C, symBinAddr: 0xAC74, symSize: 0x24 }
  - { offset: 0x4BF00, size: 0x8, addend: 0x0, symName: __ZN10serde_core2de9MapAccess10next_value17hd9da24372f90664aE, symObjAddr: 0x360, symBinAddr: 0xAC98, symSize: 0x24 }
  - { offset: 0x4BF40, size: 0x8, addend: 0x0, symName: __ZN10serde_core2de9MapAccess10next_value17hdb92f62efc6a19eaE, symObjAddr: 0x384, symBinAddr: 0xACBC, symSize: 0x24 }
  - { offset: 0x4BF80, size: 0x8, addend: 0x0, symName: __ZN10serde_core2de9MapAccess10next_value17he38ff4d280738205E, symObjAddr: 0x3A8, symBinAddr: 0xACE0, symSize: 0x24 }
  - { offset: 0x4BFC0, size: 0x8, addend: 0x0, symName: __ZN10serde_core2de9MapAccess10next_value17hfefb3d028a097f6eE, symObjAddr: 0x3CC, symBinAddr: 0xAD04, symSize: 0x24 }
  - { offset: 0x4C000, size: 0x8, addend: 0x0, symName: __ZN10serde_core2de9MapAccess15next_entry_seed17h28270b6b53be80fdE, symObjAddr: 0x3F0, symBinAddr: 0xAD28, symSize: 0x1D0 }
  - { offset: 0x4C0D7, size: 0x8, addend: 0x0, symName: __ZN10serde_core2de9MapAccess15next_entry_seed17h6ad57f859f8e413aE, symObjAddr: 0x5C0, symBinAddr: 0xAEF8, symSize: 0x20C }
  - { offset: 0x4C1AE, size: 0x8, addend: 0x0, symName: __ZN10serde_core2de9MapAccess15next_entry_seed17haafc71ad0a229adeE, symObjAddr: 0x7CC, symBinAddr: 0xB104, symSize: 0x1F0 }
  - { offset: 0x4C285, size: 0x8, addend: 0x0, symName: __ZN10serde_core2de9MapAccess8next_key17h3d4af01ad1104403E, symObjAddr: 0x9BC, symBinAddr: 0xB2F4, symSize: 0x24 }
  - { offset: 0x4C2C5, size: 0x8, addend: 0x0, symName: __ZN10serde_core2de9MapAccess8next_key17h4e25085c045c3f05E, symObjAddr: 0x9E0, symBinAddr: 0xB318, symSize: 0x24 }
  - { offset: 0x4C305, size: 0x8, addend: 0x0, symName: __ZN10serde_core2de9MapAccess8next_key17h528e6b17638744a5E, symObjAddr: 0xA04, symBinAddr: 0xB33C, symSize: 0x24 }
  - { offset: 0x4C345, size: 0x8, addend: 0x0, symName: __ZN10serde_core2de9MapAccess8next_key17h56a2d201c758b2cbE, symObjAddr: 0xA28, symBinAddr: 0xB360, symSize: 0x24 }
  - { offset: 0x4C385, size: 0x8, addend: 0x0, symName: __ZN10serde_core2de9MapAccess8next_key17hbe02960ede9553c7E, symObjAddr: 0xA4C, symBinAddr: 0xB384, symSize: 0x24 }
  - { offset: 0x4C3C5, size: 0x8, addend: 0x0, symName: __ZN10serde_core2de9MapAccess8next_key17hbea2c55d20237b1aE, symObjAddr: 0xA70, symBinAddr: 0xB3A8, symSize: 0x24 }
  - { offset: 0x4C405, size: 0x8, addend: 0x0, symName: __ZN10serde_core2de9MapAccess8next_key17hbf4ccc8ad4872201E, symObjAddr: 0xA94, symBinAddr: 0xB3CC, symSize: 0x24 }
  - { offset: 0x4C445, size: 0x8, addend: 0x0, symName: __ZN10serde_core2de9MapAccess8next_key17hc3e46b3a667b9c2cE, symObjAddr: 0xAB8, symBinAddr: 0xB3F0, symSize: 0x24 }
  - { offset: 0x4C485, size: 0x8, addend: 0x0, symName: __ZN10serde_core2de9MapAccess8next_key17hd8f36975080eaf2cE, symObjAddr: 0xADC, symBinAddr: 0xB414, symSize: 0x24 }
  - { offset: 0x4C4CB, size: 0x8, addend: 0x0, symName: __ZN10serde_core2de9SeqAccess12next_element17h127fc295bd9ac2f0E, symObjAddr: 0xB00, symBinAddr: 0xB438, symSize: 0x24 }
  - { offset: 0x4C50B, size: 0x8, addend: 0x0, symName: __ZN10serde_core2de9SeqAccess12next_element17h1bc0290c8ab7a1b3E, symObjAddr: 0xB24, symBinAddr: 0xB45C, symSize: 0x24 }
  - { offset: 0x4C54B, size: 0x8, addend: 0x0, symName: __ZN10serde_core2de9SeqAccess12next_element17h1c87b29a22ebbefeE, symObjAddr: 0xB48, symBinAddr: 0xB480, symSize: 0x24 }
  - { offset: 0x4C58B, size: 0x8, addend: 0x0, symName: __ZN10serde_core2de9SeqAccess12next_element17h1fe6a8bcab76ec33E, symObjAddr: 0xB6C, symBinAddr: 0xB4A4, symSize: 0x24 }
  - { offset: 0x4C5CB, size: 0x8, addend: 0x0, symName: __ZN10serde_core2de9SeqAccess12next_element17h38cac1ce0cd3fa2eE, symObjAddr: 0xB90, symBinAddr: 0xB4C8, symSize: 0x24 }
  - { offset: 0x4C60B, size: 0x8, addend: 0x0, symName: __ZN10serde_core2de9SeqAccess12next_element17h3d131aa1480c0368E, symObjAddr: 0xBB4, symBinAddr: 0xB4EC, symSize: 0x24 }
  - { offset: 0x4C64B, size: 0x8, addend: 0x0, symName: __ZN10serde_core2de9SeqAccess12next_element17h46e05bc60820d435E, symObjAddr: 0xBD8, symBinAddr: 0xB510, symSize: 0x24 }
  - { offset: 0x4C68B, size: 0x8, addend: 0x0, symName: __ZN10serde_core2de9SeqAccess12next_element17h4c62f05ca99762f6E, symObjAddr: 0xBFC, symBinAddr: 0xB534, symSize: 0x24 }
  - { offset: 0x4C6CB, size: 0x8, addend: 0x0, symName: __ZN10serde_core2de9SeqAccess12next_element17h529f0009d071be99E, symObjAddr: 0xC20, symBinAddr: 0xB558, symSize: 0x24 }
  - { offset: 0x4C70B, size: 0x8, addend: 0x0, symName: __ZN10serde_core2de9SeqAccess12next_element17h70d46051b8afbdf4E, symObjAddr: 0xC44, symBinAddr: 0xB57C, symSize: 0x24 }
  - { offset: 0x4C74B, size: 0x8, addend: 0x0, symName: __ZN10serde_core2de9SeqAccess12next_element17h72716424a99d9bc2E, symObjAddr: 0xC68, symBinAddr: 0xB5A0, symSize: 0x24 }
  - { offset: 0x4C78B, size: 0x8, addend: 0x0, symName: __ZN10serde_core2de9SeqAccess12next_element17h72f2154a00bedca5E, symObjAddr: 0xC8C, symBinAddr: 0xB5C4, symSize: 0x24 }
  - { offset: 0x4C7CB, size: 0x8, addend: 0x0, symName: __ZN10serde_core2de9SeqAccess12next_element17h80f31cbe051a033cE, symObjAddr: 0xCB0, symBinAddr: 0xB5E8, symSize: 0x24 }
  - { offset: 0x4C80B, size: 0x8, addend: 0x0, symName: __ZN10serde_core2de9SeqAccess12next_element17h8a48ce4af3f0a995E, symObjAddr: 0xCD4, symBinAddr: 0xB60C, symSize: 0x24 }
  - { offset: 0x4C84B, size: 0x8, addend: 0x0, symName: __ZN10serde_core2de9SeqAccess12next_element17h8b7061271c2fc2e9E, symObjAddr: 0xCF8, symBinAddr: 0xB630, symSize: 0x24 }
  - { offset: 0x4C88B, size: 0x8, addend: 0x0, symName: __ZN10serde_core2de9SeqAccess12next_element17h9626a8f0ad123117E, symObjAddr: 0xD1C, symBinAddr: 0xB654, symSize: 0x24 }
  - { offset: 0x4C8CB, size: 0x8, addend: 0x0, symName: __ZN10serde_core2de9SeqAccess12next_element17h9bcb7fc1c3ac5e1aE, symObjAddr: 0xD40, symBinAddr: 0xB678, symSize: 0x24 }
  - { offset: 0x4C90B, size: 0x8, addend: 0x0, symName: __ZN10serde_core2de9SeqAccess12next_element17h9dc7e247acd3b96eE, symObjAddr: 0xD64, symBinAddr: 0xB69C, symSize: 0x24 }
  - { offset: 0x4C94B, size: 0x8, addend: 0x0, symName: __ZN10serde_core2de9SeqAccess12next_element17ha22ed500926ea1e5E, symObjAddr: 0xD88, symBinAddr: 0xB6C0, symSize: 0x24 }
  - { offset: 0x4C98B, size: 0x8, addend: 0x0, symName: __ZN10serde_core2de9SeqAccess12next_element17ha9678e85110bc44dE, symObjAddr: 0xDAC, symBinAddr: 0xB6E4, symSize: 0x24 }
  - { offset: 0x4C9CB, size: 0x8, addend: 0x0, symName: __ZN10serde_core2de9SeqAccess12next_element17hb759e7e39b6cd87aE, symObjAddr: 0xDD0, symBinAddr: 0xB708, symSize: 0x24 }
  - { offset: 0x4CA0B, size: 0x8, addend: 0x0, symName: __ZN10serde_core2de9SeqAccess12next_element17hbafa0e71eb66ef71E, symObjAddr: 0xDF4, symBinAddr: 0xB72C, symSize: 0x24 }
  - { offset: 0x4CA4B, size: 0x8, addend: 0x0, symName: __ZN10serde_core2de9SeqAccess12next_element17hbffc6e6920f3454bE, symObjAddr: 0xE18, symBinAddr: 0xB750, symSize: 0x24 }
  - { offset: 0x4CA8B, size: 0x8, addend: 0x0, symName: __ZN10serde_core2de9SeqAccess12next_element17hc743ddab8c49a495E, symObjAddr: 0xE3C, symBinAddr: 0xB774, symSize: 0x24 }
  - { offset: 0x4CACB, size: 0x8, addend: 0x0, symName: __ZN10serde_core2de9SeqAccess12next_element17hd63595a388a621a5E, symObjAddr: 0xE60, symBinAddr: 0xB798, symSize: 0x24 }
  - { offset: 0x4CB0B, size: 0x8, addend: 0x0, symName: __ZN10serde_core2de9SeqAccess12next_element17hd6fc5bd6c3e989e1E, symObjAddr: 0xE84, symBinAddr: 0xB7BC, symSize: 0x24 }
  - { offset: 0x4CB4B, size: 0x8, addend: 0x0, symName: __ZN10serde_core2de9SeqAccess12next_element17hd816a09193a77800E, symObjAddr: 0xEA8, symBinAddr: 0xB7E0, symSize: 0x24 }
  - { offset: 0x4CB8B, size: 0x8, addend: 0x0, symName: __ZN10serde_core2de9SeqAccess12next_element17hef122f10e35a0cf3E, symObjAddr: 0xECC, symBinAddr: 0xB804, symSize: 0x24 }
  - { offset: 0x4CBCB, size: 0x8, addend: 0x0, symName: __ZN10serde_core2de9SeqAccess12next_element17hf2028303b44481c3E, symObjAddr: 0xEF0, symBinAddr: 0xB828, symSize: 0x24 }
  - { offset: 0x4CC0B, size: 0x8, addend: 0x0, symName: __ZN10serde_core2de9SeqAccess12next_element17hfda4f9e7edb70415E, symObjAddr: 0xF14, symBinAddr: 0xB84C, symSize: 0x24 }
  - { offset: 0x5292D, size: 0x8, addend: 0x0, symName: __ZN10serde_json2de10from_slice17hc0fa40ce5037ec05E, symObjAddr: 0xF38, symBinAddr: 0xB870, symSize: 0x40 }
  - { offset: 0x52964, size: 0x8, addend: 0x0, symName: __ZN10serde_json2de10from_trait17h0d89fb1b178ec22aE, symObjAddr: 0xF78, symBinAddr: 0xB8B0, symSize: 0x194 }
  - { offset: 0x52DB3, size: 0x8, addend: 0x0, symName: '__ZN80_$LT$serde_json..de..MapAccess$LT$R$GT$$u20$as$u20$serde_core..de..MapAccess$GT$13next_key_seed17h040b3fef07a0a0feE', symObjAddr: 0x3124, symBinAddr: 0xDA5C, symSize: 0x134 }
  - { offset: 0x52E3E, size: 0x8, addend: 0x0, symName: '__ZN80_$LT$serde_json..de..MapAccess$LT$R$GT$$u20$as$u20$serde_core..de..MapAccess$GT$13next_key_seed17h257411ced9cbe6b2E', symObjAddr: 0x3258, symBinAddr: 0xDB90, symSize: 0x134 }
  - { offset: 0x52EC9, size: 0x8, addend: 0x0, symName: '__ZN80_$LT$serde_json..de..MapAccess$LT$R$GT$$u20$as$u20$serde_core..de..MapAccess$GT$13next_key_seed17h54da630f0162d636E', symObjAddr: 0x338C, symBinAddr: 0xDCC4, symSize: 0x134 }
  - { offset: 0x52F54, size: 0x8, addend: 0x0, symName: '__ZN80_$LT$serde_json..de..MapAccess$LT$R$GT$$u20$as$u20$serde_core..de..MapAccess$GT$13next_key_seed17h65916eae29e27945E', symObjAddr: 0x34C0, symBinAddr: 0xDDF8, symSize: 0x134 }
  - { offset: 0x52FDF, size: 0x8, addend: 0x0, symName: '__ZN80_$LT$serde_json..de..MapAccess$LT$R$GT$$u20$as$u20$serde_core..de..MapAccess$GT$13next_key_seed17h79e39a2fb4c886e7E', symObjAddr: 0x35F4, symBinAddr: 0xDF2C, symSize: 0x134 }
  - { offset: 0x5306A, size: 0x8, addend: 0x0, symName: '__ZN80_$LT$serde_json..de..MapAccess$LT$R$GT$$u20$as$u20$serde_core..de..MapAccess$GT$13next_key_seed17h80e9c700be086ad7E', symObjAddr: 0x3728, symBinAddr: 0xE060, symSize: 0x134 }
  - { offset: 0x530F5, size: 0x8, addend: 0x0, symName: '__ZN80_$LT$serde_json..de..MapAccess$LT$R$GT$$u20$as$u20$serde_core..de..MapAccess$GT$13next_key_seed17h8e3f8af47bec482aE', symObjAddr: 0x385C, symBinAddr: 0xE194, symSize: 0x170 }
  - { offset: 0x53180, size: 0x8, addend: 0x0, symName: '__ZN80_$LT$serde_json..de..MapAccess$LT$R$GT$$u20$as$u20$serde_core..de..MapAccess$GT$13next_key_seed17h95ca8ab8dbc41fe4E', symObjAddr: 0x39CC, symBinAddr: 0xE304, symSize: 0x14C }
  - { offset: 0x5320B, size: 0x8, addend: 0x0, symName: '__ZN80_$LT$serde_json..de..MapAccess$LT$R$GT$$u20$as$u20$serde_core..de..MapAccess$GT$13next_key_seed17hba3063d908e90a2bE', symObjAddr: 0x3B18, symBinAddr: 0xE450, symSize: 0x134 }
  - { offset: 0x53296, size: 0x8, addend: 0x0, symName: '__ZN80_$LT$serde_json..de..MapAccess$LT$R$GT$$u20$as$u20$serde_core..de..MapAccess$GT$13next_key_seed17hd142580b43c42dadE', symObjAddr: 0x3C4C, symBinAddr: 0xE584, symSize: 0x134 }
  - { offset: 0x53321, size: 0x8, addend: 0x0, symName: '__ZN80_$LT$serde_json..de..MapAccess$LT$R$GT$$u20$as$u20$serde_core..de..MapAccess$GT$13next_key_seed17hd42bc88a4843fafcE', symObjAddr: 0x3D80, symBinAddr: 0xE6B8, symSize: 0x134 }
  - { offset: 0x533AC, size: 0x8, addend: 0x0, symName: '__ZN80_$LT$serde_json..de..MapAccess$LT$R$GT$$u20$as$u20$serde_core..de..MapAccess$GT$13next_key_seed17hf13b13e9faca98edE', symObjAddr: 0x3EB4, symBinAddr: 0xE7EC, symSize: 0x170 }
  - { offset: 0x53437, size: 0x8, addend: 0x0, symName: '__ZN80_$LT$serde_json..de..MapAccess$LT$R$GT$$u20$as$u20$serde_core..de..MapAccess$GT$15next_value_seed17h0b1183e956be83c6E', symObjAddr: 0x4024, symBinAddr: 0xE95C, symSize: 0xD4 }
  - { offset: 0x534A4, size: 0x8, addend: 0x0, symName: '__ZN80_$LT$serde_json..de..MapAccess$LT$R$GT$$u20$as$u20$serde_core..de..MapAccess$GT$15next_value_seed17h169248783dc72361E', symObjAddr: 0x40F8, symBinAddr: 0xEA30, symSize: 0xC0 }
  - { offset: 0x53511, size: 0x8, addend: 0x0, symName: '__ZN80_$LT$serde_json..de..MapAccess$LT$R$GT$$u20$as$u20$serde_core..de..MapAccess$GT$15next_value_seed17h16b115dfa6108fcaE', symObjAddr: 0x41B8, symBinAddr: 0xEAF0, symSize: 0xC0 }
  - { offset: 0x5357E, size: 0x8, addend: 0x0, symName: '__ZN80_$LT$serde_json..de..MapAccess$LT$R$GT$$u20$as$u20$serde_core..de..MapAccess$GT$15next_value_seed17h1a76c80ee8c6ba18E', symObjAddr: 0x4278, symBinAddr: 0xEBB0, symSize: 0xC0 }
  - { offset: 0x535EB, size: 0x8, addend: 0x0, symName: '__ZN80_$LT$serde_json..de..MapAccess$LT$R$GT$$u20$as$u20$serde_core..de..MapAccess$GT$15next_value_seed17h27db0cd5fe967f8aE', symObjAddr: 0x4338, symBinAddr: 0xEC70, symSize: 0xC0 }
  - { offset: 0x53658, size: 0x8, addend: 0x0, symName: '__ZN80_$LT$serde_json..de..MapAccess$LT$R$GT$$u20$as$u20$serde_core..de..MapAccess$GT$15next_value_seed17h3a3dba26ff8a4b96E', symObjAddr: 0x43F8, symBinAddr: 0xED30, symSize: 0xC0 }
  - { offset: 0x536C5, size: 0x8, addend: 0x0, symName: '__ZN80_$LT$serde_json..de..MapAccess$LT$R$GT$$u20$as$u20$serde_core..de..MapAccess$GT$15next_value_seed17h3d658a66f3872052E', symObjAddr: 0x44B8, symBinAddr: 0xEDF0, symSize: 0xBC }
  - { offset: 0x53732, size: 0x8, addend: 0x0, symName: '__ZN80_$LT$serde_json..de..MapAccess$LT$R$GT$$u20$as$u20$serde_core..de..MapAccess$GT$15next_value_seed17h464d2715e85d1e55E', symObjAddr: 0x4574, symBinAddr: 0xEEAC, symSize: 0xBC }
  - { offset: 0x5379F, size: 0x8, addend: 0x0, symName: '__ZN80_$LT$serde_json..de..MapAccess$LT$R$GT$$u20$as$u20$serde_core..de..MapAccess$GT$15next_value_seed17h4686b0aeba5cb1cdE', symObjAddr: 0x4630, symBinAddr: 0xEF68, symSize: 0xC0 }
  - { offset: 0x5380C, size: 0x8, addend: 0x0, symName: '__ZN80_$LT$serde_json..de..MapAccess$LT$R$GT$$u20$as$u20$serde_core..de..MapAccess$GT$15next_value_seed17h65d96d2e460bef56E', symObjAddr: 0x46F0, symBinAddr: 0xF028, symSize: 0xC0 }
  - { offset: 0x53879, size: 0x8, addend: 0x0, symName: '__ZN80_$LT$serde_json..de..MapAccess$LT$R$GT$$u20$as$u20$serde_core..de..MapAccess$GT$15next_value_seed17h6a9ee645e27d4931E', symObjAddr: 0x47B0, symBinAddr: 0xF0E8, symSize: 0xC0 }
  - { offset: 0x538E6, size: 0x8, addend: 0x0, symName: '__ZN80_$LT$serde_json..de..MapAccess$LT$R$GT$$u20$as$u20$serde_core..de..MapAccess$GT$15next_value_seed17h75a5d017706165ecE', symObjAddr: 0x4870, symBinAddr: 0xF1A8, symSize: 0xC0 }
  - { offset: 0x53953, size: 0x8, addend: 0x0, symName: '__ZN80_$LT$serde_json..de..MapAccess$LT$R$GT$$u20$as$u20$serde_core..de..MapAccess$GT$15next_value_seed17h7f1902262ef3f7c6E', symObjAddr: 0x4930, symBinAddr: 0xF268, symSize: 0xC0 }
  - { offset: 0x539C0, size: 0x8, addend: 0x0, symName: '__ZN80_$LT$serde_json..de..MapAccess$LT$R$GT$$u20$as$u20$serde_core..de..MapAccess$GT$15next_value_seed17h8af9903d0dc24e2eE', symObjAddr: 0x49F0, symBinAddr: 0xF328, symSize: 0xC0 }
  - { offset: 0x53A2D, size: 0x8, addend: 0x0, symName: '__ZN80_$LT$serde_json..de..MapAccess$LT$R$GT$$u20$as$u20$serde_core..de..MapAccess$GT$15next_value_seed17h9a887b95cf7fa8d4E', symObjAddr: 0x4AB0, symBinAddr: 0xF3E8, symSize: 0xC0 }
  - { offset: 0x53A9A, size: 0x8, addend: 0x0, symName: '__ZN80_$LT$serde_json..de..MapAccess$LT$R$GT$$u20$as$u20$serde_core..de..MapAccess$GT$15next_value_seed17h9b446a966f2c7a8dE', symObjAddr: 0x4B70, symBinAddr: 0xF4A8, symSize: 0xC0 }
  - { offset: 0x53B07, size: 0x8, addend: 0x0, symName: '__ZN80_$LT$serde_json..de..MapAccess$LT$R$GT$$u20$as$u20$serde_core..de..MapAccess$GT$15next_value_seed17ha0d9dbf6e5e439f1E', symObjAddr: 0x4C30, symBinAddr: 0xF568, symSize: 0xC0 }
  - { offset: 0x53B74, size: 0x8, addend: 0x0, symName: '__ZN80_$LT$serde_json..de..MapAccess$LT$R$GT$$u20$as$u20$serde_core..de..MapAccess$GT$15next_value_seed17ha40a58f3c80c494cE', symObjAddr: 0x4CF0, symBinAddr: 0xF628, symSize: 0xC0 }
  - { offset: 0x53BE1, size: 0x8, addend: 0x0, symName: '__ZN80_$LT$serde_json..de..MapAccess$LT$R$GT$$u20$as$u20$serde_core..de..MapAccess$GT$15next_value_seed17hb2cfb289f3add033E', symObjAddr: 0x4DB0, symBinAddr: 0xF6E8, symSize: 0xC0 }
  - { offset: 0x53C4E, size: 0x8, addend: 0x0, symName: '__ZN80_$LT$serde_json..de..MapAccess$LT$R$GT$$u20$as$u20$serde_core..de..MapAccess$GT$15next_value_seed17hda8c6d44af3a3c0fE', symObjAddr: 0x4E70, symBinAddr: 0xF7A8, symSize: 0xC0 }
  - { offset: 0x53CBB, size: 0x8, addend: 0x0, symName: '__ZN80_$LT$serde_json..de..MapAccess$LT$R$GT$$u20$as$u20$serde_core..de..MapAccess$GT$15next_value_seed17hdb2c05a00ec024baE', symObjAddr: 0x4F30, symBinAddr: 0xF868, symSize: 0xC0 }
  - { offset: 0x53D28, size: 0x8, addend: 0x0, symName: '__ZN80_$LT$serde_json..de..MapAccess$LT$R$GT$$u20$as$u20$serde_core..de..MapAccess$GT$15next_value_seed17hdc42d379a13d3f43E', symObjAddr: 0x4FF0, symBinAddr: 0xF928, symSize: 0xC0 }
  - { offset: 0x53D95, size: 0x8, addend: 0x0, symName: '__ZN80_$LT$serde_json..de..MapAccess$LT$R$GT$$u20$as$u20$serde_core..de..MapAccess$GT$15next_value_seed17he71079a85e60d8b9E', symObjAddr: 0x50B0, symBinAddr: 0xF9E8, symSize: 0xBC }
  - { offset: 0x53E02, size: 0x8, addend: 0x0, symName: '__ZN80_$LT$serde_json..de..MapAccess$LT$R$GT$$u20$as$u20$serde_core..de..MapAccess$GT$15next_value_seed17hfb5a93a6c521ab7cE', symObjAddr: 0x516C, symBinAddr: 0xFAA4, symSize: 0xC0 }
  - { offset: 0x53E75, size: 0x8, addend: 0x0, symName: '__ZN80_$LT$serde_json..de..MapKey$LT$R$GT$$u20$as$u20$serde_core..de..Deserializer$GT$15deserialize_any17h54591ffabbf02c44E', symObjAddr: 0x522C, symBinAddr: 0xFB64, symSize: 0x11C }
  - { offset: 0x53F17, size: 0x8, addend: 0x0, symName: '__ZN80_$LT$serde_json..de..MapKey$LT$R$GT$$u20$as$u20$serde_core..de..Deserializer$GT$15deserialize_any17h563d19ae082f4121E', symObjAddr: 0x5348, symBinAddr: 0xFC80, symSize: 0x11C }
  - { offset: 0x53FB9, size: 0x8, addend: 0x0, symName: '__ZN80_$LT$serde_json..de..MapKey$LT$R$GT$$u20$as$u20$serde_core..de..Deserializer$GT$15deserialize_any17h59261b32510eee75E', symObjAddr: 0x5464, symBinAddr: 0xFD9C, symSize: 0x11C }
  - { offset: 0x5405B, size: 0x8, addend: 0x0, symName: '__ZN80_$LT$serde_json..de..MapKey$LT$R$GT$$u20$as$u20$serde_core..de..Deserializer$GT$15deserialize_any17h5b6325ce3245599cE', symObjAddr: 0x5580, symBinAddr: 0xFEB8, symSize: 0x11C }
  - { offset: 0x540FD, size: 0x8, addend: 0x0, symName: '__ZN80_$LT$serde_json..de..MapKey$LT$R$GT$$u20$as$u20$serde_core..de..Deserializer$GT$15deserialize_any17h9741e5b29f3d9a26E', symObjAddr: 0x569C, symBinAddr: 0xFFD4, symSize: 0x11C }
  - { offset: 0x5419F, size: 0x8, addend: 0x0, symName: '__ZN80_$LT$serde_json..de..MapKey$LT$R$GT$$u20$as$u20$serde_core..de..Deserializer$GT$15deserialize_any17hb7c8badb750d5803E', symObjAddr: 0x57B8, symBinAddr: 0x100F0, symSize: 0x11C }
  - { offset: 0x54241, size: 0x8, addend: 0x0, symName: '__ZN80_$LT$serde_json..de..MapKey$LT$R$GT$$u20$as$u20$serde_core..de..Deserializer$GT$15deserialize_any17hbf40ee69539eeac5E', symObjAddr: 0x58D4, symBinAddr: 0x1020C, symSize: 0x11C }
  - { offset: 0x542E3, size: 0x8, addend: 0x0, symName: '__ZN80_$LT$serde_json..de..MapKey$LT$R$GT$$u20$as$u20$serde_core..de..Deserializer$GT$15deserialize_any17hbfedfde127dafdbcE', symObjAddr: 0x59F0, symBinAddr: 0x10328, symSize: 0x11C }
  - { offset: 0x54385, size: 0x8, addend: 0x0, symName: '__ZN80_$LT$serde_json..de..MapKey$LT$R$GT$$u20$as$u20$serde_core..de..Deserializer$GT$15deserialize_any17hc9d725b91fae7f61E', symObjAddr: 0x5B0C, symBinAddr: 0x10444, symSize: 0x11C }
  - { offset: 0x54427, size: 0x8, addend: 0x0, symName: '__ZN80_$LT$serde_json..de..MapKey$LT$R$GT$$u20$as$u20$serde_core..de..Deserializer$GT$15deserialize_any17hcbe6e384ef3e0bbbE', symObjAddr: 0x5C28, symBinAddr: 0x10560, symSize: 0x11C }
  - { offset: 0x544C9, size: 0x8, addend: 0x0, symName: '__ZN80_$LT$serde_json..de..MapKey$LT$R$GT$$u20$as$u20$serde_core..de..Deserializer$GT$15deserialize_any17he04d28b87bed9a01E', symObjAddr: 0x5D44, symBinAddr: 0x1067C, symSize: 0x11C }
  - { offset: 0x5456B, size: 0x8, addend: 0x0, symName: '__ZN80_$LT$serde_json..de..MapKey$LT$R$GT$$u20$as$u20$serde_core..de..Deserializer$GT$15deserialize_str17h496f9eb9a642231cE', symObjAddr: 0x5E60, symBinAddr: 0x10798, symSize: 0x24 }
  - { offset: 0x545B7, size: 0x8, addend: 0x0, symName: '__ZN80_$LT$serde_json..de..MapKey$LT$R$GT$$u20$as$u20$serde_core..de..Deserializer$GT$15deserialize_u6417hdccec33b6d58e96bE', symObjAddr: 0x5E84, symBinAddr: 0x107BC, symSize: 0x24 }
  - { offset: 0x54606, size: 0x8, addend: 0x0, symName: '__ZN80_$LT$serde_json..de..MapKey$LT$R$GT$$u20$as$u20$serde_core..de..Deserializer$GT$18deserialize_string17h63ed46fcda6b2e5bE', symObjAddr: 0x5EA8, symBinAddr: 0x107E0, symSize: 0x24 }
  - { offset: 0x54652, size: 0x8, addend: 0x0, symName: '__ZN80_$LT$serde_json..de..MapKey$LT$R$GT$$u20$as$u20$serde_core..de..Deserializer$GT$22deserialize_identifier17h1b1ca5af558f5200E', symObjAddr: 0x5ECC, symBinAddr: 0x10804, symSize: 0x24 }
  - { offset: 0x5469E, size: 0x8, addend: 0x0, symName: '__ZN80_$LT$serde_json..de..MapKey$LT$R$GT$$u20$as$u20$serde_core..de..Deserializer$GT$22deserialize_identifier17h3680b0307caba101E', symObjAddr: 0x5EF0, symBinAddr: 0x10828, symSize: 0x24 }
  - { offset: 0x546EA, size: 0x8, addend: 0x0, symName: '__ZN80_$LT$serde_json..de..MapKey$LT$R$GT$$u20$as$u20$serde_core..de..Deserializer$GT$22deserialize_identifier17h55efe4785626f0e9E', symObjAddr: 0x5F14, symBinAddr: 0x1084C, symSize: 0x24 }
  - { offset: 0x54736, size: 0x8, addend: 0x0, symName: '__ZN80_$LT$serde_json..de..MapKey$LT$R$GT$$u20$as$u20$serde_core..de..Deserializer$GT$22deserialize_identifier17h757f88bd9525a3bfE', symObjAddr: 0x5F38, symBinAddr: 0x10870, symSize: 0x24 }
  - { offset: 0x54782, size: 0x8, addend: 0x0, symName: '__ZN80_$LT$serde_json..de..MapKey$LT$R$GT$$u20$as$u20$serde_core..de..Deserializer$GT$22deserialize_identifier17h927e98c17b91386eE', symObjAddr: 0x5F5C, symBinAddr: 0x10894, symSize: 0x24 }
  - { offset: 0x547CE, size: 0x8, addend: 0x0, symName: '__ZN80_$LT$serde_json..de..MapKey$LT$R$GT$$u20$as$u20$serde_core..de..Deserializer$GT$22deserialize_identifier17h95904f80c54ada30E', symObjAddr: 0x5F80, symBinAddr: 0x108B8, symSize: 0x24 }
  - { offset: 0x5481A, size: 0x8, addend: 0x0, symName: '__ZN80_$LT$serde_json..de..MapKey$LT$R$GT$$u20$as$u20$serde_core..de..Deserializer$GT$22deserialize_identifier17haac5c8e404cce087E', symObjAddr: 0x5FA4, symBinAddr: 0x108DC, symSize: 0x24 }
  - { offset: 0x54866, size: 0x8, addend: 0x0, symName: '__ZN80_$LT$serde_json..de..MapKey$LT$R$GT$$u20$as$u20$serde_core..de..Deserializer$GT$22deserialize_identifier17hb2ca12ba2ad9ad4cE', symObjAddr: 0x5FC8, symBinAddr: 0x10900, symSize: 0x24 }
  - { offset: 0x548B2, size: 0x8, addend: 0x0, symName: '__ZN80_$LT$serde_json..de..MapKey$LT$R$GT$$u20$as$u20$serde_core..de..Deserializer$GT$22deserialize_identifier17he433b0a51c0f680eE', symObjAddr: 0x5FEC, symBinAddr: 0x10924, symSize: 0x24 }
  - { offset: 0x54904, size: 0x8, addend: 0x0, symName: '__ZN80_$LT$serde_json..de..SeqAccess$LT$R$GT$$u20$as$u20$serde_core..de..SeqAccess$GT$17next_element_seed17h0f176b958cf0010bE', symObjAddr: 0x6010, symBinAddr: 0x10948, symSize: 0x140 }
  - { offset: 0x5498F, size: 0x8, addend: 0x0, symName: '__ZN80_$LT$serde_json..de..SeqAccess$LT$R$GT$$u20$as$u20$serde_core..de..SeqAccess$GT$17next_element_seed17h24022507bd45b163E', symObjAddr: 0x6150, symBinAddr: 0x10A88, symSize: 0x170 }
  - { offset: 0x54A1A, size: 0x8, addend: 0x0, symName: '__ZN80_$LT$serde_json..de..SeqAccess$LT$R$GT$$u20$as$u20$serde_core..de..SeqAccess$GT$17next_element_seed17h2e6944e7a4e8dddfE', symObjAddr: 0x62C0, symBinAddr: 0x10BF8, symSize: 0x148 }
  - { offset: 0x54AA5, size: 0x8, addend: 0x0, symName: '__ZN80_$LT$serde_json..de..SeqAccess$LT$R$GT$$u20$as$u20$serde_core..de..SeqAccess$GT$17next_element_seed17h32c6b6bbdcc3ec10E', symObjAddr: 0x6408, symBinAddr: 0x10D40, symSize: 0x184 }
  - { offset: 0x54B31, size: 0x8, addend: 0x0, symName: '__ZN80_$LT$serde_json..de..SeqAccess$LT$R$GT$$u20$as$u20$serde_core..de..SeqAccess$GT$17next_element_seed17h37b0e01fd1dcb7feE', symObjAddr: 0x658C, symBinAddr: 0x10EC4, symSize: 0x180 }
  - { offset: 0x54BBD, size: 0x8, addend: 0x0, symName: '__ZN80_$LT$serde_json..de..SeqAccess$LT$R$GT$$u20$as$u20$serde_core..de..SeqAccess$GT$17next_element_seed17h37ea22b11bcabcc4E', symObjAddr: 0x670C, symBinAddr: 0x11044, symSize: 0x184 }
  - { offset: 0x54C49, size: 0x8, addend: 0x0, symName: '__ZN80_$LT$serde_json..de..SeqAccess$LT$R$GT$$u20$as$u20$serde_core..de..SeqAccess$GT$17next_element_seed17h3b9e5480a5023228E', symObjAddr: 0x6890, symBinAddr: 0x111C8, symSize: 0x148 }
  - { offset: 0x54CD4, size: 0x8, addend: 0x0, symName: '__ZN80_$LT$serde_json..de..SeqAccess$LT$R$GT$$u20$as$u20$serde_core..de..SeqAccess$GT$17next_element_seed17h3c344ee80a6c5115E', symObjAddr: 0x69D8, symBinAddr: 0x11310, symSize: 0x134 }
  - { offset: 0x54D5F, size: 0x8, addend: 0x0, symName: '__ZN80_$LT$serde_json..de..SeqAccess$LT$R$GT$$u20$as$u20$serde_core..de..SeqAccess$GT$17next_element_seed17h480de6f2022bdbe1E', symObjAddr: 0x6B0C, symBinAddr: 0x11444, symSize: 0x138 }
  - { offset: 0x54DEB, size: 0x8, addend: 0x0, symName: '__ZN80_$LT$serde_json..de..SeqAccess$LT$R$GT$$u20$as$u20$serde_core..de..SeqAccess$GT$17next_element_seed17h4ea11171f66e2733E', symObjAddr: 0x6C44, symBinAddr: 0x1157C, symSize: 0x170 }
  - { offset: 0x54E76, size: 0x8, addend: 0x0, symName: '__ZN80_$LT$serde_json..de..SeqAccess$LT$R$GT$$u20$as$u20$serde_core..de..SeqAccess$GT$17next_element_seed17h55f5399465b31d0bE', symObjAddr: 0x6DB4, symBinAddr: 0x116EC, symSize: 0x16C }
  - { offset: 0x54F01, size: 0x8, addend: 0x0, symName: '__ZN80_$LT$serde_json..de..SeqAccess$LT$R$GT$$u20$as$u20$serde_core..de..SeqAccess$GT$17next_element_seed17h56fab4725038264fE', symObjAddr: 0x6F20, symBinAddr: 0x11858, symSize: 0x170 }
  - { offset: 0x54F8C, size: 0x8, addend: 0x0, symName: '__ZN80_$LT$serde_json..de..SeqAccess$LT$R$GT$$u20$as$u20$serde_core..de..SeqAccess$GT$17next_element_seed17h6c743b377869ec81E', symObjAddr: 0x7090, symBinAddr: 0x119C8, symSize: 0x188 }
  - { offset: 0x55018, size: 0x8, addend: 0x0, symName: '__ZN80_$LT$serde_json..de..SeqAccess$LT$R$GT$$u20$as$u20$serde_core..de..SeqAccess$GT$17next_element_seed17h6e2dc5bd2eef0b6bE', symObjAddr: 0x7218, symBinAddr: 0x11B50, symSize: 0x14C }
  - { offset: 0x550A3, size: 0x8, addend: 0x0, symName: '__ZN80_$LT$serde_json..de..SeqAccess$LT$R$GT$$u20$as$u20$serde_core..de..SeqAccess$GT$17next_element_seed17h6e3ea3f80b9e97afE', symObjAddr: 0x7364, symBinAddr: 0x11C9C, symSize: 0x178 }
  - { offset: 0x5512E, size: 0x8, addend: 0x0, symName: '__ZN80_$LT$serde_json..de..SeqAccess$LT$R$GT$$u20$as$u20$serde_core..de..SeqAccess$GT$17next_element_seed17h6e843879d03217d7E', symObjAddr: 0x74DC, symBinAddr: 0x11E14, symSize: 0x180 }
  - { offset: 0x551BA, size: 0x8, addend: 0x0, symName: '__ZN80_$LT$serde_json..de..SeqAccess$LT$R$GT$$u20$as$u20$serde_core..de..SeqAccess$GT$17next_element_seed17h729fd16e20a71e08E', symObjAddr: 0x765C, symBinAddr: 0x11F94, symSize: 0x14C }
  - { offset: 0x55245, size: 0x8, addend: 0x0, symName: '__ZN80_$LT$serde_json..de..SeqAccess$LT$R$GT$$u20$as$u20$serde_core..de..SeqAccess$GT$17next_element_seed17h74b62f5e432cac3eE', symObjAddr: 0x77A8, symBinAddr: 0x120E0, symSize: 0x170 }
  - { offset: 0x552D0, size: 0x8, addend: 0x0, symName: '__ZN80_$LT$serde_json..de..SeqAccess$LT$R$GT$$u20$as$u20$serde_core..de..SeqAccess$GT$17next_element_seed17h85a677acb961a81eE', symObjAddr: 0x7918, symBinAddr: 0x12250, symSize: 0x170 }
  - { offset: 0x5535B, size: 0x8, addend: 0x0, symName: '__ZN80_$LT$serde_json..de..SeqAccess$LT$R$GT$$u20$as$u20$serde_core..de..SeqAccess$GT$17next_element_seed17h988774f14102c482E', symObjAddr: 0x7A88, symBinAddr: 0x123C0, symSize: 0x170 }
  - { offset: 0x553E6, size: 0x8, addend: 0x0, symName: '__ZN80_$LT$serde_json..de..SeqAccess$LT$R$GT$$u20$as$u20$serde_core..de..SeqAccess$GT$17next_element_seed17h9a317f6541c809c4E', symObjAddr: 0x7BF8, symBinAddr: 0x12530, symSize: 0x194 }
  - { offset: 0x55472, size: 0x8, addend: 0x0, symName: '__ZN80_$LT$serde_json..de..SeqAccess$LT$R$GT$$u20$as$u20$serde_core..de..SeqAccess$GT$17next_element_seed17ha12a7563865baeadE', symObjAddr: 0x7D8C, symBinAddr: 0x126C4, symSize: 0x170 }
  - { offset: 0x554FD, size: 0x8, addend: 0x0, symName: '__ZN80_$LT$serde_json..de..SeqAccess$LT$R$GT$$u20$as$u20$serde_core..de..SeqAccess$GT$17next_element_seed17ha997d3caa2a9e867E', symObjAddr: 0x7EFC, symBinAddr: 0x12834, symSize: 0x194 }
  - { offset: 0x55589, size: 0x8, addend: 0x0, symName: '__ZN80_$LT$serde_json..de..SeqAccess$LT$R$GT$$u20$as$u20$serde_core..de..SeqAccess$GT$17next_element_seed17ha9de7c3c3add0447E', symObjAddr: 0x8090, symBinAddr: 0x129C8, symSize: 0x170 }
  - { offset: 0x55614, size: 0x8, addend: 0x0, symName: '__ZN80_$LT$serde_json..de..SeqAccess$LT$R$GT$$u20$as$u20$serde_core..de..SeqAccess$GT$17next_element_seed17had659bd124b04ffdE', symObjAddr: 0x8200, symBinAddr: 0x12B38, symSize: 0x184 }
  - { offset: 0x556A0, size: 0x8, addend: 0x0, symName: '__ZN80_$LT$serde_json..de..SeqAccess$LT$R$GT$$u20$as$u20$serde_core..de..SeqAccess$GT$17next_element_seed17hbdbd6287fa14a26bE', symObjAddr: 0x8384, symBinAddr: 0x12CBC, symSize: 0x178 }
  - { offset: 0x5572B, size: 0x8, addend: 0x0, symName: '__ZN80_$LT$serde_json..de..SeqAccess$LT$R$GT$$u20$as$u20$serde_core..de..SeqAccess$GT$17next_element_seed17hcb2bc299e4ef69f0E', symObjAddr: 0x84FC, symBinAddr: 0x12E34, symSize: 0x16C }
  - { offset: 0x557B6, size: 0x8, addend: 0x0, symName: '__ZN80_$LT$serde_json..de..SeqAccess$LT$R$GT$$u20$as$u20$serde_core..de..SeqAccess$GT$17next_element_seed17hd98c3087bd43fd03E', symObjAddr: 0x8668, symBinAddr: 0x12FA0, symSize: 0x184 }
  - { offset: 0x55842, size: 0x8, addend: 0x0, symName: '__ZN80_$LT$serde_json..de..SeqAccess$LT$R$GT$$u20$as$u20$serde_core..de..SeqAccess$GT$17next_element_seed17hddfbae293a37ab69E', symObjAddr: 0x87EC, symBinAddr: 0x13124, symSize: 0x16C }
  - { offset: 0x558CD, size: 0x8, addend: 0x0, symName: '__ZN80_$LT$serde_json..de..SeqAccess$LT$R$GT$$u20$as$u20$serde_core..de..SeqAccess$GT$17next_element_seed17hf652e56dcd2b4bceE', symObjAddr: 0x8958, symBinAddr: 0x13290, symSize: 0x178 }
  - { offset: 0x5595E, size: 0x8, addend: 0x0, symName: '__ZN85_$LT$serde_json..de..VariantAccess$LT$R$GT$$u20$as$u20$serde_core..de..EnumAccess$GT$12variant_seed17h03d9190cb26dcd0eE', symObjAddr: 0x8AD0, symBinAddr: 0x13408, symSize: 0xE0 }
  - { offset: 0x55A23, size: 0x8, addend: 0x0, symName: '__ZN88_$LT$serde_json..de..VariantAccess$LT$R$GT$$u20$as$u20$serde_core..de..VariantAccess$GT$12unit_variant17h9b78e50721ff8aa2E', symObjAddr: 0x8BB0, symBinAddr: 0x134E8, symSize: 0x24 }
  - { offset: 0x55A60, size: 0x8, addend: 0x0, symName: '__ZN89_$LT$serde_json..de..UnitVariantAccess$LT$R$GT$$u20$as$u20$serde_core..de..EnumAccess$GT$12variant_seed17h79e638ae0f66dd1bE', symObjAddr: 0x8BD4, symBinAddr: 0x1350C, symSize: 0x74 }
  - { offset: 0x55AF1, size: 0x8, addend: 0x0, symName: '__ZN92_$LT$serde_json..de..UnitVariantAccess$LT$R$GT$$u20$as$u20$serde_core..de..VariantAccess$GT$12unit_variant17h71809c390b087b01E', symObjAddr: 0x8C48, symBinAddr: 0x13580, symSize: 0x14 }
  - { offset: 0x55B2E, size: 0x8, addend: 0x0, symName: '__ZN98_$LT$$RF$mut$u20$serde_json..de..Deserializer$LT$R$GT$$u20$as$u20$serde_core..de..Deserializer$GT$15deserialize_any17h1759538d38a90fdeE', symObjAddr: 0x8C5C, symBinAddr: 0x13594, symSize: 0xBA8 }
  - { offset: 0x55D99, size: 0x8, addend: 0x0, symName: '__ZN98_$LT$$RF$mut$u20$serde_json..de..Deserializer$LT$R$GT$$u20$as$u20$serde_core..de..Deserializer$GT$15deserialize_f3217h1a92342064be8d4cE', symObjAddr: 0x9804, symBinAddr: 0x1413C, symSize: 0x24 }
  - { offset: 0x55DE8, size: 0x8, addend: 0x0, symName: '__ZN98_$LT$$RF$mut$u20$serde_json..de..Deserializer$LT$R$GT$$u20$as$u20$serde_core..de..Deserializer$GT$15deserialize_f6417h2be074c75d112a19E', symObjAddr: 0x9828, symBinAddr: 0x14160, symSize: 0x24 }
  - { offset: 0x55E37, size: 0x8, addend: 0x0, symName: '__ZN98_$LT$$RF$mut$u20$serde_json..de..Deserializer$LT$R$GT$$u20$as$u20$serde_core..de..Deserializer$GT$15deserialize_map17h732a17fd54256e31E', symObjAddr: 0x984C, symBinAddr: 0x14184, symSize: 0x52C }
  - { offset: 0x55F5C, size: 0x8, addend: 0x0, symName: '__ZN98_$LT$$RF$mut$u20$serde_json..de..Deserializer$LT$R$GT$$u20$as$u20$serde_core..de..Deserializer$GT$15deserialize_map17hf71311788e1a02adE', symObjAddr: 0x9D78, symBinAddr: 0x146B0, symSize: 0x52C }
  - { offset: 0x56081, size: 0x8, addend: 0x0, symName: '__ZN98_$LT$$RF$mut$u20$serde_json..de..Deserializer$LT$R$GT$$u20$as$u20$serde_core..de..Deserializer$GT$15deserialize_seq17h119460e7790762e7E', symObjAddr: 0xA2A4, symBinAddr: 0x14BDC, symSize: 0x53C }
  - { offset: 0x561A6, size: 0x8, addend: 0x0, symName: '__ZN98_$LT$$RF$mut$u20$serde_json..de..Deserializer$LT$R$GT$$u20$as$u20$serde_core..de..Deserializer$GT$15deserialize_seq17h1bab791523935addE', symObjAddr: 0xA7E0, symBinAddr: 0x15118, symSize: 0x53C }
  - { offset: 0x562CB, size: 0x8, addend: 0x0, symName: '__ZN98_$LT$$RF$mut$u20$serde_json..de..Deserializer$LT$R$GT$$u20$as$u20$serde_core..de..Deserializer$GT$15deserialize_seq17h2e0d4a0264e52089E', symObjAddr: 0xAD1C, symBinAddr: 0x15654, symSize: 0x53C }
  - { offset: 0x563F0, size: 0x8, addend: 0x0, symName: '__ZN98_$LT$$RF$mut$u20$serde_json..de..Deserializer$LT$R$GT$$u20$as$u20$serde_core..de..Deserializer$GT$15deserialize_seq17h4ee2380b6b7cb68fE', symObjAddr: 0xB258, symBinAddr: 0x15B90, symSize: 0x53C }
  - { offset: 0x56515, size: 0x8, addend: 0x0, symName: '__ZN98_$LT$$RF$mut$u20$serde_json..de..Deserializer$LT$R$GT$$u20$as$u20$serde_core..de..Deserializer$GT$15deserialize_seq17h7044b65ad209c511E', symObjAddr: 0xB794, symBinAddr: 0x160CC, symSize: 0x53C }
  - { offset: 0x5663A, size: 0x8, addend: 0x0, symName: '__ZN98_$LT$$RF$mut$u20$serde_json..de..Deserializer$LT$R$GT$$u20$as$u20$serde_core..de..Deserializer$GT$15deserialize_seq17h74fe9b9419adbd80E', symObjAddr: 0xBCD0, symBinAddr: 0x16608, symSize: 0x53C }
  - { offset: 0x5675F, size: 0x8, addend: 0x0, symName: '__ZN98_$LT$$RF$mut$u20$serde_json..de..Deserializer$LT$R$GT$$u20$as$u20$serde_core..de..Deserializer$GT$15deserialize_seq17ha560e0558a8b1d5fE', symObjAddr: 0xC20C, symBinAddr: 0x16B44, symSize: 0x53C }
  - { offset: 0x56884, size: 0x8, addend: 0x0, symName: '__ZN98_$LT$$RF$mut$u20$serde_json..de..Deserializer$LT$R$GT$$u20$as$u20$serde_core..de..Deserializer$GT$15deserialize_seq17hb68c59e48392d6f1E', symObjAddr: 0xC748, symBinAddr: 0x17080, symSize: 0x53C }
  - { offset: 0x569A9, size: 0x8, addend: 0x0, symName: '__ZN98_$LT$$RF$mut$u20$serde_json..de..Deserializer$LT$R$GT$$u20$as$u20$serde_core..de..Deserializer$GT$15deserialize_seq17hba64ce9f69989979E', symObjAddr: 0xCC84, symBinAddr: 0x175BC, symSize: 0x53C }
  - { offset: 0x56ACE, size: 0x8, addend: 0x0, symName: '__ZN98_$LT$$RF$mut$u20$serde_json..de..Deserializer$LT$R$GT$$u20$as$u20$serde_core..de..Deserializer$GT$15deserialize_seq17hbe9686da041f8d44E', symObjAddr: 0xD1C0, symBinAddr: 0x17AF8, symSize: 0x53C }
  - { offset: 0x56BF3, size: 0x8, addend: 0x0, symName: '__ZN98_$LT$$RF$mut$u20$serde_json..de..Deserializer$LT$R$GT$$u20$as$u20$serde_core..de..Deserializer$GT$15deserialize_seq17hca79d437c334365eE', symObjAddr: 0xD6FC, symBinAddr: 0x18034, symSize: 0x4AC }
  - { offset: 0x56D18, size: 0x8, addend: 0x0, symName: '__ZN98_$LT$$RF$mut$u20$serde_json..de..Deserializer$LT$R$GT$$u20$as$u20$serde_core..de..Deserializer$GT$15deserialize_str17h6c1210daa9db93fbE', symObjAddr: 0xDBA8, symBinAddr: 0x184E0, symSize: 0x284 }
  - { offset: 0x56E3B, size: 0x8, addend: 0x0, symName: '__ZN98_$LT$$RF$mut$u20$serde_json..de..Deserializer$LT$R$GT$$u20$as$u20$serde_core..de..Deserializer$GT$15deserialize_str17h7053eaa2c5261dd5E', symObjAddr: 0xDE2C, symBinAddr: 0x18764, symSize: 0x2B0 }
  - { offset: 0x56F5F, size: 0x8, addend: 0x0, symName: '__ZN98_$LT$$RF$mut$u20$serde_json..de..Deserializer$LT$R$GT$$u20$as$u20$serde_core..de..Deserializer$GT$15deserialize_u3217h4bc81ed79d1827b1E', symObjAddr: 0xE0DC, symBinAddr: 0x18A14, symSize: 0x24 }
  - { offset: 0x56FAE, size: 0x8, addend: 0x0, symName: '__ZN98_$LT$$RF$mut$u20$serde_json..de..Deserializer$LT$R$GT$$u20$as$u20$serde_core..de..Deserializer$GT$15deserialize_u6417h101bce1305d9a08aE', symObjAddr: 0xE100, symBinAddr: 0x18A38, symSize: 0x24 }
  - { offset: 0x56FFD, size: 0x8, addend: 0x0, symName: '__ZN98_$LT$$RF$mut$u20$serde_json..de..Deserializer$LT$R$GT$$u20$as$u20$serde_core..de..Deserializer$GT$15deserialize_u6417hcf7b2e4aee0c93bdE', symObjAddr: 0xE124, symBinAddr: 0x18A5C, symSize: 0x24 }
  - { offset: 0x5704C, size: 0x8, addend: 0x0, symName: '__ZN98_$LT$$RF$mut$u20$serde_json..de..Deserializer$LT$R$GT$$u20$as$u20$serde_core..de..Deserializer$GT$16deserialize_bool17hc08921641d3c25bbE', symObjAddr: 0xE148, symBinAddr: 0x18A80, symSize: 0x2D4 }
  - { offset: 0x57158, size: 0x8, addend: 0x0, symName: '__ZN98_$LT$$RF$mut$u20$serde_json..de..Deserializer$LT$R$GT$$u20$as$u20$serde_core..de..Deserializer$GT$16deserialize_enum17h8e42f78ae0750b70E', symObjAddr: 0xE41C, symBinAddr: 0x18D54, symSize: 0x4FC }
  - { offset: 0x5726E, size: 0x8, addend: 0x0, symName: '__ZN98_$LT$$RF$mut$u20$serde_json..de..Deserializer$LT$R$GT$$u20$as$u20$serde_core..de..Deserializer$GT$16deserialize_unit17he3fc38554cfbbaabE', symObjAddr: 0xE918, symBinAddr: 0x19250, symSize: 0x1E4 }
  - { offset: 0x5735A, size: 0x8, addend: 0x0, symName: '__ZN98_$LT$$RF$mut$u20$serde_json..de..Deserializer$LT$R$GT$$u20$as$u20$serde_core..de..Deserializer$GT$17deserialize_tuple17h03fc6d43af5f5426E', symObjAddr: 0xEAFC, symBinAddr: 0x19434, symSize: 0x28 }
  - { offset: 0x573B8, size: 0x8, addend: 0x0, symName: '__ZN98_$LT$$RF$mut$u20$serde_json..de..Deserializer$LT$R$GT$$u20$as$u20$serde_core..de..Deserializer$GT$18deserialize_option17h61c3a0940de65416E', symObjAddr: 0xEB24, symBinAddr: 0x1945C, symSize: 0x158 }
  - { offset: 0x57443, size: 0x8, addend: 0x0, symName: '__ZN98_$LT$$RF$mut$u20$serde_json..de..Deserializer$LT$R$GT$$u20$as$u20$serde_core..de..Deserializer$GT$18deserialize_option17h6272aa18a512be4dE', symObjAddr: 0xEC7C, symBinAddr: 0x195B4, symSize: 0x158 }
  - { offset: 0x574CE, size: 0x8, addend: 0x0, symName: '__ZN98_$LT$$RF$mut$u20$serde_json..de..Deserializer$LT$R$GT$$u20$as$u20$serde_core..de..Deserializer$GT$18deserialize_option17h8bb9a9d96e7fcae0E', symObjAddr: 0xEDD4, symBinAddr: 0x1970C, symSize: 0x158 }
  - { offset: 0x57559, size: 0x8, addend: 0x0, symName: '__ZN98_$LT$$RF$mut$u20$serde_json..de..Deserializer$LT$R$GT$$u20$as$u20$serde_core..de..Deserializer$GT$18deserialize_option17h94a9eb07afece6dcE', symObjAddr: 0xEF2C, symBinAddr: 0x19864, symSize: 0x158 }
  - { offset: 0x575E4, size: 0x8, addend: 0x0, symName: '__ZN98_$LT$$RF$mut$u20$serde_json..de..Deserializer$LT$R$GT$$u20$as$u20$serde_core..de..Deserializer$GT$18deserialize_option17he5dbf259e8d52b8fE', symObjAddr: 0xF084, symBinAddr: 0x199BC, symSize: 0x158 }
  - { offset: 0x5766F, size: 0x8, addend: 0x0, symName: '__ZN98_$LT$$RF$mut$u20$serde_json..de..Deserializer$LT$R$GT$$u20$as$u20$serde_core..de..Deserializer$GT$18deserialize_string17h64d276cb14d1ee9eE', symObjAddr: 0xF1DC, symBinAddr: 0x19B14, symSize: 0x24 }
  - { offset: 0x576BE, size: 0x8, addend: 0x0, symName: '__ZN98_$LT$$RF$mut$u20$serde_json..de..Deserializer$LT$R$GT$$u20$as$u20$serde_core..de..Deserializer$GT$18deserialize_struct17h09cbec888a25ad5eE', symObjAddr: 0xF200, symBinAddr: 0x19B38, symSize: 0x8F0 }
  - { offset: 0x57859, size: 0x8, addend: 0x0, symName: '__ZN98_$LT$$RF$mut$u20$serde_json..de..Deserializer$LT$R$GT$$u20$as$u20$serde_core..de..Deserializer$GT$18deserialize_struct17h0cc6509b1602b87cE', symObjAddr: 0xFAF0, symBinAddr: 0x1A428, symSize: 0x8F0 }
  - { offset: 0x579F4, size: 0x8, addend: 0x0, symName: '__ZN98_$LT$$RF$mut$u20$serde_json..de..Deserializer$LT$R$GT$$u20$as$u20$serde_core..de..Deserializer$GT$18deserialize_struct17h19bb78856c5c1485E', symObjAddr: 0x103E0, symBinAddr: 0x1AD18, symSize: 0x8E8 }
  - { offset: 0x57B8F, size: 0x8, addend: 0x0, symName: '__ZN98_$LT$$RF$mut$u20$serde_json..de..Deserializer$LT$R$GT$$u20$as$u20$serde_core..de..Deserializer$GT$18deserialize_struct17h440e78cc1c729ed3E', symObjAddr: 0x10CC8, symBinAddr: 0x1B600, symSize: 0x8F0 }
  - { offset: 0x57D2A, size: 0x8, addend: 0x0, symName: '__ZN98_$LT$$RF$mut$u20$serde_json..de..Deserializer$LT$R$GT$$u20$as$u20$serde_core..de..Deserializer$GT$18deserialize_struct17h5cb3b05a655fb7dbE', symObjAddr: 0x115B8, symBinAddr: 0x1BEF0, symSize: 0x8EC }
  - { offset: 0x57EC5, size: 0x8, addend: 0x0, symName: '__ZN98_$LT$$RF$mut$u20$serde_json..de..Deserializer$LT$R$GT$$u20$as$u20$serde_core..de..Deserializer$GT$18deserialize_struct17h7daf93f846e546a4E', symObjAddr: 0x11EA4, symBinAddr: 0x1C7DC, symSize: 0x8F0 }
  - { offset: 0x58060, size: 0x8, addend: 0x0, symName: '__ZN98_$LT$$RF$mut$u20$serde_json..de..Deserializer$LT$R$GT$$u20$as$u20$serde_core..de..Deserializer$GT$18deserialize_struct17h945fa7126b8af341E', symObjAddr: 0x12794, symBinAddr: 0x1D0CC, symSize: 0x8C4 }
  - { offset: 0x581FB, size: 0x8, addend: 0x0, symName: '__ZN98_$LT$$RF$mut$u20$serde_json..de..Deserializer$LT$R$GT$$u20$as$u20$serde_core..de..Deserializer$GT$18deserialize_struct17hda518eeab11ab246E', symObjAddr: 0x13058, symBinAddr: 0x1D990, symSize: 0x8DC }
  - { offset: 0x58396, size: 0x8, addend: 0x0, symName: '__ZN98_$LT$$RF$mut$u20$serde_json..de..Deserializer$LT$R$GT$$u20$as$u20$serde_core..de..Deserializer$GT$18deserialize_struct17hfa9c8ca8ac126f59E', symObjAddr: 0x13934, symBinAddr: 0x1E26C, symSize: 0x8DC }
  - { offset: 0x58531, size: 0x8, addend: 0x0, symName: '__ZN98_$LT$$RF$mut$u20$serde_json..de..Deserializer$LT$R$GT$$u20$as$u20$serde_core..de..Deserializer$GT$22deserialize_identifier17h7640a97e88eafe11E', symObjAddr: 0x14210, symBinAddr: 0x1EB48, symSize: 0x24 }
  - { offset: 0x58580, size: 0x8, addend: 0x0, symName: '__ZN98_$LT$$RF$mut$u20$serde_json..de..Deserializer$LT$R$GT$$u20$as$u20$serde_core..de..Deserializer$GT$23deserialize_ignored_any17h3480367e4cd47324E', symObjAddr: 0x14234, symBinAddr: 0x1EB6C, symSize: 0xAC }
  - { offset: 0x58A9C, size: 0x8, addend: 0x0, symName: __ZN10serde_json2de12ParserNumber5visit17h5e965527de740471E, symObjAddr: 0x110C, symBinAddr: 0xBA44, symSize: 0x8C }
  - { offset: 0x58B2D, size: 0x8, addend: 0x0, symName: __ZN10serde_json2de12ParserNumber5visit17h8b2da4f3a13a7e44E, symObjAddr: 0x1198, symBinAddr: 0xBAD0, symSize: 0x8C }
  - { offset: 0x58BBE, size: 0x8, addend: 0x0, symName: __ZN10serde_json2de12ParserNumber5visit17h923f0e865d6a5541E, symObjAddr: 0x1224, symBinAddr: 0xBB5C, symSize: 0x9C }
  - { offset: 0x58C4F, size: 0x8, addend: 0x0, symName: __ZN10serde_json2de12ParserNumber5visit17hd042d5c1eb4b78e0E, symObjAddr: 0x12C0, symBinAddr: 0xBBF8, symSize: 0x9C }
  - { offset: 0x58D0B, size: 0x8, addend: 0x0, symName: '__ZN10serde_json2de15MapKey$LT$R$GT$18deserialize_number17heef132326e08690dE', symObjAddr: 0x135C, symBinAddr: 0xBC94, symSize: 0x264 }
  - { offset: 0x58DDF, size: 0x8, addend: 0x0, symName: '__ZN10serde_json2de21Deserializer$LT$R$GT$12ignore_value17hc39a5ce9df6e5030E', symObjAddr: 0x15C0, symBinAddr: 0xBEF8, symSize: 0x774 }
  - { offset: 0x59043, size: 0x8, addend: 0x0, symName: '__ZN10serde_json2de21Deserializer$LT$R$GT$14ignore_decimal17hf6c6e4f9833074b1E', symObjAddr: 0x1D34, symBinAddr: 0xC66C, symSize: 0x12C }
  - { offset: 0x590C1, size: 0x8, addend: 0x0, symName: '__ZN10serde_json2de21Deserializer$LT$R$GT$14ignore_integer17h05a619adf4ce757bE', symObjAddr: 0x1E60, symBinAddr: 0xC798, symSize: 0x204 }
  - { offset: 0x59165, size: 0x8, addend: 0x0, symName: '__ZN10serde_json2de21Deserializer$LT$R$GT$15ignore_exponent17ha0d54f2634b00f50E', symObjAddr: 0x2064, symBinAddr: 0xC99C, symSize: 0x164 }
  - { offset: 0x591EB, size: 0x8, addend: 0x0, symName: '__ZN10serde_json2de21Deserializer$LT$R$GT$17next_char_or_null17h2bb9705e955351fbE', symObjAddr: 0x21C8, symBinAddr: 0xCB00, symSize: 0x88 }
  - { offset: 0x59234, size: 0x8, addend: 0x0, symName: '__ZN10serde_json2de21Deserializer$LT$R$GT$18deserialize_number17h361c7b762f678f8fE', symObjAddr: 0x2250, symBinAddr: 0xCB88, symSize: 0x2EC }
  - { offset: 0x59336, size: 0x8, addend: 0x0, symName: '__ZN10serde_json2de21Deserializer$LT$R$GT$18deserialize_number17h6e1bf492f2f1a6efE', symObjAddr: 0x253C, symBinAddr: 0xCE74, symSize: 0x2EC }
  - { offset: 0x59438, size: 0x8, addend: 0x0, symName: '__ZN10serde_json2de21Deserializer$LT$R$GT$18deserialize_number17h817c09467ab6e21cE', symObjAddr: 0x2828, symBinAddr: 0xD160, symSize: 0x2F8 }
  - { offset: 0x5953B, size: 0x8, addend: 0x0, symName: '__ZN10serde_json2de21Deserializer$LT$R$GT$18deserialize_number17h881cc8eb5354f370E', symObjAddr: 0x2B20, symBinAddr: 0xD458, symSize: 0x2F8 }
  - { offset: 0x5963E, size: 0x8, addend: 0x0, symName: '__ZN10serde_json2de21Deserializer$LT$R$GT$18deserialize_number17h922dfbb3dd7b168eE', symObjAddr: 0x2E18, symBinAddr: 0xD750, symSize: 0x2E4 }
  - { offset: 0x59740, size: 0x8, addend: 0x0, symName: '__ZN10serde_json2de22VariantAccess$LT$R$GT$3new17ha57708c54257d4dbE', symObjAddr: 0x30FC, symBinAddr: 0xDA34, symSize: 0x14 }
  - { offset: 0x5976C, size: 0x8, addend: 0x0, symName: '__ZN10serde_json2de26UnitVariantAccess$LT$R$GT$3new17h58a4caaae2d3de29E', symObjAddr: 0x3110, symBinAddr: 0xDA48, symSize: 0x14 }
  - { offset: 0x59833, size: 0x8, addend: 0x0, symName: '__ZN100_$LT$core..iter..adapters..take..Take$LT$I$GT$$u20$as$u20$core..iter..traits..iterator..Iterator$GT$4next17h0c0c00da6b2c369bE', symObjAddr: 0x0, symBinAddr: 0x1EC18, symSize: 0x58 }
  - { offset: 0x5A01A, size: 0x8, addend: 0x0, symName: '__ZN100_$LT$core..iter..adapters..take..Take$LT$I$GT$$u20$as$u20$core..iter..traits..iterator..Iterator$GT$4next17h0c0c00da6b2c369bE', symObjAddr: 0x0, symBinAddr: 0x1EC18, symSize: 0x58 }
  - { offset: 0x5A0D9, size: 0x8, addend: 0x0, symName: __ZN4core4iter6traits8iterator8Iterator9enumerate17h5dd7aeecbed70488E, symObjAddr: 0x58, symBinAddr: 0x1EC70, symSize: 0x18 }
  - { offset: 0x5A10A, size: 0x8, addend: 0x0, symName: __ZN4core4iter6traits8iterator8Iterator9enumerate17h5dd7aeecbed70488E, symObjAddr: 0x58, symBinAddr: 0x1EC70, symSize: 0x18 }
  - { offset: 0x5B1C6, size: 0x8, addend: 0x0, symName: '__ZN175_$LT$serde_json..value..de..$LT$impl$u20$serde_core..de..Deserialize$u20$for$u20$serde_json..value..Value$GT$..deserialize..ValueVisitor$u20$as$u20$serde_core..de..Visitor$GT$9visit_map17h5b2fab204bbbbd6eE', symObjAddr: 0x0, symBinAddr: 0x1EC88, symSize: 0x3F8 }
  - { offset: 0x5B456, size: 0x8, addend: 0x0, symName: '__ZN175_$LT$serde_json..value..de..$LT$impl$u20$serde_core..de..Deserialize$u20$for$u20$serde_json..value..Value$GT$..deserialize..ValueVisitor$u20$as$u20$serde_core..de..Visitor$GT$9visit_map17h5b2fab204bbbbd6eE', symObjAddr: 0x0, symBinAddr: 0x1EC88, symSize: 0x3F8 }
  - { offset: 0x5B552, size: 0x8, addend: 0x0, symName: '__ZN175_$LT$serde_json..value..de..$LT$impl$u20$serde_core..de..Deserialize$u20$for$u20$serde_json..value..Value$GT$..deserialize..ValueVisitor$u20$as$u20$serde_core..de..Visitor$GT$9visit_seq17hfede0588fcee724bE', symObjAddr: 0x3F8, symBinAddr: 0x1F080, symSize: 0x170 }
  - { offset: 0x5B5FB, size: 0x8, addend: 0x0, symName: '__ZN88_$LT$serde_json..value..de..KeyClassifier$u20$as$u20$serde_core..de..DeserializeSeed$GT$11deserialize17h04ae0694caff6c06E', symObjAddr: 0x568, symBinAddr: 0x1F1F0, symSize: 0x24 }
  - { offset: 0x5C472, size: 0x8, addend: 0x0, symName: __ZN10serde_core2de7Visitor18visit_borrowed_str17h0e10f76d12550c8eE, symObjAddr: 0x0, symBinAddr: 0x1F214, symSize: 0x28 }
  - { offset: 0x5C589, size: 0x8, addend: 0x0, symName: '__ZN154_$LT$sekejap.._..$LT$impl$u20$serde_core..de..Deserialize$u20$for$u20$sekejap..SnapEdge$GT$..deserialize..__Visitor$u20$as$u20$serde_core..de..Visitor$GT$9visit_map17h840bee6c47dbc079E', symObjAddr: 0xC8, symBinAddr: 0x1F2DC, symSize: 0xDD0 }
  - { offset: 0x5C92F, size: 0x8, addend: 0x0, symName: '__ZN154_$LT$sekejap.._..$LT$impl$u20$serde_core..de..Deserialize$u20$for$u20$sekejap..SnapEdge$GT$..deserialize..__Visitor$u20$as$u20$serde_core..de..Visitor$GT$9visit_seq17habb2f4608c26b276E', symObjAddr: 0xE98, symBinAddr: 0x200AC, symSize: 0x57C }
  - { offset: 0x5CAC9, size: 0x8, addend: 0x0, symName: '__ZN154_$LT$sekejap.._..$LT$impl$u20$serde_core..de..Deserialize$u20$for$u20$sekejap..SnapHnsw$GT$..deserialize..__Visitor$u20$as$u20$serde_core..de..Visitor$GT$9visit_map17h97eba464800e89ecE', symObjAddr: 0x1414, symBinAddr: 0x20628, symSize: 0xA64 }
  - { offset: 0x5CE02, size: 0x8, addend: 0x0, symName: '__ZN154_$LT$sekejap.._..$LT$impl$u20$serde_core..de..Deserialize$u20$for$u20$sekejap..SnapHnsw$GT$..deserialize..__Visitor$u20$as$u20$serde_core..de..Visitor$GT$9visit_seq17hd151f3b7b6bec23dE', symObjAddr: 0x1E78, symBinAddr: 0x2108C, symSize: 0x45C }
  - { offset: 0x5CFD0, size: 0x8, addend: 0x0, symName: '__ZN154_$LT$sekejap.._..$LT$impl$u20$serde_core..de..Deserialize$u20$for$u20$sekejap..SnapNode$GT$..deserialize..__Visitor$u20$as$u20$serde_core..de..Visitor$GT$9visit_map17h3e4c48c7b1809b56E', symObjAddr: 0x22D4, symBinAddr: 0x214E8, symSize: 0x6C4 }
  - { offset: 0x5D1B0, size: 0x8, addend: 0x0, symName: '__ZN154_$LT$sekejap.._..$LT$impl$u20$serde_core..de..Deserialize$u20$for$u20$sekejap..SnapNode$GT$..deserialize..__Visitor$u20$as$u20$serde_core..de..Visitor$GT$9visit_seq17h9f90146d2ebf1971E', symObjAddr: 0x2998, symBinAddr: 0x21BAC, symSize: 0x264 }
  - { offset: 0x5D282, size: 0x8, addend: 0x0, symName: '__ZN154_$LT$sekejap.._..$LT$impl$u20$serde_core..de..Deserialize$u20$for$u20$sekejap..Snapshot$GT$..deserialize..__Visitor$u20$as$u20$serde_core..de..Visitor$GT$9visit_map17hf446ad7f82b7716bE', symObjAddr: 0x2BFC, symBinAddr: 0x21E10, symSize: 0x111C }
  - { offset: 0x5D6CA, size: 0x8, addend: 0x0, symName: '__ZN154_$LT$sekejap.._..$LT$impl$u20$serde_core..de..Deserialize$u20$for$u20$sekejap..Snapshot$GT$..deserialize..__Visitor$u20$as$u20$serde_core..de..Visitor$GT$9visit_seq17hd02805edf348a066E', symObjAddr: 0x3D18, symBinAddr: 0x22F2C, symSize: 0x6EC }
  - { offset: 0x5D8B1, size: 0x8, addend: 0x0, symName: '__ZN156_$LT$sekejap.._..$LT$impl$u20$serde_core..de..Deserialize$u20$for$u20$sekejap..SnapVector$GT$..deserialize..__Visitor$u20$as$u20$serde_core..de..Visitor$GT$9visit_map17h87f2bf0a5debb684E', symObjAddr: 0x4470, symBinAddr: 0x23684, symSize: 0x9A4 }
  - { offset: 0x5DB2B, size: 0x8, addend: 0x0, symName: '__ZN156_$LT$sekejap.._..$LT$impl$u20$serde_core..de..Deserialize$u20$for$u20$sekejap..SnapVector$GT$..deserialize..__Visitor$u20$as$u20$serde_core..de..Visitor$GT$9visit_seq17hae8429b31f21a4c7E', symObjAddr: 0x4E14, symBinAddr: 0x24028, symSize: 0x394 }
  - { offset: 0x5DC4F, size: 0x8, addend: 0x0, symName: '__ZN156_$LT$sekejap.._..$LT$impl$u20$serde_core..de..Deserialize$u20$for$u20$sekejap..SnapEdge$GT$..deserialize..__Field$u20$as$u20$serde_core..de..Deserialize$GT$11deserialize17h8a3ddc05e170e5a0E', symObjAddr: 0x4404, symBinAddr: 0x23618, symSize: 0x24 }
  - { offset: 0x5DC86, size: 0x8, addend: 0x0, symName: '__ZN156_$LT$sekejap.._..$LT$impl$u20$serde_core..de..Deserialize$u20$for$u20$sekejap..SnapHnsw$GT$..deserialize..__Field$u20$as$u20$serde_core..de..Deserialize$GT$11deserialize17h3af066d9eecf316dE', symObjAddr: 0x4428, symBinAddr: 0x2363C, symSize: 0x24 }
  - { offset: 0x5DCBD, size: 0x8, addend: 0x0, symName: '__ZN156_$LT$sekejap.._..$LT$impl$u20$serde_core..de..Deserialize$u20$for$u20$sekejap..SnapNode$GT$..deserialize..__Field$u20$as$u20$serde_core..de..Deserialize$GT$11deserialize17hf2e3e7e3ae4a4c7dE', symObjAddr: 0x444C, symBinAddr: 0x23660, symSize: 0x24 }
  - { offset: 0x5DCF4, size: 0x8, addend: 0x0, symName: '__ZN156_$LT$sekejap.._..$LT$impl$u20$serde_core..de..Deserialize$u20$for$u20$sekejap..Snapshot$GT$..deserialize..__Field$u20$as$u20$serde_core..de..Deserialize$GT$11deserialize17h819c66fd1ae441f7E', symObjAddr: 0x51A8, symBinAddr: 0x243BC, symSize: 0x24 }
  - { offset: 0x5DD2B, size: 0x8, addend: 0x0, symName: '__ZN158_$LT$sekejap.._..$LT$impl$u20$serde_core..de..Deserialize$u20$for$u20$sekejap..SnapVector$GT$..deserialize..__Field$u20$as$u20$serde_core..de..Deserialize$GT$11deserialize17hbae87a977302fee4E', symObjAddr: 0x51CC, symBinAddr: 0x243E0, symSize: 0x24 }
  - { offset: 0x5DD68, size: 0x8, addend: 0x0, symName: '__ZN159_$LT$sekejap.._..$LT$impl$u20$serde_core..de..Deserialize$u20$for$u20$sekejap..SnapEdge$GT$..deserialize..__FieldVisitor$u20$as$u20$serde_core..de..Visitor$GT$9visit_str17h166f267721c17db5E', symObjAddr: 0x51F0, symBinAddr: 0x24404, symSize: 0x150 }
  - { offset: 0x5DDBA, size: 0x8, addend: 0x0, symName: '__ZN159_$LT$sekejap.._..$LT$impl$u20$serde_core..de..Deserialize$u20$for$u20$sekejap..SnapHnsw$GT$..deserialize..__FieldVisitor$u20$as$u20$serde_core..de..Visitor$GT$9visit_str17h6df3f7efccc99a00E', symObjAddr: 0x5340, symBinAddr: 0x24554, symSize: 0x150 }
  - { offset: 0x5DE0C, size: 0x8, addend: 0x0, symName: '__ZN159_$LT$sekejap.._..$LT$impl$u20$serde_core..de..Deserialize$u20$for$u20$sekejap..SnapNode$GT$..deserialize..__FieldVisitor$u20$as$u20$serde_core..de..Visitor$GT$9visit_str17hedadaab9a9a22cb5E', symObjAddr: 0x5490, symBinAddr: 0x246A4, symSize: 0xA8 }
  - { offset: 0x5DE5E, size: 0x8, addend: 0x0, symName: '__ZN159_$LT$sekejap.._..$LT$impl$u20$serde_core..de..Deserialize$u20$for$u20$sekejap..Snapshot$GT$..deserialize..__FieldVisitor$u20$as$u20$serde_core..de..Visitor$GT$9visit_str17h08db2b1da8cf32e3E', symObjAddr: 0x5538, symBinAddr: 0x2474C, symSize: 0x188 }
  - { offset: 0x5DEB0, size: 0x8, addend: 0x0, symName: '__ZN161_$LT$sekejap.._..$LT$impl$u20$serde_core..de..Deserialize$u20$for$u20$sekejap..SnapVector$GT$..deserialize..__FieldVisitor$u20$as$u20$serde_core..de..Visitor$GT$9visit_str17h07ee280cb2987f26E', symObjAddr: 0x56C0, symBinAddr: 0x248D4, symSize: 0xE0 }
  - { offset: 0x5DFD1, size: 0x8, addend: 0x0, symName: '__ZN7sekejap1_75_$LT$impl$u20$serde_core..de..Deserialize$u20$for$u20$sekejap..SnapEdge$GT$11deserialize17hc56c5248f253265dE', symObjAddr: 0x587C, symBinAddr: 0x24A90, symSize: 0x44 }
  - { offset: 0x5E008, size: 0x8, addend: 0x0, symName: '__ZN7sekejap1_75_$LT$impl$u20$serde_core..de..Deserialize$u20$for$u20$sekejap..SnapHnsw$GT$11deserialize17h19d37b8cb7bf7f26E', symObjAddr: 0x58C0, symBinAddr: 0x24AD4, symSize: 0x44 }
  - { offset: 0x5E03F, size: 0x8, addend: 0x0, symName: '__ZN7sekejap1_75_$LT$impl$u20$serde_core..de..Deserialize$u20$for$u20$sekejap..SnapNode$GT$11deserialize17h18155ce335ccb808E', symObjAddr: 0x5904, symBinAddr: 0x24B18, symSize: 0x44 }
  - { offset: 0x5E076, size: 0x8, addend: 0x0, symName: '__ZN7sekejap1_75_$LT$impl$u20$serde_core..de..Deserialize$u20$for$u20$sekejap..Snapshot$GT$11deserialize17hffbdac424f39d4f3E', symObjAddr: 0x5948, symBinAddr: 0x24B5C, symSize: 0x44 }
  - { offset: 0x5E0AD, size: 0x8, addend: 0x0, symName: '__ZN7sekejap1_77_$LT$impl$u20$serde_core..de..Deserialize$u20$for$u20$sekejap..SnapVector$GT$11deserialize17hfd7fa05dbb892865E', symObjAddr: 0x598C, symBinAddr: 0x24BA0, symSize: 0x44 }
  - { offset: 0x5E92F, size: 0x8, addend: 0x0, symName: '__ZN7sekejap6CoreDB4open28_$u7b$$u7b$closure$u7d$$u7d$17h4b7d202d8e9feecaE', symObjAddr: 0x6504, symBinAddr: 0x25718, symSize: 0x2C }
  - { offset: 0x5F302, size: 0x8, addend: 0x0, symName: __ZN10serde_core2de7Visitor18visit_borrowed_str17h0e10f76d12550c8eE, symObjAddr: 0x0, symBinAddr: 0x1F214, symSize: 0x28 }
  - { offset: 0x5F351, size: 0x8, addend: 0x0, symName: __ZN10serde_core2de7Visitor18visit_borrowed_str17h37c5fefcf580aa36E, symObjAddr: 0x28, symBinAddr: 0x1F23C, symSize: 0x28 }
  - { offset: 0x5F3A0, size: 0x8, addend: 0x0, symName: __ZN10serde_core2de7Visitor18visit_borrowed_str17h702f720d49c35727E, symObjAddr: 0x50, symBinAddr: 0x1F264, symSize: 0x28 }
  - { offset: 0x5F3EF, size: 0x8, addend: 0x0, symName: __ZN10serde_core2de7Visitor18visit_borrowed_str17haf58503a8129f5bfE, symObjAddr: 0x78, symBinAddr: 0x1F28C, symSize: 0x28 }
  - { offset: 0x5F43E, size: 0x8, addend: 0x0, symName: __ZN10serde_core2de7Visitor18visit_borrowed_str17hc4d1050c44534065E, symObjAddr: 0xA0, symBinAddr: 0x1F2B4, symSize: 0x28 }
  - { offset: 0x5F493, size: 0x8, addend: 0x0, symName: '__ZN46_$LT$T$u20$as$u20$serde_core..de..Expected$GT$3fmt17h5078edff5fa2cea4E', symObjAddr: 0x57A0, symBinAddr: 0x249B4, symSize: 0x2C }
  - { offset: 0x5F4D9, size: 0x8, addend: 0x0, symName: '__ZN46_$LT$T$u20$as$u20$serde_core..de..Expected$GT$3fmt17h711adc40ea11e02eE', symObjAddr: 0x57CC, symBinAddr: 0x249E0, symSize: 0x2C }
  - { offset: 0x5F51F, size: 0x8, addend: 0x0, symName: '__ZN46_$LT$T$u20$as$u20$serde_core..de..Expected$GT$3fmt17h88d1ee589e132032E', symObjAddr: 0x57F8, symBinAddr: 0x24A0C, symSize: 0x2C }
  - { offset: 0x5F565, size: 0x8, addend: 0x0, symName: '__ZN46_$LT$T$u20$as$u20$serde_core..de..Expected$GT$3fmt17heed7ef45af670295E', symObjAddr: 0x5824, symBinAddr: 0x24A38, symSize: 0x2C }
  - { offset: 0x5F5AB, size: 0x8, addend: 0x0, symName: '__ZN46_$LT$T$u20$as$u20$serde_core..de..Expected$GT$3fmt17hff389edd68f0122bE', symObjAddr: 0x5850, symBinAddr: 0x24A64, symSize: 0x2C }
  - { offset: 0x62ED6, size: 0x8, addend: 0x0, symName: __ZN7sekejap6CoreDB4open17hcd44ac631bca5adcE, symObjAddr: 0x59D0, symBinAddr: 0x24BE4, symSize: 0xB34 }
  - { offset: 0x63316, size: 0x8, addend: 0x0, symName: '__ZN4pyo311conversions3std6string125_$LT$impl$u20$pyo3..conversion..IntoPy$LT$pyo3..instance..Py$LT$pyo3..types..string..PyString$GT$$GT$$u20$for$u20$$RF$str$GT$7into_py17h5edefc1ba40cb251E', symObjAddr: 0x0, symBinAddr: 0x25744, symSize: 0x34 }
  - { offset: 0x64458, size: 0x8, addend: 0x0, symName: '__ZN4pyo311conversions3std6string125_$LT$impl$u20$pyo3..conversion..IntoPy$LT$pyo3..instance..Py$LT$pyo3..types..string..PyString$GT$$GT$$u20$for$u20$$RF$str$GT$7into_py17h5edefc1ba40cb251E', symObjAddr: 0x0, symBinAddr: 0x25744, symSize: 0x34 }
  - { offset: 0x64A79, size: 0x8, addend: 0x0, symName: '__ZN4core3ptr7mut_ptr31_$LT$impl$u20$$BP$mut$u20$T$GT$6offset18precondition_check17h4ae4c7b8e254e1b1E', symObjAddr: 0x0, symBinAddr: 0x25778, symSize: 0xC4 }
  - { offset: 0x64B2F, size: 0x8, addend: 0x0, symName: '__ZN4core3ptr7mut_ptr31_$LT$impl$u20$$BP$mut$u20$T$GT$6offset18precondition_check17h4ae4c7b8e254e1b1E', symObjAddr: 0x0, symBinAddr: 0x25778, symSize: 0xC4 }
  - { offset: 0x64F22, size: 0x8, addend: 0x0, symName: __ZN4pyo35impl_9pymethods11tp_new_impl17h8cfb72b5a1972315E, symObjAddr: 0x0, symBinAddr: 0x2583C, symSize: 0x6C }
  - { offset: 0x66CE6, size: 0x8, addend: 0x0, symName: '__ZN50_$LT$T$u20$as$u20$core..convert..Into$LT$U$GT$$GT$4into17h4a7e65b6ee4af64dE', symObjAddr: 0x128, symBinAddr: 0x25964, symSize: 0x24 }
  - { offset: 0x67344, size: 0x8, addend: 0x0, symName: __ZN4pyo35impl_9pymethods11tp_new_impl17h8cfb72b5a1972315E, symObjAddr: 0x0, symBinAddr: 0x2583C, symSize: 0x6C }
  - { offset: 0x674C0, size: 0x8, addend: 0x0, symName: __ZN4pyo35impl_9pymethods8BoundRef17he8d1aa706e4df72dE, symObjAddr: 0x114, symBinAddr: 0x25950, symSize: 0x14 }
  - { offset: 0x674F9, size: 0x8, addend: 0x0, symName: '__ZN85_$LT$pyo3..impl_..pymethods..BoundRef$LT$T$GT$$u20$as$u20$core..ops..deref..Deref$GT$5deref17h01848added2573a0E', symObjAddr: 0x14C, symBinAddr: 0x25988, symSize: 0x18 }
  - { offset: 0x67530, size: 0x8, addend: 0x0, symName: '__ZN85_$LT$pyo3..impl_..pymethods..BoundRef$LT$T$GT$$u20$as$u20$core..ops..deref..Deref$GT$5deref17h2cbaffb935179021E', symObjAddr: 0x164, symBinAddr: 0x259A0, symSize: 0x18 }
  - { offset: 0x67567, size: 0x8, addend: 0x0, symName: '__ZN85_$LT$pyo3..impl_..pymethods..BoundRef$LT$T$GT$$u20$as$u20$core..ops..deref..Deref$GT$5deref17hf9bd4296c4a5d2d8E', symObjAddr: 0x17C, symBinAddr: 0x259B8, symSize: 0x18 }
  - { offset: 0x687F2, size: 0x8, addend: 0x0, symName: '__ZN4pyo35impl_9pymethods39BoundRef$LT$pyo3..types..any..PyAny$GT$18downcast_unchecked17h179052637253fceeE', symObjAddr: 0x6C, symBinAddr: 0x258A8, symSize: 0x24 }
  - { offset: 0x6882B, size: 0x8, addend: 0x0, symName: '__ZN4pyo35impl_9pymethods39BoundRef$LT$pyo3..types..any..PyAny$GT$18downcast_unchecked17h229dd976bf87931bE', symObjAddr: 0x90, symBinAddr: 0x258CC, symSize: 0x24 }
  - { offset: 0x68864, size: 0x8, addend: 0x0, symName: '__ZN4pyo35impl_9pymethods39BoundRef$LT$pyo3..types..any..PyAny$GT$18downcast_unchecked17h8b1181064fed72fbE', symObjAddr: 0xB4, symBinAddr: 0x258F0, symSize: 0x24 }
  - { offset: 0x6A0BA, size: 0x8, addend: 0x0, symName: '__ZN4pyo35impl_9pymethods39BoundRef$LT$pyo3..types..any..PyAny$GT$8downcast17hcc007d5ea3605a37E', symObjAddr: 0xD8, symBinAddr: 0x25914, symSize: 0x3C }
  - { offset: 0x6A180, size: 0x8, addend: 0x0, symName: __ZN9hashbrown3raw11TableLayout20calculate_layout_for17h6519a31366886a71E, symObjAddr: 0x0, symBinAddr: 0x259D0, symSize: 0x220 }
  - { offset: 0x6A809, size: 0x8, addend: 0x0, symName: __ZN9hashbrown3raw11TableLayout20calculate_layout_for17h6519a31366886a71E, symObjAddr: 0x0, symBinAddr: 0x259D0, symSize: 0x220 }
  - { offset: 0x6AAEF, size: 0x8, addend: 0x0, symName: '__ZN4core3str21_$LT$impl$u20$str$GT$3len17hfe2406998341fe98E', symObjAddr: 0x0, symBinAddr: 0x25BF0, symSize: 0x1C }
  - { offset: 0x6AB0B, size: 0x8, addend: 0x0, symName: '__ZN4core3str21_$LT$impl$u20$str$GT$3len17hfe2406998341fe98E', symObjAddr: 0x0, symBinAddr: 0x25BF0, symSize: 0x1C }
  - { offset: 0x6AB8D, size: 0x8, addend: 0x0, symName: '__ZN87_$LT$$BP$mut$u20$pyo3_ffi..object..PyObject$u20$as$u20$pyo3..ffi_ptr_ext..FfiPtrExt$GT$12assume_owned17h6599f0a6fb84c678E', symObjAddr: 0x0, symBinAddr: 0x25C0C, symSize: 0x24 }
  - { offset: 0x6ABE0, size: 0x8, addend: 0x0, symName: __ZN8pyo3_ffi6object18PyObject_TypeCheck17hf669e24c172e65ffE, symObjAddr: 0x90, symBinAddr: 0x25C9C, symSize: 0x74 }
  - { offset: 0x6AC1D, size: 0x8, addend: 0x0, symName: __ZN8pyo3_ffi6object7Py_None17h0e25a10b26e2664fE, symObjAddr: 0x104, symBinAddr: 0x25D10, symSize: 0xC }
  - { offset: 0x6AC3B, size: 0x8, addend: 0x0, symName: __ZN8pyo3_ffi6object7Py_TYPE17h03edd89263d1ba19E, symObjAddr: 0x110, symBinAddr: 0x25D1C, symSize: 0x74 }
  - { offset: 0x6BDE9, size: 0x8, addend: 0x0, symName: '__ZN87_$LT$$BP$mut$u20$pyo3_ffi..object..PyObject$u20$as$u20$pyo3..ffi_ptr_ext..FfiPtrExt$GT$12assume_owned17h6599f0a6fb84c678E', symObjAddr: 0x0, symBinAddr: 0x25C0C, symSize: 0x24 }
  - { offset: 0x6BE2E, size: 0x8, addend: 0x0, symName: '__ZN87_$LT$$BP$mut$u20$pyo3_ffi..object..PyObject$u20$as$u20$pyo3..ffi_ptr_ext..FfiPtrExt$GT$15assume_borrowed17hf1442da96acc006dE', symObjAddr: 0x24, symBinAddr: 0x25C30, symSize: 0x24 }
  - { offset: 0x6BE73, size: 0x8, addend: 0x0, symName: '__ZN87_$LT$$BP$mut$u20$pyo3_ffi..object..PyObject$u20$as$u20$pyo3..ffi_ptr_ext..FfiPtrExt$GT$22assume_borrowed_or_opt17hdd4e7c7224b89a75E', symObjAddr: 0x48, symBinAddr: 0x25C54, symSize: 0x24 }
  - { offset: 0x6BEB8, size: 0x8, addend: 0x0, symName: '__ZN87_$LT$$BP$mut$u20$pyo3_ffi..object..PyObject$u20$as$u20$pyo3..ffi_ptr_ext..FfiPtrExt$GT$25assume_borrowed_unchecked17h802af6f93c2dabcbE', symObjAddr: 0x6C, symBinAddr: 0x25C78, symSize: 0x24 }
  - { offset: 0x6C502, size: 0x8, addend: 0x0, symName: '__ZN87_$LT$serde_core..de..ignored_any..IgnoredAny$u20$as$u20$serde_core..de..Deserialize$GT$11deserialize17hd8ff218ec05750f0E', symObjAddr: 0x0, symBinAddr: 0x25D90, symSize: 0x24 }
  - { offset: 0x6C788, size: 0x8, addend: 0x0, symName: '__ZN87_$LT$serde_core..de..ignored_any..IgnoredAny$u20$as$u20$serde_core..de..Deserialize$GT$11deserialize17hd8ff218ec05750f0E', symObjAddr: 0x0, symBinAddr: 0x25D90, symSize: 0x24 }
  - { offset: 0x6CE14, size: 0x8, addend: 0x0, symName: '__ZN110_$LT$core..iter..adapters..enumerate..Enumerate$LT$I$GT$$u20$as$u20$core..iter..traits..iterator..Iterator$GT$4next17h0b484e3b4108c5dbE', symObjAddr: 0x0, symBinAddr: 0x25DB4, symSize: 0xE0 }
  - { offset: 0x6E789, size: 0x8, addend: 0x0, symName: '__ZN110_$LT$core..iter..adapters..enumerate..Enumerate$LT$I$GT$$u20$as$u20$core..iter..traits..iterator..Iterator$GT$4next17h0b484e3b4108c5dbE', symObjAddr: 0x0, symBinAddr: 0x25DB4, symSize: 0xE0 }
  - { offset: 0x6E86F, size: 0x8, addend: 0x0, symName: '__ZN110_$LT$core..iter..adapters..enumerate..Enumerate$LT$I$GT$$u20$as$u20$core..iter..traits..iterator..Iterator$GT$4next17h2dcf0a33fd2f7407E', symObjAddr: 0xE0, symBinAddr: 0x25E94, symSize: 0xE0 }
  - { offset: 0x6E955, size: 0x8, addend: 0x0, symName: '__ZN110_$LT$core..iter..adapters..enumerate..Enumerate$LT$I$GT$$u20$as$u20$core..iter..traits..iterator..Iterator$GT$4next17h6c4a410085bef9feE', symObjAddr: 0x1C0, symBinAddr: 0x25F74, symSize: 0xE0 }
  - { offset: 0x6EA3B, size: 0x8, addend: 0x0, symName: '__ZN110_$LT$core..iter..adapters..enumerate..Enumerate$LT$I$GT$$u20$as$u20$core..iter..traits..iterator..Iterator$GT$4next17h6f7efe70fb718f08E', symObjAddr: 0x2A0, symBinAddr: 0x26054, symSize: 0xEC }
  - { offset: 0x6EC0B, size: 0x8, addend: 0x0, symName: '__ZN63_$LT$I$u20$as$u20$core..iter..traits..collect..IntoIterator$GT$9into_iter17hdec57aa40732a4ccE', symObjAddr: 0x38C, symBinAddr: 0x26140, symSize: 0x30 }
  - { offset: 0x6EC43, size: 0x8, addend: 0x0, symName: '__ZN63_$LT$I$u20$as$u20$core..iter..traits..collect..IntoIterator$GT$9into_iter17hffed2c83bd42cca6E', symObjAddr: 0x3BC, symBinAddr: 0x26170, symSize: 0x30 }
  - { offset: 0x6F6D7, size: 0x8, addend: 0x0, symName: '__ZN102_$LT$core..iter..adapters..map..Map$LT$I$C$F$GT$$u20$as$u20$core..iter..traits..iterator..Iterator$GT$4next17h0954d27ac1c7c87bE', symObjAddr: 0x0, symBinAddr: 0x261A0, symSize: 0x90 }
  - { offset: 0x71262, size: 0x8, addend: 0x0, symName: '__ZN102_$LT$core..iter..adapters..map..Map$LT$I$C$F$GT$$u20$as$u20$core..iter..traits..iterator..Iterator$GT$4next17h0954d27ac1c7c87bE', symObjAddr: 0x0, symBinAddr: 0x261A0, symSize: 0x90 }
  - { offset: 0x712FE, size: 0x8, addend: 0x0, symName: '__ZN102_$LT$core..iter..adapters..map..Map$LT$I$C$F$GT$$u20$as$u20$core..iter..traits..iterator..Iterator$GT$4next17h4701b44a10aa2755E', symObjAddr: 0x90, symBinAddr: 0x26230, symSize: 0xA0 }
  - { offset: 0x7139B, size: 0x8, addend: 0x0, symName: '__ZN102_$LT$core..iter..adapters..map..Map$LT$I$C$F$GT$$u20$as$u20$core..iter..traits..iterator..Iterator$GT$4next17h96a06b24c5f638adE', symObjAddr: 0x130, symBinAddr: 0x262D0, symSize: 0xA8 }
  - { offset: 0x71439, size: 0x8, addend: 0x0, symName: '__ZN102_$LT$core..iter..adapters..map..Map$LT$I$C$F$GT$$u20$as$u20$core..iter..traits..iterator..Iterator$GT$4next17hde1bd717f3005f21E', symObjAddr: 0x1D8, symBinAddr: 0x26378, symSize: 0xA8 }
  - { offset: 0x714D7, size: 0x8, addend: 0x0, symName: '__ZN102_$LT$core..iter..adapters..map..Map$LT$I$C$F$GT$$u20$as$u20$core..iter..traits..iterator..Iterator$GT$8try_fold17h07f6c58fa1b725c1E', symObjAddr: 0x280, symBinAddr: 0x26420, symSize: 0x4C }
  - { offset: 0x71555, size: 0x8, addend: 0x0, symName: '__ZN102_$LT$core..iter..adapters..map..Map$LT$I$C$F$GT$$u20$as$u20$core..iter..traits..iterator..Iterator$GT$8try_fold17h0a454cf87a3b170eE', symObjAddr: 0x2CC, symBinAddr: 0x2646C, symSize: 0x34 }
  - { offset: 0x715D3, size: 0x8, addend: 0x0, symName: '__ZN102_$LT$core..iter..adapters..map..Map$LT$I$C$F$GT$$u20$as$u20$core..iter..traits..iterator..Iterator$GT$8try_fold17h70923d303fd35ce3E', symObjAddr: 0x300, symBinAddr: 0x264A0, symSize: 0x34 }
  - { offset: 0x71651, size: 0x8, addend: 0x0, symName: '__ZN102_$LT$core..iter..adapters..map..Map$LT$I$C$F$GT$$u20$as$u20$core..iter..traits..iterator..Iterator$GT$8try_fold17h95c70309ab8ee4aaE', symObjAddr: 0x334, symBinAddr: 0x264D4, symSize: 0x34 }
  - { offset: 0x716CF, size: 0x8, addend: 0x0, symName: '__ZN102_$LT$core..iter..adapters..map..Map$LT$I$C$F$GT$$u20$as$u20$core..iter..traits..iterator..Iterator$GT$8try_fold17hadf9dee46efe78f5E', symObjAddr: 0x368, symBinAddr: 0x26508, symSize: 0x34 }
  - { offset: 0x7174D, size: 0x8, addend: 0x0, symName: '__ZN102_$LT$core..iter..adapters..map..Map$LT$I$C$F$GT$$u20$as$u20$core..iter..traits..iterator..Iterator$GT$8try_fold17hb4529bd70f2ad044E', symObjAddr: 0x39C, symBinAddr: 0x2653C, symSize: 0x4C }
  - { offset: 0x717CB, size: 0x8, addend: 0x0, symName: '__ZN102_$LT$core..iter..adapters..map..Map$LT$I$C$F$GT$$u20$as$u20$core..iter..traits..iterator..Iterator$GT$9size_hint17h1e95cd5ec162cb34E', symObjAddr: 0x3E8, symBinAddr: 0x26588, symSize: 0x24 }
  - { offset: 0x71812, size: 0x8, addend: 0x0, symName: '__ZN102_$LT$core..iter..adapters..map..Map$LT$I$C$F$GT$$u20$as$u20$core..iter..traits..iterator..Iterator$GT$9size_hint17h3a5944762f6c511cE', symObjAddr: 0x40C, symBinAddr: 0x265AC, symSize: 0x24 }
  - { offset: 0x71859, size: 0x8, addend: 0x0, symName: '__ZN102_$LT$core..iter..adapters..map..Map$LT$I$C$F$GT$$u20$as$u20$core..iter..traits..iterator..Iterator$GT$9size_hint17h5c41d8b6a77eb2a4E', symObjAddr: 0x430, symBinAddr: 0x265D0, symSize: 0x24 }
  - { offset: 0x718A0, size: 0x8, addend: 0x0, symName: '__ZN102_$LT$core..iter..adapters..map..Map$LT$I$C$F$GT$$u20$as$u20$core..iter..traits..iterator..Iterator$GT$9size_hint17heb26639f4c8028a6E', symObjAddr: 0x454, symBinAddr: 0x265F4, symSize: 0x24 }
  - { offset: 0x718ED, size: 0x8, addend: 0x0, symName: '__ZN113_$LT$core..iter..adapters..map..Map$LT$I$C$F$GT$$u20$as$u20$core..iter..traits..exact_size..ExactSizeIterator$GT$3len17h1025a7554dc0a190E', symObjAddr: 0x478, symBinAddr: 0x26618, symSize: 0x24 }
  - { offset: 0x71934, size: 0x8, addend: 0x0, symName: '__ZN113_$LT$core..iter..adapters..map..Map$LT$I$C$F$GT$$u20$as$u20$core..iter..traits..exact_size..ExactSizeIterator$GT$3len17h17130d451b3aa75dE', symObjAddr: 0x49C, symBinAddr: 0x2663C, symSize: 0x24 }
  - { offset: 0x7197B, size: 0x8, addend: 0x0, symName: '__ZN113_$LT$core..iter..adapters..map..Map$LT$I$C$F$GT$$u20$as$u20$core..iter..traits..exact_size..ExactSizeIterator$GT$3len17he5aa83a3cb3bab6cE', symObjAddr: 0x4C0, symBinAddr: 0x26660, symSize: 0x24 }
  - { offset: 0x719C2, size: 0x8, addend: 0x0, symName: '__ZN113_$LT$core..iter..adapters..map..Map$LT$I$C$F$GT$$u20$as$u20$core..iter..traits..exact_size..ExactSizeIterator$GT$3len17hfea278a5bf6e0bf1E', symObjAddr: 0x4E4, symBinAddr: 0x26684, symSize: 0x24 }
  - { offset: 0x71A09, size: 0x8, addend: 0x0, symName: '__ZN113_$LT$core..iter..adapters..map..Map$LT$I$C$F$GT$$u20$as$u20$core..iter..traits..exact_size..ExactSizeIterator$GT$8is_empty17h080bd5580db70f3fE', symObjAddr: 0x508, symBinAddr: 0x266A8, symSize: 0x24 }
  - { offset: 0x71A50, size: 0x8, addend: 0x0, symName: '__ZN113_$LT$core..iter..adapters..map..Map$LT$I$C$F$GT$$u20$as$u20$core..iter..traits..exact_size..ExactSizeIterator$GT$8is_empty17h2975534ad58e9eceE', symObjAddr: 0x52C, symBinAddr: 0x266CC, symSize: 0x24 }
  - { offset: 0x71A97, size: 0x8, addend: 0x0, symName: '__ZN113_$LT$core..iter..adapters..map..Map$LT$I$C$F$GT$$u20$as$u20$core..iter..traits..exact_size..ExactSizeIterator$GT$8is_empty17h540b9e7da5a7b7f5E', symObjAddr: 0x550, symBinAddr: 0x266F0, symSize: 0x24 }
  - { offset: 0x71ADE, size: 0x8, addend: 0x0, symName: '__ZN113_$LT$core..iter..adapters..map..Map$LT$I$C$F$GT$$u20$as$u20$core..iter..traits..exact_size..ExactSizeIterator$GT$8is_empty17h6e350429f18b59c7E', symObjAddr: 0x574, symBinAddr: 0x26714, symSize: 0x24 }
  - { offset: 0x71B2B, size: 0x8, addend: 0x0, symName: '__ZN4core4iter8adapters3map12map_try_fold28_$u7b$$u7b$closure$u7d$$u7d$17h544b79c6c6a77869E', symObjAddr: 0x800, symBinAddr: 0x269A0, symSize: 0xB8 }
  - { offset: 0x71BBE, size: 0x8, addend: 0x0, symName: '__ZN4core4iter8adapters3map12map_try_fold28_$u7b$$u7b$closure$u7d$$u7d$17h576529fb5b764664E', symObjAddr: 0x8B8, symBinAddr: 0x26A58, symSize: 0x118 }
  - { offset: 0x71C51, size: 0x8, addend: 0x0, symName: '__ZN4core4iter8adapters3map12map_try_fold28_$u7b$$u7b$closure$u7d$$u7d$17h8e7a5ae515da7849E', symObjAddr: 0x9D0, symBinAddr: 0x26B70, symSize: 0xA4 }
  - { offset: 0x71CE4, size: 0x8, addend: 0x0, symName: '__ZN4core4iter8adapters3map12map_try_fold28_$u7b$$u7b$closure$u7d$$u7d$17h9597d241d049cce9E', symObjAddr: 0xA74, symBinAddr: 0x26C14, symSize: 0xB8 }
  - { offset: 0x71D77, size: 0x8, addend: 0x0, symName: '__ZN4core4iter8adapters3map12map_try_fold28_$u7b$$u7b$closure$u7d$$u7d$17h9eb3074ef0a09398E', symObjAddr: 0xB2C, symBinAddr: 0x26CCC, symSize: 0x118 }
  - { offset: 0x71E0A, size: 0x8, addend: 0x0, symName: '__ZN4core4iter8adapters3map12map_try_fold28_$u7b$$u7b$closure$u7d$$u7d$17heb74235260cf9403E', symObjAddr: 0xC44, symBinAddr: 0x26DE4, symSize: 0xB8 }
  - { offset: 0x71EA3, size: 0x8, addend: 0x0, symName: '__ZN96_$LT$core..iter..adapters..map..Map$LT$I$C$F$GT$$u20$as$u20$core..iter..adapters..SourceIter$GT$8as_inner17h1d5b85af06544f65E', symObjAddr: 0x10C4, symBinAddr: 0x27264, symSize: 0x24 }
  - { offset: 0x71EE1, size: 0x8, addend: 0x0, symName: '__ZN96_$LT$core..iter..adapters..map..Map$LT$I$C$F$GT$$u20$as$u20$core..iter..adapters..SourceIter$GT$8as_inner17h427354e641f7bfbfE', symObjAddr: 0x10E8, symBinAddr: 0x27288, symSize: 0x24 }
  - { offset: 0x72063, size: 0x8, addend: 0x0, symName: __ZN4core4iter6traits8iterator8Iterator10advance_by17h03606136d3ed708fE, symObjAddr: 0x598, symBinAddr: 0x26738, symSize: 0x28 }
  - { offset: 0x720A9, size: 0x8, addend: 0x0, symName: __ZN4core4iter6traits8iterator8Iterator10advance_by17h6694fb276ace3556E, symObjAddr: 0x5C0, symBinAddr: 0x26760, symSize: 0x28 }
  - { offset: 0x720EF, size: 0x8, addend: 0x0, symName: __ZN4core4iter6traits8iterator8Iterator10advance_by17hb23d982b93240004E, symObjAddr: 0x5E8, symBinAddr: 0x26788, symSize: 0x28 }
  - { offset: 0x72135, size: 0x8, addend: 0x0, symName: __ZN4core4iter6traits8iterator8Iterator10advance_by17he3e0b4c3f759ce05E, symObjAddr: 0x610, symBinAddr: 0x267B0, symSize: 0x28 }
  - { offset: 0x7217B, size: 0x8, addend: 0x0, symName: __ZN4core4iter6traits8iterator8Iterator3nth17h0aaafe3e03f9945fE, symObjAddr: 0x638, symBinAddr: 0x267D8, symSize: 0x68 }
  - { offset: 0x72225, size: 0x8, addend: 0x0, symName: __ZN4core4iter6traits8iterator8Iterator3nth17h2a57359b1ceed7f7E, symObjAddr: 0x6A0, symBinAddr: 0x26840, symSize: 0x68 }
  - { offset: 0x722CF, size: 0x8, addend: 0x0, symName: __ZN4core4iter6traits8iterator8Iterator3nth17h5564ae0258e65d1dE, symObjAddr: 0x708, symBinAddr: 0x268A8, symSize: 0x68 }
  - { offset: 0x72379, size: 0x8, addend: 0x0, symName: __ZN4core4iter6traits8iterator8Iterator3nth17hef6dfe14e57deb8bE, symObjAddr: 0x770, symBinAddr: 0x26910, symSize: 0x68 }
  - { offset: 0x72423, size: 0x8, addend: 0x0, symName: __ZN4core4iter6traits8iterator8Iterator7collect17h03f2681715b9ae56E, symObjAddr: 0x7D8, symBinAddr: 0x26978, symSize: 0x14 }
  - { offset: 0x72464, size: 0x8, addend: 0x0, symName: __ZN4core4iter6traits8iterator8Iterator7collect17h0b73d7b361acdee6E, symObjAddr: 0x7EC, symBinAddr: 0x2698C, symSize: 0x14 }
  - { offset: 0x724AF, size: 0x8, addend: 0x0, symName: '__ZN87_$LT$I$u20$as$u20$core..iter..traits..iterator..Iterator..advance_by..SpecAdvanceBy$GT$15spec_advance_by17h2c94d7fec9904158E', symObjAddr: 0xE94, symBinAddr: 0x27034, symSize: 0x8C }
  - { offset: 0x7255D, size: 0x8, addend: 0x0, symName: '__ZN87_$LT$I$u20$as$u20$core..iter..traits..iterator..Iterator..advance_by..SpecAdvanceBy$GT$15spec_advance_by17h99339bb2da00bd20E', symObjAddr: 0xF20, symBinAddr: 0x270C0, symSize: 0x8C }
  - { offset: 0x7260B, size: 0x8, addend: 0x0, symName: '__ZN87_$LT$I$u20$as$u20$core..iter..traits..iterator..Iterator..advance_by..SpecAdvanceBy$GT$15spec_advance_by17hbad6a570abfccb87E', symObjAddr: 0xFAC, symBinAddr: 0x2714C, symSize: 0x8C }
  - { offset: 0x726B9, size: 0x8, addend: 0x0, symName: '__ZN87_$LT$I$u20$as$u20$core..iter..traits..iterator..Iterator..advance_by..SpecAdvanceBy$GT$15spec_advance_by17hbbd89339dcda755bE', symObjAddr: 0x1038, symBinAddr: 0x271D8, symSize: 0x8C }
  - { offset: 0x72797, size: 0x8, addend: 0x0, symName: '__ZN63_$LT$I$u20$as$u20$core..iter..traits..collect..IntoIterator$GT$9into_iter17h16cfcfabbdafa15bE', symObjAddr: 0xCFC, symBinAddr: 0x26E9C, symSize: 0x14 }
  - { offset: 0x727CE, size: 0x8, addend: 0x0, symName: '__ZN63_$LT$I$u20$as$u20$core..iter..traits..collect..IntoIterator$GT$9into_iter17ha05231c72071293cE', symObjAddr: 0xD10, symBinAddr: 0x26EB0, symSize: 0x14 }
  - { offset: 0x72C48, size: 0x8, addend: 0x0, symName: '__ZN83_$LT$I$u20$as$u20$alloc..vec..in_place_collect..SpecInPlaceCollect$LT$T$C$I$GT$$GT$16collect_in_place17h03851d1ea2406402E', symObjAddr: 0xD24, symBinAddr: 0x26EC4, symSize: 0xB8 }
  - { offset: 0x72D7C, size: 0x8, addend: 0x0, symName: '__ZN83_$LT$I$u20$as$u20$alloc..vec..in_place_collect..SpecInPlaceCollect$LT$T$C$I$GT$$GT$16collect_in_place17h9d71e99765cff682E', symObjAddr: 0xDDC, symBinAddr: 0x26F7C, symSize: 0xB8 }
  - { offset: 0x742BF, size: 0x8, addend: 0x0, symName: __ZN4core9core_arch10arm_shared4neon9generated18vreinterpret_s8_u817h9297ea1ea62cd87fE, symObjAddr: 0x0, symBinAddr: 0x272AC, symSize: 0xC }
  - { offset: 0x742E5, size: 0x8, addend: 0x0, symName: __ZN4core9core_arch10arm_shared4neon9generated18vreinterpret_s8_u817h9297ea1ea62cd87fE, symObjAddr: 0x0, symBinAddr: 0x272AC, symSize: 0xC }
  - { offset: 0x74313, size: 0x8, addend: 0x0, symName: __ZN4core9core_arch10arm_shared4neon9generated19vreinterpret_u64_u817h4ba79673bdb4141eE, symObjAddr: 0xC, symBinAddr: 0x272B8, symSize: 0xC }
  - { offset: 0x743E6, size: 0x8, addend: 0x0, symName: __ZN8pyo3_ffi10boolobject7Py_True17h89d319c0b4a360afE, symObjAddr: 0x0, symBinAddr: 0x272C4, symSize: 0xC }
  - { offset: 0x74481, size: 0x8, addend: 0x0, symName: __ZN8pyo3_ffi10boolobject7Py_True17h89d319c0b4a360afE, symObjAddr: 0x0, symBinAddr: 0x272C4, symSize: 0xC }
  - { offset: 0x7449E, size: 0x8, addend: 0x0, symName: __ZN8pyo3_ffi10boolobject8Py_False17h8cc82f230d8aa2f0E, symObjAddr: 0xC, symBinAddr: 0x272D0, symSize: 0xC }
  - { offset: 0x75916, size: 0x8, addend: 0x0, symName: __ZN4pyo33err5PyErr3new17h497a8323c7da9b1eE, symObjAddr: 0x0, symBinAddr: 0x272DC, symSize: 0x98 }
  - { offset: 0x7596B, size: 0x8, addend: 0x0, symName: '__ZN4pyo33err5PyErr3new28_$u7b$$u7b$closure$u7d$$u7d$17h38bccc34b1bd1d41E', symObjAddr: 0x134, symBinAddr: 0x27410, symSize: 0xC0 }
  - { offset: 0x759C3, size: 0x8, addend: 0x0, symName: '__ZN4pyo33err5PyErr3new28_$u7b$$u7b$closure$u7d$$u7d$17hd042380d6e6b1f73E', symObjAddr: 0x1F4, symBinAddr: 0x274D0, symSize: 0xD4 }
  - { offset: 0x76868, size: 0x8, addend: 0x0, symName: '__ZN50_$LT$T$u20$as$u20$core..convert..Into$LT$U$GT$$GT$4into17he03d1240506c4c71E', symObjAddr: 0x2C8, symBinAddr: 0x275A4, symSize: 0x18 }
  - { offset: 0x7752C, size: 0x8, addend: 0x0, symName: __ZN4pyo33err5PyErr3new17h497a8323c7da9b1eE, symObjAddr: 0x0, symBinAddr: 0x272DC, symSize: 0x98 }
  - { offset: 0x7758A, size: 0x8, addend: 0x0, symName: __ZN4pyo33err5PyErr3new17hbcc7f8d3f78b3ab6E, symObjAddr: 0x98, symBinAddr: 0x27374, symSize: 0x9C }
  - { offset: 0x77632, size: 0x8, addend: 0x0, symName: __ZN4core5slice3raw14from_raw_parts17h068a88836b2b28b6E, symObjAddr: 0x0, symBinAddr: 0x275BC, symSize: 0x58 }
  - { offset: 0x77E0F, size: 0x8, addend: 0x0, symName: __ZN4core5slice3raw14from_raw_parts17h068a88836b2b28b6E, symObjAddr: 0x0, symBinAddr: 0x275BC, symSize: 0x58 }
  - { offset: 0x77E52, size: 0x8, addend: 0x0, symName: __ZN4core5slice3raw14from_raw_parts17h6ce5b750d2ef13adE, symObjAddr: 0x58, symBinAddr: 0x27614, symSize: 0x58 }
  - { offset: 0x78EA6, size: 0x8, addend: 0x0, symName: '__ZN102_$LT$core..iter..adapters..zip..Zip$LT$A$C$B$GT$$u20$as$u20$core..iter..traits..iterator..Iterator$GT$4next17hb1d87058140b753cE', symObjAddr: 0x0, symBinAddr: 0x2766C, symSize: 0x24 }
  - { offset: 0x7968D, size: 0x8, addend: 0x0, symName: '__ZN102_$LT$core..iter..adapters..zip..Zip$LT$A$C$B$GT$$u20$as$u20$core..iter..traits..iterator..Iterator$GT$4next17hb1d87058140b753cE', symObjAddr: 0x0, symBinAddr: 0x2766C, symSize: 0x24 }
  - { offset: 0x796D1, size: 0x8, addend: 0x0, symName: '__ZN111_$LT$core..iter..adapters..zip..Zip$LT$A$C$B$GT$$u20$as$u20$core..iter..adapters..zip..ZipImpl$LT$A$C$B$GT$$GT$3new17hefe2646fa00f7eeeE', symObjAddr: 0x24, symBinAddr: 0x27690, symSize: 0x3C }
  - { offset: 0x7971D, size: 0x8, addend: 0x0, symName: '__ZN111_$LT$core..iter..adapters..zip..Zip$LT$A$C$B$GT$$u20$as$u20$core..iter..adapters..zip..ZipImpl$LT$A$C$B$GT$$GT$4next17hafac7f4de340e14aE', symObjAddr: 0x60, symBinAddr: 0x276CC, symSize: 0xE0 }
  - { offset: 0x7994A, size: 0x8, addend: 0x0, symName: '__ZN63_$LT$I$u20$as$u20$core..iter..traits..collect..IntoIterator$GT$9into_iter17h72ed847487be3bb1E', symObjAddr: 0x140, symBinAddr: 0x277AC, symSize: 0x30 }
  - { offset: 0x79982, size: 0x8, addend: 0x0, symName: '__ZN63_$LT$I$u20$as$u20$core..iter..traits..collect..IntoIterator$GT$9into_iter17hdb4896b425b76a3bE', symObjAddr: 0x170, symBinAddr: 0x277DC, symSize: 0x30 }
  - { offset: 0x7AE07, size: 0x8, addend: 0x0, symName: '__ZN4pyo311conversions3std6string80_$LT$impl$u20$pyo3..conversion..ToPyObject$u20$for$u20$alloc..string..String$GT$9to_object17hc7eda7673e7859e0E', symObjAddr: 0x0, symBinAddr: 0x2780C, symSize: 0x34 }
  - { offset: 0x7C2E9, size: 0x8, addend: 0x0, symName: '__ZN4pyo311conversions3std6string80_$LT$impl$u20$pyo3..conversion..ToPyObject$u20$for$u20$alloc..string..String$GT$9to_object17hc7eda7673e7859e0E', symObjAddr: 0x0, symBinAddr: 0x2780C, symSize: 0x34 }
  - { offset: 0x7C423, size: 0x8, addend: 0x0, symName: '__ZN58_$LT$alloc..string..String$u20$as$u20$core..fmt..Write$GT$10write_char17hf703125b789b0554E', symObjAddr: 0x34, symBinAddr: 0x27840, symSize: 0x30 }
  - { offset: 0x7C460, size: 0x8, addend: 0x0, symName: '__ZN58_$LT$alloc..string..String$u20$as$u20$core..fmt..Write$GT$9write_str17he080a452810d3909E', symObjAddr: 0x64, symBinAddr: 0x27870, symSize: 0x38 }
  - { offset: 0x7C529, size: 0x8, addend: 0x0, symName: '__ZN65_$LT$alloc..string..String$u20$as$u20$core..ops..deref..Deref$GT$5deref17hc28011415c599e2fE', symObjAddr: 0x270, symBinAddr: 0x27A7C, symSize: 0x24 }
  - { offset: 0x7C9D3, size: 0x8, addend: 0x0, symName: __ZN5alloc6string6String4push17heb21dbcd3cb4313cE, symObjAddr: 0x9C, symBinAddr: 0x278A8, symSize: 0x114 }
  - { offset: 0x7CCF9, size: 0x8, addend: 0x0, symName: __ZN5alloc6string6String6as_str17h92563f3da78044e9E, symObjAddr: 0x1B0, symBinAddr: 0x279BC, symSize: 0x70 }
  - { offset: 0x7CEC7, size: 0x8, addend: 0x0, symName: __ZN5alloc6string6String8push_str17h509fef326a02007eE, symObjAddr: 0x220, symBinAddr: 0x27A2C, symSize: 0x50 }
  - { offset: 0x7D4C0, size: 0x8, addend: 0x0, symName: __ZN10serde_core2de7Visitor18visit_borrowed_str17h5fd742dafaf490ebE, symObjAddr: 0x0, symBinAddr: 0x27AA0, symSize: 0x28 }
  - { offset: 0x7D569, size: 0x8, addend: 0x0, symName: '__ZN183_$LT$sekejap..vector..hnsw.._..$LT$impl$u20$serde_core..de..Deserialize$u20$for$u20$sekejap..vector..hnsw..HnswGraph$GT$..deserialize..__Visitor$u20$as$u20$serde_core..de..Visitor$GT$9visit_map17hcf651957c3c14467E', symObjAddr: 0x28, symBinAddr: 0x27AC8, symSize: 0xAB4 }
  - { offset: 0x7D8F2, size: 0x8, addend: 0x0, symName: '__ZN183_$LT$sekejap..vector..hnsw.._..$LT$impl$u20$serde_core..de..Deserialize$u20$for$u20$sekejap..vector..hnsw..HnswGraph$GT$..deserialize..__Visitor$u20$as$u20$serde_core..de..Visitor$GT$9visit_seq17h500ece2fc2d2eaf2E', symObjAddr: 0xADC, symBinAddr: 0x2857C, symSize: 0x4C4 }
  - { offset: 0x7DA45, size: 0x8, addend: 0x0, symName: '__ZN185_$LT$sekejap..vector..hnsw.._..$LT$impl$u20$serde_core..de..Deserialize$u20$for$u20$sekejap..vector..hnsw..HnswGraph$GT$..deserialize..__Field$u20$as$u20$serde_core..de..Deserialize$GT$11deserialize17h5a4fb7e0b9828f8aE', symObjAddr: 0xFA0, symBinAddr: 0x28A40, symSize: 0x24 }
  - { offset: 0x7DA80, size: 0x8, addend: 0x0, symName: '__ZN188_$LT$sekejap..vector..hnsw.._..$LT$impl$u20$serde_core..de..Deserialize$u20$for$u20$sekejap..vector..hnsw..HnswGraph$GT$..deserialize..__FieldVisitor$u20$as$u20$serde_core..de..Visitor$GT$9visit_str17h39aab271a6bc508cE', symObjAddr: 0xFC4, symBinAddr: 0x28A64, symSize: 0x150 }
  - { offset: 0x7DAF9, size: 0x8, addend: 0x0, symName: '__ZN7sekejap6vector4hnsw1_90_$LT$impl$u20$serde_core..de..Deserialize$u20$for$u20$sekejap..vector..hnsw..HnswGraph$GT$11deserialize17hd4fbe269bda673d7E', symObjAddr: 0x1140, symBinAddr: 0x28BE0, symSize: 0x48 }
  - { offset: 0x7DB2E, size: 0x8, addend: 0x0, symName: '__ZN7sekejap6vector4hnsw1_90_$LT$impl$u20$serde_core..de..Deserialize$u20$for$u20$sekejap..vector..hnsw..HnswGraph$GT$11deserialize17hf337ce855a2c76d6E', symObjAddr: 0x1188, symBinAddr: 0x28C28, symSize: 0x44 }
  - { offset: 0x7DE89, size: 0x8, addend: 0x0, symName: __ZN10serde_core2de7Visitor18visit_borrowed_str17h5fd742dafaf490ebE, symObjAddr: 0x0, symBinAddr: 0x27AA0, symSize: 0x28 }
  - { offset: 0x7DEDE, size: 0x8, addend: 0x0, symName: '__ZN46_$LT$T$u20$as$u20$serde_core..de..Expected$GT$3fmt17h660ec87ae3e9a46eE', symObjAddr: 0x1114, symBinAddr: 0x28BB4, symSize: 0x2C }
  - { offset: 0x7EC7F, size: 0x8, addend: 0x0, symName: __ZN4pyo33err5PyErr10from_state17h121571fc2461c827E, symObjAddr: 0x0, symBinAddr: 0x28C6C, symSize: 0x44 }
  - { offset: 0x805F5, size: 0x8, addend: 0x0, symName: __ZN4pyo33err5PyErr10from_state17h121571fc2461c827E, symObjAddr: 0x0, symBinAddr: 0x28C6C, symSize: 0x44 }
  - { offset: 0x8067B, size: 0x8, addend: 0x0, symName: __ZN4pyo33err5PyErr22write_unraisable_bound17hb7488ecd5bb9b04fE, symObjAddr: 0x44, symBinAddr: 0x28CB0, symSize: 0x4C }
  - { offset: 0x806E5, size: 0x8, addend: 0x0, symName: __ZN4pyo33err5PyErr7restore17hce3098149dae02c0E, symObjAddr: 0x90, symBinAddr: 0x28CFC, symSize: 0x68 }
  - { offset: 0x80760, size: 0x8, addend: 0x0, symName: __ZN3std2fs10DirBuilder6create17hc3decdb841bc96e2E, symObjAddr: 0x0, symBinAddr: 0x28D64, symSize: 0x74 }
  - { offset: 0x80A3F, size: 0x8, addend: 0x0, symName: __ZN3std2fs14create_dir_all17ha8443a4947e90ee0E, symObjAddr: 0x74, symBinAddr: 0x28DD8, symSize: 0x84 }
  - { offset: 0x80AA1, size: 0x8, addend: 0x0, symName: __ZN3std2fs4read17h261b264b941da164E, symObjAddr: 0xF8, symBinAddr: 0x28E5C, symSize: 0x64 }
  - { offset: 0x80E73, size: 0x8, addend: 0x0, symName: __ZN3std2fs10DirBuilder6create17hc3decdb841bc96e2E, symObjAddr: 0x0, symBinAddr: 0x28D64, symSize: 0x74 }
  - { offset: 0x80FD5, size: 0x8, addend: 0x0, symName: '__ZN4core3ptr8non_null16NonNull$LT$T$GT$13new_unchecked18precondition_check17h2e8bb2dccfa22a10E', symObjAddr: 0x0, symBinAddr: 0x28EC0, symSize: 0x58 }
  - { offset: 0x80FFB, size: 0x8, addend: 0x0, symName: '__ZN4core3ptr8non_null16NonNull$LT$T$GT$13new_unchecked18precondition_check17h2e8bb2dccfa22a10E', symObjAddr: 0x0, symBinAddr: 0x28EC0, symSize: 0x58 }
  - { offset: 0x810AC, size: 0x8, addend: 0x0, symName: '__ZN4core7convert3num18ptr_try_from_impls69_$LT$impl$u20$core..convert..TryFrom$LT$u64$GT$$u20$for$u20$usize$GT$8try_from17h6e005eb64d4ffe3fE', symObjAddr: 0x0, symBinAddr: 0x28F18, symSize: 0x18 }
  - { offset: 0x810D2, size: 0x8, addend: 0x0, symName: '__ZN4core7convert3num18ptr_try_from_impls69_$LT$impl$u20$core..convert..TryFrom$LT$u64$GT$$u20$for$u20$usize$GT$8try_from17h6e005eb64d4ffe3fE', symObjAddr: 0x0, symBinAddr: 0x28F18, symSize: 0x18 }
  - { offset: 0x811DF, size: 0x8, addend: 0x0, symName: __ZN4core3fmt2rt8Argument11new_display17hc71d8762c57a7885E, symObjAddr: 0x0, symBinAddr: 0x28F30, symSize: 0x2C }
  - { offset: 0x8154F, size: 0x8, addend: 0x0, symName: __ZN4core3fmt2rt8Argument11new_display17hc71d8762c57a7885E, symObjAddr: 0x0, symBinAddr: 0x28F30, symSize: 0x2C }
  - { offset: 0x8158E, size: 0x8, addend: 0x0, symName: __ZN4core3fmt2rt8Argument11new_display17hd89fc7f3a5c45fb3E, symObjAddr: 0x2C, symBinAddr: 0x28F5C, symSize: 0x2C }
  - { offset: 0x815D7, size: 0x8, addend: 0x0, symName: __ZN4core5alloc6layout6Layout25from_size_align_unchecked18precondition_check17hf0d03a9e27be591bE, symObjAddr: 0x0, symBinAddr: 0x28F88, symSize: 0x70 }
  - { offset: 0x815FD, size: 0x8, addend: 0x0, symName: __ZN4core5alloc6layout6Layout25from_size_align_unchecked18precondition_check17hf0d03a9e27be591bE, symObjAddr: 0x0, symBinAddr: 0x28F88, symSize: 0x70 }
  - { offset: 0x816A8, size: 0x8, addend: 0x0, symName: '__ZN100_$LT$pyo3..types..tuple..BorrowedTupleIterator$u20$as$u20$core..iter..traits..iterator..Iterator$GT$4next17h759b46e7ef81cfe3E', symObjAddr: 0x0, symBinAddr: 0x28FF8, symSize: 0x9C }
  - { offset: 0x8287C, size: 0x8, addend: 0x0, symName: '__ZN100_$LT$pyo3..types..tuple..BorrowedTupleIterator$u20$as$u20$core..iter..traits..iterator..Iterator$GT$4next17h759b46e7ef81cfe3E', symObjAddr: 0x0, symBinAddr: 0x28FF8, symSize: 0x9C }
  - { offset: 0x82F52, size: 0x8, addend: 0x0, symName: '__ZN7sekejap7sekejap11__pyo3_init28_$u7b$$u7b$closure$u7d$$u7d$17hb30406f752674606E', symObjAddr: 0x0, symBinAddr: 0x29094, symSize: 0x28 }
  - { offset: 0x841A2, size: 0x8, addend: 0x0, symName: '__ZN7sekejap7sekejap11__pyo3_init28_$u7b$$u7b$closure$u7d$$u7d$17hb30406f752674606E', symObjAddr: 0x0, symBinAddr: 0x29094, symSize: 0x28 }
  - { offset: 0x848D2, size: 0x8, addend: 0x0, symName: __ZN4pyo35types10typeobject6PyType22from_borrowed_type_ptr17h17aafa784ce7efa3E, symObjAddr: 0x0, symBinAddr: 0x290BC, symSize: 0x34 }
  - { offset: 0x86001, size: 0x8, addend: 0x0, symName: __ZN4pyo35types10typeobject6PyType22from_borrowed_type_ptr17h17aafa784ce7efa3E, symObjAddr: 0x0, symBinAddr: 0x290BC, symSize: 0x34 }
  - { offset: 0x8605A, size: 0x8, addend: 0x0, symName: __ZN10serde_core7private9size_hint8cautious17h18cb0110557924d7E, symObjAddr: 0x0, symBinAddr: 0x290F0, symSize: 0x84 }
  - { offset: 0x862B7, size: 0x8, addend: 0x0, symName: __ZN10serde_core7private9size_hint8cautious17h18cb0110557924d7E, symObjAddr: 0x0, symBinAddr: 0x290F0, symSize: 0x84 }
  - { offset: 0x862EC, size: 0x8, addend: 0x0, symName: __ZN10serde_core7private9size_hint8cautious17h2e78b7a383c45708E, symObjAddr: 0x84, symBinAddr: 0x29174, symSize: 0x84 }
  - { offset: 0x86321, size: 0x8, addend: 0x0, symName: __ZN10serde_core7private9size_hint8cautious17h3d8ccdebf571d705E, symObjAddr: 0x108, symBinAddr: 0x291F8, symSize: 0x84 }
  - { offset: 0x86356, size: 0x8, addend: 0x0, symName: __ZN10serde_core7private9size_hint8cautious17h6cef1306937eabfcE, symObjAddr: 0x18C, symBinAddr: 0x2927C, symSize: 0x84 }
  - { offset: 0x8638B, size: 0x8, addend: 0x0, symName: __ZN10serde_core7private9size_hint8cautious17h84ca14d9d7872038E, symObjAddr: 0x210, symBinAddr: 0x29300, symSize: 0x84 }
  - { offset: 0x863C0, size: 0x8, addend: 0x0, symName: __ZN10serde_core7private9size_hint8cautious17ha8d7d09ca5189834E, symObjAddr: 0x294, symBinAddr: 0x29384, symSize: 0x84 }
  - { offset: 0x863F5, size: 0x8, addend: 0x0, symName: __ZN10serde_core7private9size_hint8cautious17hc065c4e9b576c7daE, symObjAddr: 0x318, symBinAddr: 0x29408, symSize: 0x84 }
  - { offset: 0x8642A, size: 0x8, addend: 0x0, symName: __ZN10serde_core7private9size_hint8cautious17hd3d3fa7f1364ad4eE, symObjAddr: 0x39C, symBinAddr: 0x2948C, symSize: 0x84 }
  - { offset: 0x872BA, size: 0x8, addend: 0x0, symName: '__ZN57_$LT$T$u20$as$u20$pyo3..conversion..FromPyObjectBound$GT$20from_py_object_bound17h96cd7cb851bb55d6E', symObjAddr: 0x0, symBinAddr: 0x29510, symSize: 0x34 }
  - { offset: 0x8851C, size: 0x8, addend: 0x0, symName: '__ZN57_$LT$T$u20$as$u20$pyo3..conversion..FromPyObjectBound$GT$20from_py_object_bound17h96cd7cb851bb55d6E', symObjAddr: 0x0, symBinAddr: 0x29510, symSize: 0x34 }
  - { offset: 0x88C53, size: 0x8, addend: 0x0, symName: __ZN4pyo37pyclass18create_type_object18create_type_object17h4d705e9eaaac0a07E, symObjAddr: 0x0, symBinAddr: 0x29544, symSize: 0x164 }
  - { offset: 0x8B042, size: 0x8, addend: 0x0, symName: __ZN4pyo37pyclass18create_type_object18create_type_object17h4d705e9eaaac0a07E, symObjAddr: 0x0, symBinAddr: 0x29544, symSize: 0x164 }
  - { offset: 0x8B0A2, size: 0x8, addend: 0x0, symName: __ZN4pyo37pyclass18create_type_object18create_type_object17h9670f2c6372ee990E, symObjAddr: 0x164, symBinAddr: 0x296A8, symSize: 0x164 }
  - { offset: 0x8B102, size: 0x8, addend: 0x0, symName: __ZN4pyo37pyclass18create_type_object18create_type_object17hc63d938697911295E, symObjAddr: 0x2C8, symBinAddr: 0x2980C, symSize: 0x168 }
  - { offset: 0x8B162, size: 0x8, addend: 0x0, symName: __ZN4pyo37pyclass18create_type_object18create_type_object17hc8fd8519077f7e8eE, symObjAddr: 0x430, symBinAddr: 0x29974, symSize: 0x164 }
  - { offset: 0x8DA54, size: 0x8, addend: 0x0, symName: '__ZN104_$LT$T$u20$as$u20$pyo3..callback..IntoPyCallbackOutput$LT$$BP$mut$u20$pyo3_ffi..object..PyObject$GT$$GT$7convert17h1d7c720acba627ddE', symObjAddr: 0x0, symBinAddr: 0x29AD8, symSize: 0x48 }
  - { offset: 0x8E231, size: 0x8, addend: 0x0, symName: '__ZN50_$LT$T$u20$as$u20$core..convert..Into$LT$U$GT$$GT$4into17h0bc822902c5e57b7E', symObjAddr: 0x214, symBinAddr: 0x29CEC, symSize: 0x14 }
  - { offset: 0x8F086, size: 0x8, addend: 0x0, symName: '__ZN104_$LT$T$u20$as$u20$pyo3..callback..IntoPyCallbackOutput$LT$$BP$mut$u20$pyo3_ffi..object..PyObject$GT$$GT$7convert17h1d7c720acba627ddE', symObjAddr: 0x0, symBinAddr: 0x29AD8, symSize: 0x48 }
  - { offset: 0x8F0E6, size: 0x8, addend: 0x0, symName: '__ZN4pyo35types5tuple132_$LT$impl$u20$pyo3..conversion..IntoPy$LT$pyo3..instance..Py$LT$pyo3..types..any..PyAny$GT$$GT$$u20$for$u20$$LP$T0$C$T1$C$T2$RP$$GT$7into_py17h8c1d55117bb5b653E', symObjAddr: 0x90, symBinAddr: 0x29B68, symSize: 0x184 }
  - { offset: 0x8F314, size: 0x8, addend: 0x0, symName: '__ZN10serde_core2de5impls79_$LT$impl$u20$serde_core..de..Deserialize$u20$for$u20$alloc..string..String$GT$11deserialize17h66d30d52e921ec1fE', symObjAddr: 0x48, symBinAddr: 0x29B20, symSize: 0x24 }
  - { offset: 0x8F34B, size: 0x8, addend: 0x0, symName: '__ZN10serde_core2de5impls79_$LT$impl$u20$serde_core..de..Deserialize$u20$for$u20$alloc..string..String$GT$11deserialize17h819e09b6b1f22e4cE', symObjAddr: 0x6C, symBinAddr: 0x29B44, symSize: 0x24 }
  - { offset: 0x8FDA7, size: 0x8, addend: 0x0, symName: __ZN8pyo3_ffi7cpython11tupleobject16PyTuple_SET_ITEM17ha13439d5ae0f81ceE, symObjAddr: 0x0, symBinAddr: 0x29D00, symSize: 0x118 }
  - { offset: 0x90389, size: 0x8, addend: 0x0, symName: __ZN8pyo3_ffi7cpython11tupleobject16PyTuple_SET_ITEM17ha13439d5ae0f81ceE, symObjAddr: 0x0, symBinAddr: 0x29D00, symSize: 0x118 }
  - { offset: 0x9134B, size: 0x8, addend: 0x0, symName: '__ZN103_$LT$alloc..vec..into_iter..IntoIter$LT$T$C$A$GT$$u20$as$u20$core..iter..traits..iterator..Iterator$GT$4next17h41f46b62d12594c2E', symObjAddr: 0x0, symBinAddr: 0x29E18, symSize: 0xBC }
  - { offset: 0x93F6B, size: 0x8, addend: 0x0, symName: __ZN4core4iter6traits10exact_size17ExactSizeIterator3len17h4f501b9ec74021b2E, symObjAddr: 0xF68, symBinAddr: 0x2AD80, symSize: 0xB8 }
  - { offset: 0x94037, size: 0x8, addend: 0x0, symName: __ZN4core4iter6traits10exact_size17ExactSizeIterator3len17h5d93ac3cada510e2E, symObjAddr: 0x1020, symBinAddr: 0x2AE38, symSize: 0xB8 }
  - { offset: 0x94103, size: 0x8, addend: 0x0, symName: __ZN4core4iter6traits10exact_size17ExactSizeIterator3len17hccb3f270243e1284E, symObjAddr: 0x10D8, symBinAddr: 0x2AEF0, symSize: 0xB8 }
  - { offset: 0x941CF, size: 0x8, addend: 0x0, symName: __ZN4core4iter6traits10exact_size17ExactSizeIterator3len17hf25f36a10bc780e9E, symObjAddr: 0x1190, symBinAddr: 0x2AFA8, symSize: 0xB8 }
  - { offset: 0x944DD, size: 0x8, addend: 0x0, symName: __ZN4core4iter6traits8iterator8Iterator3map17h1ba1893bd662916eE, symObjAddr: 0x1248, symBinAddr: 0x2B060, symSize: 0x1C }
  - { offset: 0x9454A, size: 0x8, addend: 0x0, symName: __ZN4core4iter6traits8iterator8Iterator3map17h3c7e1bb5ff43b8acE, symObjAddr: 0x1264, symBinAddr: 0x2B07C, symSize: 0x1C }
  - { offset: 0x945B7, size: 0x8, addend: 0x0, symName: __ZN4core4iter6traits8iterator8Iterator3map17h901db381a56607e1E, symObjAddr: 0x1280, symBinAddr: 0x2B098, symSize: 0x28 }
  - { offset: 0x94624, size: 0x8, addend: 0x0, symName: __ZN4core4iter6traits8iterator8Iterator3map17h91b38d46e7ad0052E, symObjAddr: 0x12A8, symBinAddr: 0x2B0C0, symSize: 0x28 }
  - { offset: 0x94691, size: 0x8, addend: 0x0, symName: __ZN4core4iter6traits8iterator8Iterator3map17he01260bcc8a99f5cE, symObjAddr: 0x12D0, symBinAddr: 0x2B0E8, symSize: 0x28 }
  - { offset: 0x946FE, size: 0x8, addend: 0x0, symName: __ZN4core4iter6traits8iterator8Iterator3map17he6d8bc542cd4d3f8E, symObjAddr: 0x12F8, symBinAddr: 0x2B110, symSize: 0x28 }
  - { offset: 0x94C57, size: 0x8, addend: 0x0, symName: '__ZN103_$LT$alloc..vec..into_iter..IntoIter$LT$T$C$A$GT$$u20$as$u20$core..iter..traits..iterator..Iterator$GT$4next17h41f46b62d12594c2E', symObjAddr: 0x0, symBinAddr: 0x29E18, symSize: 0xBC }
  - { offset: 0x94DAF, size: 0x8, addend: 0x0, symName: '__ZN103_$LT$alloc..vec..into_iter..IntoIter$LT$T$C$A$GT$$u20$as$u20$core..iter..traits..iterator..Iterator$GT$4next17h56fc423e726a6a79E', symObjAddr: 0xBC, symBinAddr: 0x29ED4, symSize: 0xBC }
  - { offset: 0x94F07, size: 0x8, addend: 0x0, symName: '__ZN103_$LT$alloc..vec..into_iter..IntoIter$LT$T$C$A$GT$$u20$as$u20$core..iter..traits..iterator..Iterator$GT$4next17h7a83a71bf07338ccE', symObjAddr: 0x178, symBinAddr: 0x29F90, symSize: 0xC0 }
  - { offset: 0x9505F, size: 0x8, addend: 0x0, symName: '__ZN103_$LT$alloc..vec..into_iter..IntoIter$LT$T$C$A$GT$$u20$as$u20$core..iter..traits..iterator..Iterator$GT$4next17h8c767e41cc4045b0E', symObjAddr: 0x238, symBinAddr: 0x2A050, symSize: 0xBC }
  - { offset: 0x951B7, size: 0x8, addend: 0x0, symName: '__ZN103_$LT$alloc..vec..into_iter..IntoIter$LT$T$C$A$GT$$u20$as$u20$core..iter..traits..iterator..Iterator$GT$8try_fold17h07f81665b334b2d7E', symObjAddr: 0x2F4, symBinAddr: 0x2A10C, symSize: 0x1B4 }
  - { offset: 0x95392, size: 0x8, addend: 0x0, symName: '__ZN103_$LT$alloc..vec..into_iter..IntoIter$LT$T$C$A$GT$$u20$as$u20$core..iter..traits..iterator..Iterator$GT$8try_fold17h286139ccfddbe743E', symObjAddr: 0x4A8, symBinAddr: 0x2A2C0, symSize: 0x1B4 }
  - { offset: 0x9556D, size: 0x8, addend: 0x0, symName: '__ZN103_$LT$alloc..vec..into_iter..IntoIter$LT$T$C$A$GT$$u20$as$u20$core..iter..traits..iterator..Iterator$GT$8try_fold17h59a794df4e28d9f3E', symObjAddr: 0x65C, symBinAddr: 0x2A474, symSize: 0x1D8 }
  - { offset: 0x95732, size: 0x8, addend: 0x0, symName: '__ZN103_$LT$alloc..vec..into_iter..IntoIter$LT$T$C$A$GT$$u20$as$u20$core..iter..traits..iterator..Iterator$GT$8try_fold17h65bad197f0eb3157E', symObjAddr: 0x834, symBinAddr: 0x2A64C, symSize: 0x1D8 }
  - { offset: 0x958F7, size: 0x8, addend: 0x0, symName: '__ZN103_$LT$alloc..vec..into_iter..IntoIter$LT$T$C$A$GT$$u20$as$u20$core..iter..traits..iterator..Iterator$GT$8try_fold17hb68180a0bb48c5deE', symObjAddr: 0xA0C, symBinAddr: 0x2A824, symSize: 0x1B4 }
  - { offset: 0x95AD2, size: 0x8, addend: 0x0, symName: '__ZN103_$LT$alloc..vec..into_iter..IntoIter$LT$T$C$A$GT$$u20$as$u20$core..iter..traits..iterator..Iterator$GT$8try_fold17hf7a5369959a767e9E', symObjAddr: 0xBC0, symBinAddr: 0x2A9D8, symSize: 0x1A4 }
  - { offset: 0x95CAA, size: 0x8, addend: 0x0, symName: '__ZN103_$LT$alloc..vec..into_iter..IntoIter$LT$T$C$A$GT$$u20$as$u20$core..iter..traits..iterator..Iterator$GT$9size_hint17h231fd325bbc12a58E', symObjAddr: 0xD64, symBinAddr: 0x2AB7C, symSize: 0x5C }
  - { offset: 0x95D05, size: 0x8, addend: 0x0, symName: '__ZN103_$LT$alloc..vec..into_iter..IntoIter$LT$T$C$A$GT$$u20$as$u20$core..iter..traits..iterator..Iterator$GT$9size_hint17hdb0a619d645cc901E', symObjAddr: 0xDC0, symBinAddr: 0x2ABD8, symSize: 0x5C }
  - { offset: 0x95D60, size: 0x8, addend: 0x0, symName: '__ZN103_$LT$alloc..vec..into_iter..IntoIter$LT$T$C$A$GT$$u20$as$u20$core..iter..traits..iterator..Iterator$GT$9size_hint17he3bdb5c10922cff1E', symObjAddr: 0xE1C, symBinAddr: 0x2AC34, symSize: 0x5C }
  - { offset: 0x95EB1, size: 0x8, addend: 0x0, symName: '__ZN114_$LT$alloc..vec..into_iter..IntoIter$LT$T$C$A$GT$$u20$as$u20$core..iter..traits..exact_size..ExactSizeIterator$GT$8is_empty17h0fde83477b24116aE', symObjAddr: 0xE78, symBinAddr: 0x2AC90, symSize: 0x3C }
  - { offset: 0x95F14, size: 0x8, addend: 0x0, symName: '__ZN114_$LT$alloc..vec..into_iter..IntoIter$LT$T$C$A$GT$$u20$as$u20$core..iter..traits..exact_size..ExactSizeIterator$GT$8is_empty17h4961384e73a2f64aE', symObjAddr: 0xEB4, symBinAddr: 0x2ACCC, symSize: 0x3C }
  - { offset: 0x95F77, size: 0x8, addend: 0x0, symName: '__ZN114_$LT$alloc..vec..into_iter..IntoIter$LT$T$C$A$GT$$u20$as$u20$core..iter..traits..exact_size..ExactSizeIterator$GT$8is_empty17h7e1adab4a96589f6E', symObjAddr: 0xEF0, symBinAddr: 0x2AD08, symSize: 0x3C }
  - { offset: 0x95FDA, size: 0x8, addend: 0x0, symName: '__ZN114_$LT$alloc..vec..into_iter..IntoIter$LT$T$C$A$GT$$u20$as$u20$core..iter..traits..exact_size..ExactSizeIterator$GT$8is_empty17ha6692a19e8ef5100E', symObjAddr: 0xF2C, symBinAddr: 0x2AD44, symSize: 0x3C }
  - { offset: 0x973F3, size: 0x8, addend: 0x0, symName: '__ZN5alloc3vec9into_iter21IntoIter$LT$T$C$A$GT$16as_raw_mut_slice17h25c5c956f115aeffE', symObjAddr: 0x1320, symBinAddr: 0x2B138, symSize: 0xCC }
  - { offset: 0x975AD, size: 0x8, addend: 0x0, symName: '__ZN5alloc3vec9into_iter21IntoIter$LT$T$C$A$GT$16as_raw_mut_slice17h664a513cc9aaf2b4E', symObjAddr: 0x13EC, symBinAddr: 0x2B204, symSize: 0xCC }
  - { offset: 0x97767, size: 0x8, addend: 0x0, symName: '__ZN5alloc3vec9into_iter21IntoIter$LT$T$C$A$GT$16as_raw_mut_slice17he5dc418428b9054cE', symObjAddr: 0x14B8, symBinAddr: 0x2B2D0, symSize: 0xCC }
  - { offset: 0x97921, size: 0x8, addend: 0x0, symName: '__ZN5alloc3vec9into_iter21IntoIter$LT$T$C$A$GT$16as_raw_mut_slice17hec7c783319043617E', symObjAddr: 0x1584, symBinAddr: 0x2B39C, symSize: 0xCC }
  - { offset: 0x97F81, size: 0x8, addend: 0x0, symName: __ZN4core3ptr5write17h248de607a8743858E, symObjAddr: 0x0, symBinAddr: 0x2B468, symSize: 0x2C }
  - { offset: 0x9859D, size: 0x8, addend: 0x0, symName: __ZN4core3ptr5write17h248de607a8743858E, symObjAddr: 0x0, symBinAddr: 0x2B468, symSize: 0x2C }
  - { offset: 0x985E0, size: 0x8, addend: 0x0, symName: __ZN4core3ptr5write17h338a80be25b976fdE, symObjAddr: 0x2C, symBinAddr: 0x2B494, symSize: 0x2C }
  - { offset: 0x98623, size: 0x8, addend: 0x0, symName: __ZN4core3ptr5write17ha27cddf803735857E, symObjAddr: 0x58, symBinAddr: 0x2B4C0, symSize: 0x2C }
  - { offset: 0x98666, size: 0x8, addend: 0x0, symName: __ZN4core3ptr5write17heeb72a251b8b226cE, symObjAddr: 0x84, symBinAddr: 0x2B4EC, symSize: 0x2C }
  - { offset: 0x9B4CE, size: 0x8, addend: 0x0, symName: '__ZN130_$LT$pyo3..pycell..PyRef$LT$T$GT$$u20$as$u20$pyo3..conversion..IntoPy$LT$pyo3..instance..Py$LT$pyo3..types..any..PyAny$GT$$GT$$GT$7into_py17h54daf68548e2fa6eE', symObjAddr: 0x0, symBinAddr: 0x2B518, symSize: 0x7C }
  - { offset: 0x9D774, size: 0x8, addend: 0x0, symName: '__ZN50_$LT$T$u20$as$u20$core..convert..Into$LT$U$GT$$GT$4into17h14da79daaf5a8531E', symObjAddr: 0x2D0, symBinAddr: 0x2B7E8, symSize: 0x1C }
  - { offset: 0x9D7B4, size: 0x8, addend: 0x0, symName: '__ZN50_$LT$T$u20$as$u20$core..convert..Into$LT$U$GT$$GT$4into17ha6972d6df1c27b65E', symObjAddr: 0x2EC, symBinAddr: 0x2B804, symSize: 0x1C }
  - { offset: 0x9DF13, size: 0x8, addend: 0x0, symName: '__ZN130_$LT$pyo3..pycell..PyRef$LT$T$GT$$u20$as$u20$pyo3..conversion..IntoPy$LT$pyo3..instance..Py$LT$pyo3..types..any..PyAny$GT$$GT$$GT$7into_py17h54daf68548e2fa6eE', symObjAddr: 0x0, symBinAddr: 0x2B518, symSize: 0x7C }
  - { offset: 0x9E079, size: 0x8, addend: 0x0, symName: '__ZN4pyo36pycell14PyRef$LT$T$GT$10try_borrow28_$u7b$$u7b$closure$u7d$$u7d$17h3c36557cd9af3dfeE', symObjAddr: 0x1D0, symBinAddr: 0x2B6E8, symSize: 0x24 }
  - { offset: 0x9E0BD, size: 0x8, addend: 0x0, symName: '__ZN4pyo36pycell14PyRef$LT$T$GT$10try_borrow28_$u7b$$u7b$closure$u7d$$u7d$17h683d7571a3eacfa0E', symObjAddr: 0x1F4, symBinAddr: 0x2B70C, symSize: 0x24 }
  - { offset: 0x9E101, size: 0x8, addend: 0x0, symName: '__ZN4pyo36pycell14PyRef$LT$T$GT$10try_borrow28_$u7b$$u7b$closure$u7d$$u7d$17h9aecb880619114f1E', symObjAddr: 0x218, symBinAddr: 0x2B730, symSize: 0x24 }
  - { offset: 0x9E145, size: 0x8, addend: 0x0, symName: '__ZN4pyo36pycell14PyRef$LT$T$GT$10try_borrow28_$u7b$$u7b$closure$u7d$$u7d$17he8db70bcbf531fc2E', symObjAddr: 0x23C, symBinAddr: 0x2B754, symSize: 0x24 }
  - { offset: 0x9E1E7, size: 0x8, addend: 0x0, symName: '__ZN4pyo36pycell17PyRefMut$LT$T$GT$10try_borrow28_$u7b$$u7b$closure$u7d$$u7d$17h85076759d608af21E', symObjAddr: 0x2AC, symBinAddr: 0x2B7C4, symSize: 0x24 }
  - { offset: 0x9E232, size: 0x8, addend: 0x0, symName: '__ZN72_$LT$pyo3..pycell..PyRef$LT$T$GT$$u20$as$u20$core..ops..deref..Deref$GT$5deref17h0866dd5aba1d7428E', symObjAddr: 0x420, symBinAddr: 0x2B938, symSize: 0x74 }
  - { offset: 0x9E269, size: 0x8, addend: 0x0, symName: '__ZN72_$LT$pyo3..pycell..PyRef$LT$T$GT$$u20$as$u20$core..ops..deref..Deref$GT$5deref17h7181ba8a317b2638E', symObjAddr: 0x494, symBinAddr: 0x2B9AC, symSize: 0x74 }
  - { offset: 0x9E2A0, size: 0x8, addend: 0x0, symName: '__ZN72_$LT$pyo3..pycell..PyRef$LT$T$GT$$u20$as$u20$core..ops..deref..Deref$GT$5deref17hdba2edaeeb7b253bE', symObjAddr: 0x508, symBinAddr: 0x2BA20, symSize: 0x74 }
  - { offset: 0x9E2D7, size: 0x8, addend: 0x0, symName: '__ZN72_$LT$pyo3..pycell..PyRef$LT$T$GT$$u20$as$u20$core..ops..deref..Deref$GT$5deref17he0e22a1c2646bed5E', symObjAddr: 0x57C, symBinAddr: 0x2BA94, symSize: 0x74 }
  - { offset: 0x9E314, size: 0x8, addend: 0x0, symName: '__ZN78_$LT$pyo3..pycell..PyRefMut$LT$T$GT$$u20$as$u20$core..ops..deref..DerefMut$GT$9deref_mut17h835fb69eabfb1234E', symObjAddr: 0x5F0, symBinAddr: 0x2BB08, symSize: 0x74 }
  - { offset: 0x9E590, size: 0x8, addend: 0x0, symName: '__ZN4pyo35impl_9pymethods130_$LT$impl$u20$core..convert..TryFrom$LT$pyo3..impl_..pymethods..BoundRef$LT$T$GT$$GT$$u20$for$u20$pyo3..pycell..PyRef$LT$T$GT$$GT$8try_from17he5811779e8a5198dE', symObjAddr: 0x7C, symBinAddr: 0x2B594, symSize: 0x24 }
  - { offset: 0x9E60C, size: 0x8, addend: 0x0, symName: '__ZN56_$LT$T$u20$as$u20$pyo3..impl_..wrap..OkWrap$LT$T$GT$$GT$4wrap17hb6df464b2790afd8E', symObjAddr: 0x308, symBinAddr: 0x2B820, symSize: 0x14 }
  - { offset: 0x9E94D, size: 0x8, addend: 0x0, symName: '__ZN57_$LT$T$u20$as$u20$pyo3..conversion..FromPyObjectBound$GT$20from_py_object_bound17h2f4d5b7274ad18f5E', symObjAddr: 0x31C, symBinAddr: 0x2B834, symSize: 0x34 }
  - { offset: 0x9E984, size: 0x8, addend: 0x0, symName: '__ZN57_$LT$T$u20$as$u20$pyo3..conversion..FromPyObjectBound$GT$20from_py_object_bound17h3ab13556e00a9362E', symObjAddr: 0x350, symBinAddr: 0x2B868, symSize: 0x34 }
  - { offset: 0x9E9BB, size: 0x8, addend: 0x0, symName: '__ZN57_$LT$T$u20$as$u20$pyo3..conversion..FromPyObjectBound$GT$20from_py_object_bound17h574e1427bdf89eadE', symObjAddr: 0x384, symBinAddr: 0x2B89C, symSize: 0x34 }
  - { offset: 0x9E9F2, size: 0x8, addend: 0x0, symName: '__ZN57_$LT$T$u20$as$u20$pyo3..conversion..FromPyObjectBound$GT$20from_py_object_bound17h9d074148cf80b564E', symObjAddr: 0x3B8, symBinAddr: 0x2B8D0, symSize: 0x34 }
  - { offset: 0x9EA29, size: 0x8, addend: 0x0, symName: '__ZN57_$LT$T$u20$as$u20$pyo3..conversion..FromPyObjectBound$GT$20from_py_object_bound17hbef825dbd1d01280E', symObjAddr: 0x3EC, symBinAddr: 0x2B904, symSize: 0x34 }
  - { offset: 0x9EA66, size: 0x8, addend: 0x0, symName: '__ZN79_$LT$pyo3..pycell..PyRef$LT$T$GT$$u20$as$u20$pyo3..conversion..FromPyObject$GT$13extract_bound17h4c13757c6dce9d9cE', symObjAddr: 0x664, symBinAddr: 0x2BB7C, symSize: 0xA4 }
  - { offset: 0x9EABC, size: 0x8, addend: 0x0, symName: '__ZN79_$LT$pyo3..pycell..PyRef$LT$T$GT$$u20$as$u20$pyo3..conversion..FromPyObject$GT$13extract_bound17h7c24bee6492ac68aE', symObjAddr: 0x708, symBinAddr: 0x2BC20, symSize: 0xA4 }
  - { offset: 0x9EB12, size: 0x8, addend: 0x0, symName: '__ZN79_$LT$pyo3..pycell..PyRef$LT$T$GT$$u20$as$u20$pyo3..conversion..FromPyObject$GT$13extract_bound17h8d3c7e13fc793884E', symObjAddr: 0x7AC, symBinAddr: 0x2BCC4, symSize: 0xA4 }
  - { offset: 0x9EB68, size: 0x8, addend: 0x0, symName: '__ZN79_$LT$pyo3..pycell..PyRef$LT$T$GT$$u20$as$u20$pyo3..conversion..FromPyObject$GT$13extract_bound17hdb93d1de5ee3c55cE', symObjAddr: 0x850, symBinAddr: 0x2BD68, symSize: 0xA4 }
  - { offset: 0x9EBC4, size: 0x8, addend: 0x0, symName: '__ZN82_$LT$pyo3..pycell..PyRefMut$LT$T$GT$$u20$as$u20$pyo3..conversion..FromPyObject$GT$13extract_bound17h17bc2071ce8a23cdE', symObjAddr: 0x8F4, symBinAddr: 0x2BE0C, symSize: 0xA4 }
  - { offset: 0x9FA78, size: 0x8, addend: 0x0, symName: '__ZN4pyo36pycell14PyRef$LT$T$GT$10try_borrow17h1ad7fb54a9e3208cE', symObjAddr: 0xA0, symBinAddr: 0x2B5B8, symSize: 0x4C }
  - { offset: 0xA12B8, size: 0x8, addend: 0x0, symName: '__ZN4pyo36pycell14PyRef$LT$T$GT$10try_borrow17h3226b6cf63de1e6cE', symObjAddr: 0xEC, symBinAddr: 0x2B604, symSize: 0x4C }
  - { offset: 0xA130F, size: 0x8, addend: 0x0, symName: '__ZN4pyo36pycell14PyRef$LT$T$GT$10try_borrow17hbd61d5177e93a7f4E', symObjAddr: 0x138, symBinAddr: 0x2B650, symSize: 0x4C }
  - { offset: 0xA1366, size: 0x8, addend: 0x0, symName: '__ZN4pyo36pycell14PyRef$LT$T$GT$10try_borrow17hbf6c8b892cd99aabE', symObjAddr: 0x184, symBinAddr: 0x2B69C, symSize: 0x4C }
  - { offset: 0xA13B0, size: 0x8, addend: 0x0, symName: '__ZN4pyo36pycell17PyRefMut$LT$T$GT$10try_borrow17h3ad21c26b3a987f2E', symObjAddr: 0x260, symBinAddr: 0x2B778, symSize: 0x4C }
  - { offset: 0xA1557, size: 0x8, addend: 0x0, symName: __ZN4pyo35types4list13new_from_iter17hd3e22de9a4e3b245E, symObjAddr: 0x0, symBinAddr: 0x2BEB0, symSize: 0x2A8 }
  - { offset: 0xA272B, size: 0x8, addend: 0x0, symName: __ZN4pyo35types4list13new_from_iter17hd3e22de9a4e3b245E, symObjAddr: 0x0, symBinAddr: 0x2BEB0, symSize: 0x2A8 }
  - { offset: 0xA2E7F, size: 0x8, addend: 0x0, symName: '__ZN71_$LT$alloc..borrow..Cow$LT$B$GT$$u20$as$u20$core..ops..deref..Deref$GT$5deref17ha7b43b3c8b92d257E', symObjAddr: 0x0, symBinAddr: 0x2C158, symSize: 0x70 }
  - { offset: 0xA2E9B, size: 0x8, addend: 0x0, symName: '__ZN71_$LT$alloc..borrow..Cow$LT$B$GT$$u20$as$u20$core..ops..deref..Deref$GT$5deref17ha7b43b3c8b92d257E', symObjAddr: 0x0, symBinAddr: 0x2C158, symSize: 0x70 }
  - { offset: 0xA304B, size: 0x8, addend: 0x0, symName: __ZN4core4iter6traits8iterator8Iterator3zip17h37dce1559317b85aE, symObjAddr: 0x0, symBinAddr: 0x2C1C8, symSize: 0xB4 }
  - { offset: 0xA395C, size: 0x8, addend: 0x0, symName: __ZN4core4iter6traits8iterator8Iterator3zip17h37dce1559317b85aE, symObjAddr: 0x0, symBinAddr: 0x2C1C8, symSize: 0xB4 }
  - { offset: 0xA39D2, size: 0x8, addend: 0x0, symName: __ZN4core4iter6traits8iterator8Iterator4take17h534675d4031324c6E, symObjAddr: 0xB4, symBinAddr: 0x2C27C, symSize: 0x24 }
  - { offset: 0xA457C, size: 0x8, addend: 0x0, symName: __ZN4pyo35types5tuple16array_into_tuple17hba959f0a73dc1d37E, symObjAddr: 0xD8, symBinAddr: 0x2C2A0, symSize: 0x1F0 }
  - { offset: 0xA4CEC, size: 0x8, addend: 0x0, symName: '__ZN4pyo35impl_7pyclass16lazy_type_object23LazyTypeObject$LT$T$GT$11get_or_init17h7039860a5770ad22E', symObjAddr: 0x0, symBinAddr: 0x2C490, symSize: 0x40 }
  - { offset: 0xA75FF, size: 0x8, addend: 0x0, symName: '__ZN4pyo35impl_7pyclass16lazy_type_object23LazyTypeObject$LT$T$GT$11get_or_init28_$u7b$$u7b$closure$u7d$$u7d$17h25c87e25ce9785afE', symObjAddr: 0x100, symBinAddr: 0x2C590, symSize: 0xA8 }
  - { offset: 0xA7688, size: 0x8, addend: 0x0, symName: '__ZN4pyo35impl_7pyclass16lazy_type_object23LazyTypeObject$LT$T$GT$11get_or_init28_$u7b$$u7b$closure$u7d$$u7d$17h91873febe80756edE', symObjAddr: 0x1A8, symBinAddr: 0x2C638, symSize: 0xA8 }
  - { offset: 0xA7711, size: 0x8, addend: 0x0, symName: '__ZN4pyo35impl_7pyclass16lazy_type_object23LazyTypeObject$LT$T$GT$11get_or_init28_$u7b$$u7b$closure$u7d$$u7d$17hd42b5c05a26b4819E', symObjAddr: 0x250, symBinAddr: 0x2C6E0, symSize: 0xA8 }
  - { offset: 0xA779A, size: 0x8, addend: 0x0, symName: '__ZN4pyo35impl_7pyclass16lazy_type_object23LazyTypeObject$LT$T$GT$11get_or_init28_$u7b$$u7b$closure$u7d$$u7d$17hefa8ebc110a24332E', symObjAddr: 0x2F8, symBinAddr: 0x2C788, symSize: 0xA8 }
  - { offset: 0xA8FC9, size: 0x8, addend: 0x0, symName: '__ZN4pyo35impl_7pyclass16lazy_type_object23LazyTypeObject$LT$T$GT$11get_or_init17h7039860a5770ad22E', symObjAddr: 0x0, symBinAddr: 0x2C490, symSize: 0x40 }
  - { offset: 0xAA268, size: 0x8, addend: 0x0, symName: '__ZN4pyo35impl_7pyclass16lazy_type_object23LazyTypeObject$LT$T$GT$11get_or_init17h8ef1395835a9ad76E', symObjAddr: 0x40, symBinAddr: 0x2C4D0, symSize: 0x40 }
  - { offset: 0xAA2B9, size: 0x8, addend: 0x0, symName: '__ZN4pyo35impl_7pyclass16lazy_type_object23LazyTypeObject$LT$T$GT$11get_or_init17ha6058137b0b3ad7eE', symObjAddr: 0x80, symBinAddr: 0x2C510, symSize: 0x40 }
  - { offset: 0xAA30A, size: 0x8, addend: 0x0, symName: '__ZN4pyo35impl_7pyclass16lazy_type_object23LazyTypeObject$LT$T$GT$11get_or_init17hd381a4abc386c5b8E', symObjAddr: 0xC0, symBinAddr: 0x2C550, symSize: 0x40 }
  - { offset: 0xAA34E, size: 0x8, addend: 0x0, symName: '__ZN4pyo35impl_7pyclass16lazy_type_object23LazyTypeObject$LT$T$GT$15get_or_try_init17h165b5070c01a35daE', symObjAddr: 0x3A0, symBinAddr: 0x2C830, symSize: 0x58 }
  - { offset: 0xAA392, size: 0x8, addend: 0x0, symName: '__ZN4pyo35impl_7pyclass16lazy_type_object23LazyTypeObject$LT$T$GT$15get_or_try_init17hc966892fda91f402E', symObjAddr: 0x3F8, symBinAddr: 0x2C888, symSize: 0x58 }
  - { offset: 0xAA3D6, size: 0x8, addend: 0x0, symName: '__ZN4pyo35impl_7pyclass16lazy_type_object23LazyTypeObject$LT$T$GT$15get_or_try_init17hda956852e4c429beE', symObjAddr: 0x450, symBinAddr: 0x2C8E0, symSize: 0x58 }
  - { offset: 0xAA41A, size: 0x8, addend: 0x0, symName: '__ZN4pyo35impl_7pyclass16lazy_type_object23LazyTypeObject$LT$T$GT$15get_or_try_init17hdccb04fbcf342c6cE', symObjAddr: 0x4A8, symBinAddr: 0x2C938, symSize: 0x58 }
  - { offset: 0xAA569, size: 0x8, addend: 0x0, symName: '__ZN10serde_core2de5impls82_$LT$impl$u20$serde_core..de..Deserialize$u20$for$u20$alloc..vec..Vec$LT$T$GT$$GT$11deserialize17h09edb972ed87ccc1E', symObjAddr: 0x0, symBinAddr: 0x2C990, symSize: 0x24 }
  - { offset: 0xAD0D2, size: 0x8, addend: 0x0, symName: '__ZN5alloc3vec16in_place_collect108_$LT$impl$u20$alloc..vec..spec_from_iter..SpecFromIter$LT$T$C$I$GT$$u20$for$u20$alloc..vec..Vec$LT$T$GT$$GT$9from_iter17h1b829aed10dad587E', symObjAddr: 0xD28, symBinAddr: 0x2D6B8, symSize: 0x28 }
  - { offset: 0xAD12E, size: 0x8, addend: 0x0, symName: '__ZN5alloc3vec16in_place_collect108_$LT$impl$u20$alloc..vec..spec_from_iter..SpecFromIter$LT$T$C$I$GT$$u20$for$u20$alloc..vec..Vec$LT$T$GT$$GT$9from_iter17h4137dac2b8820a9eE', symObjAddr: 0xD50, symBinAddr: 0x2D6E0, symSize: 0x28 }
  - { offset: 0xAD1F7, size: 0x8, addend: 0x0, symName: '__ZN67_$LT$alloc..vec..Vec$LT$T$C$A$GT$$u20$as$u20$core..clone..Clone$GT$5clone17ha2f1c96a45c33223E', symObjAddr: 0xD78, symBinAddr: 0x2D708, symSize: 0x90 }
  - { offset: 0xAD3C8, size: 0x8, addend: 0x0, symName: '__ZN67_$LT$alloc..vec..Vec$LT$T$C$A$GT$$u20$as$u20$core..clone..Clone$GT$5clone17hf52e6a277258a136E', symObjAddr: 0xE08, symBinAddr: 0x2D798, symSize: 0x90 }
  - { offset: 0xAD59F, size: 0x8, addend: 0x0, symName: '__ZN90_$LT$alloc..vec..Vec$LT$T$C$A$GT$$u20$as$u20$core..iter..traits..collect..IntoIterator$GT$9into_iter17h01be50440e4a2686E', symObjAddr: 0xE98, symBinAddr: 0x2D828, symSize: 0xA0 }
  - { offset: 0xAD782, size: 0x8, addend: 0x0, symName: '__ZN90_$LT$alloc..vec..Vec$LT$T$C$A$GT$$u20$as$u20$core..iter..traits..collect..IntoIterator$GT$9into_iter17h463d8bb5ea25f19fE', symObjAddr: 0xF38, symBinAddr: 0x2D8C8, symSize: 0xA0 }
  - { offset: 0xAD965, size: 0x8, addend: 0x0, symName: '__ZN90_$LT$alloc..vec..Vec$LT$T$C$A$GT$$u20$as$u20$core..iter..traits..collect..IntoIterator$GT$9into_iter17h693c06cacc60a276E', symObjAddr: 0xFD8, symBinAddr: 0x2D968, symSize: 0xA0 }
  - { offset: 0xADB48, size: 0x8, addend: 0x0, symName: '__ZN90_$LT$alloc..vec..Vec$LT$T$C$A$GT$$u20$as$u20$core..iter..traits..collect..IntoIterator$GT$9into_iter17hcfe2ad7f52cb0ab0E', symObjAddr: 0x1078, symBinAddr: 0x2DA08, symSize: 0xA0 }
  - { offset: 0xADDE7, size: 0x8, addend: 0x0, symName: '__ZN95_$LT$alloc..vec..Vec$LT$T$GT$$u20$as$u20$core..iter..traits..collect..FromIterator$LT$T$GT$$GT$9from_iter17h06bf5f7282c0474cE', symObjAddr: 0x1118, symBinAddr: 0x2DAA8, symSize: 0x34 }
  - { offset: 0xADE28, size: 0x8, addend: 0x0, symName: '__ZN95_$LT$alloc..vec..Vec$LT$T$GT$$u20$as$u20$core..iter..traits..collect..FromIterator$LT$T$GT$$GT$9from_iter17hddc6c592b3882234E', symObjAddr: 0x114C, symBinAddr: 0x2DADC, symSize: 0x34 }
  - { offset: 0xAEBE7, size: 0x8, addend: 0x0, symName: '__ZN4pyo311conversions3std3vec136_$LT$impl$u20$pyo3..conversion..IntoPy$LT$pyo3..instance..Py$LT$pyo3..types..any..PyAny$GT$$GT$$u20$for$u20$alloc..vec..Vec$LT$T$GT$$GT$7into_py17h054d559dc98a4639E', symObjAddr: 0x1B8, symBinAddr: 0x2CB48, symSize: 0xC4 }
  - { offset: 0xAEC68, size: 0x8, addend: 0x0, symName: '__ZN4pyo311conversions3std3vec136_$LT$impl$u20$pyo3..conversion..IntoPy$LT$pyo3..instance..Py$LT$pyo3..types..any..PyAny$GT$$GT$$u20$for$u20$alloc..vec..Vec$LT$T$GT$$GT$7into_py17h291880c5fe84a354E', symObjAddr: 0x27C, symBinAddr: 0x2CC0C, symSize: 0xC4 }
  - { offset: 0xAECE9, size: 0x8, addend: 0x0, symName: '__ZN4pyo311conversions3std3vec136_$LT$impl$u20$pyo3..conversion..IntoPy$LT$pyo3..instance..Py$LT$pyo3..types..any..PyAny$GT$$GT$$u20$for$u20$alloc..vec..Vec$LT$T$GT$$GT$7into_py17h69335e263de7fc7bE', symObjAddr: 0x340, symBinAddr: 0x2CCD0, symSize: 0xC4 }
  - { offset: 0xAED6A, size: 0x8, addend: 0x0, symName: '__ZN4pyo311conversions3std3vec136_$LT$impl$u20$pyo3..conversion..IntoPy$LT$pyo3..instance..Py$LT$pyo3..types..any..PyAny$GT$$GT$$u20$for$u20$alloc..vec..Vec$LT$T$GT$$GT$7into_py17hcdc3f2bbf601536aE', symObjAddr: 0x404, symBinAddr: 0x2CD94, symSize: 0xC4 }
  - { offset: 0xB009F, size: 0x8, addend: 0x0, symName: '__ZN10serde_core2de5impls82_$LT$impl$u20$serde_core..de..Deserialize$u20$for$u20$alloc..vec..Vec$LT$T$GT$$GT$11deserialize17h09edb972ed87ccc1E', symObjAddr: 0x0, symBinAddr: 0x2C990, symSize: 0x24 }
  - { offset: 0xB00FD, size: 0x8, addend: 0x0, symName: '__ZN10serde_core2de5impls82_$LT$impl$u20$serde_core..de..Deserialize$u20$for$u20$alloc..vec..Vec$LT$T$GT$$GT$11deserialize17h0c5f53fac2310234E', symObjAddr: 0x24, symBinAddr: 0x2C9B4, symSize: 0x24 }
  - { offset: 0xB015B, size: 0x8, addend: 0x0, symName: '__ZN10serde_core2de5impls82_$LT$impl$u20$serde_core..de..Deserialize$u20$for$u20$alloc..vec..Vec$LT$T$GT$$GT$11deserialize17h1a062c5c8de2fe4cE', symObjAddr: 0x48, symBinAddr: 0x2C9D8, symSize: 0x24 }
  - { offset: 0xB01B9, size: 0x8, addend: 0x0, symName: '__ZN10serde_core2de5impls82_$LT$impl$u20$serde_core..de..Deserialize$u20$for$u20$alloc..vec..Vec$LT$T$GT$$GT$11deserialize17h2a28cdbbe960f980E', symObjAddr: 0x6C, symBinAddr: 0x2C9FC, symSize: 0x24 }
  - { offset: 0xB0217, size: 0x8, addend: 0x0, symName: '__ZN10serde_core2de5impls82_$LT$impl$u20$serde_core..de..Deserialize$u20$for$u20$alloc..vec..Vec$LT$T$GT$$GT$11deserialize17h3b3d77e0ced0a1b4E', symObjAddr: 0x90, symBinAddr: 0x2CA20, symSize: 0x24 }
  - { offset: 0xB0275, size: 0x8, addend: 0x0, symName: '__ZN10serde_core2de5impls82_$LT$impl$u20$serde_core..de..Deserialize$u20$for$u20$alloc..vec..Vec$LT$T$GT$$GT$11deserialize17h3d85da4a14b0d259E', symObjAddr: 0xB4, symBinAddr: 0x2CA44, symSize: 0x28 }
  - { offset: 0xB02D3, size: 0x8, addend: 0x0, symName: '__ZN10serde_core2de5impls82_$LT$impl$u20$serde_core..de..Deserialize$u20$for$u20$alloc..vec..Vec$LT$T$GT$$GT$11deserialize17h5d3148b6784b51d5E', symObjAddr: 0xDC, symBinAddr: 0x2CA6C, symSize: 0x24 }
  - { offset: 0xB0331, size: 0x8, addend: 0x0, symName: '__ZN10serde_core2de5impls82_$LT$impl$u20$serde_core..de..Deserialize$u20$for$u20$alloc..vec..Vec$LT$T$GT$$GT$11deserialize17h6aa98c3155259a43E', symObjAddr: 0x100, symBinAddr: 0x2CA90, symSize: 0x24 }
  - { offset: 0xB038F, size: 0x8, addend: 0x0, symName: '__ZN10serde_core2de5impls82_$LT$impl$u20$serde_core..de..Deserialize$u20$for$u20$alloc..vec..Vec$LT$T$GT$$GT$11deserialize17h76eba99e551d9732E', symObjAddr: 0x124, symBinAddr: 0x2CAB4, symSize: 0x24 }
  - { offset: 0xB03ED, size: 0x8, addend: 0x0, symName: '__ZN10serde_core2de5impls82_$LT$impl$u20$serde_core..de..Deserialize$u20$for$u20$alloc..vec..Vec$LT$T$GT$$GT$11deserialize17hf31e262f4f609297E', symObjAddr: 0x148, symBinAddr: 0x2CAD8, symSize: 0x24 }
  - { offset: 0xB044B, size: 0x8, addend: 0x0, symName: '__ZN10serde_core2de5impls82_$LT$impl$u20$serde_core..de..Deserialize$u20$for$u20$alloc..vec..Vec$LT$T$GT$$GT$11deserialize17hfec0b221cbe73ed8E', symObjAddr: 0x16C, symBinAddr: 0x2CAFC, symSize: 0x28 }
  - { offset: 0xB04A9, size: 0x8, addend: 0x0, symName: '__ZN10serde_core2de5impls82_$LT$impl$u20$serde_core..de..Deserialize$u20$for$u20$alloc..vec..Vec$LT$T$GT$$GT$11deserialize17hff2c999eb6222af8E', symObjAddr: 0x194, symBinAddr: 0x2CB24, symSize: 0x24 }
  - { offset: 0xB069F, size: 0x8, addend: 0x0, symName: '__ZN5alloc3vec12Vec$LT$T$GT$13with_capacity17h166564aba96ea0d5E', symObjAddr: 0x4C8, symBinAddr: 0x2CE58, symSize: 0x44 }
  - { offset: 0xB0779, size: 0x8, addend: 0x0, symName: '__ZN5alloc3vec12Vec$LT$T$GT$13with_capacity17h242bbdcddfb5e259E', symObjAddr: 0x50C, symBinAddr: 0x2CE9C, symSize: 0x44 }
  - { offset: 0xB09CB, size: 0x8, addend: 0x0, symName: '__ZN5alloc3vec12Vec$LT$T$GT$13with_capacity17h33a57691e1e4c0eeE', symObjAddr: 0x550, symBinAddr: 0x2CEE0, symSize: 0x44 }
  - { offset: 0xB0FFA, size: 0x8, addend: 0x0, symName: '__ZN5alloc3vec12Vec$LT$T$GT$13with_capacity17h3d15f33a9e64b55bE', symObjAddr: 0x594, symBinAddr: 0x2CF24, symSize: 0x44 }
  - { offset: 0xB1110, size: 0x8, addend: 0x0, symName: '__ZN5alloc3vec12Vec$LT$T$GT$13with_capacity17h3da0fb27d482f4b2E', symObjAddr: 0x5D8, symBinAddr: 0x2CF68, symSize: 0x44 }
  - { offset: 0xB11EA, size: 0x8, addend: 0x0, symName: '__ZN5alloc3vec12Vec$LT$T$GT$13with_capacity17hb2b2ea5c3c20c8e5E', symObjAddr: 0x61C, symBinAddr: 0x2CFAC, symSize: 0x44 }
  - { offset: 0xB1289, size: 0x8, addend: 0x0, symName: '__ZN5alloc3vec12Vec$LT$T$GT$3new17hc2b66b43d4605b95E', symObjAddr: 0x660, symBinAddr: 0x2CFF0, symSize: 0x14 }
  - { offset: 0xB12B3, size: 0x8, addend: 0x0, symName: '__ZN5alloc3vec16Vec$LT$T$C$A$GT$3len17h5e9b52321f75dee7E', symObjAddr: 0x674, symBinAddr: 0x2D004, symSize: 0x18 }
  - { offset: 0xB12F5, size: 0x8, addend: 0x0, symName: '__ZN5alloc3vec16Vec$LT$T$C$A$GT$4push17h1b45b5885913eeb2E', symObjAddr: 0x68C, symBinAddr: 0x2D01C, symSize: 0x24 }
  - { offset: 0xB1347, size: 0x8, addend: 0x0, symName: '__ZN5alloc3vec16Vec$LT$T$C$A$GT$4push17h4bec884803031018E', symObjAddr: 0x6B0, symBinAddr: 0x2D040, symSize: 0x24 }
  - { offset: 0xB1399, size: 0x8, addend: 0x0, symName: '__ZN5alloc3vec16Vec$LT$T$C$A$GT$4push17h4e055c427e6b5778E', symObjAddr: 0x6D4, symBinAddr: 0x2D064, symSize: 0x24 }
  - { offset: 0xB13EB, size: 0x8, addend: 0x0, symName: '__ZN5alloc3vec16Vec$LT$T$C$A$GT$4push17h5076ad63018a3f93E', symObjAddr: 0x6F8, symBinAddr: 0x2D088, symSize: 0x24 }
  - { offset: 0xB143D, size: 0x8, addend: 0x0, symName: '__ZN5alloc3vec16Vec$LT$T$C$A$GT$4push17hbd8c42c5b69605d4E', symObjAddr: 0x71C, symBinAddr: 0x2D0AC, symSize: 0x30 }
  - { offset: 0xB153A, size: 0x8, addend: 0x0, symName: '__ZN5alloc3vec16Vec$LT$T$C$A$GT$7set_len17h735eca4f3685b026E', symObjAddr: 0x74C, symBinAddr: 0x2D0DC, symSize: 0x70 }
  - { offset: 0xB1687, size: 0x8, addend: 0x0, symName: '__ZN5alloc3vec16Vec$LT$T$C$A$GT$7set_len17haeef4ea34f5babb3E', symObjAddr: 0x7BC, symBinAddr: 0x2D14C, symSize: 0x70 }
  - { offset: 0xB1849, size: 0x8, addend: 0x0, symName: '__ZN5alloc3vec16Vec$LT$T$C$A$GT$8push_mut17h1508498e741ecd8eE', symObjAddr: 0x82C, symBinAddr: 0x2D1BC, symSize: 0xF4 }
  - { offset: 0xB1AEA, size: 0x8, addend: 0x0, symName: '__ZN5alloc3vec16Vec$LT$T$C$A$GT$8push_mut17h2dabda1617338b75E', symObjAddr: 0x920, symBinAddr: 0x2D2B0, symSize: 0xE0 }
  - { offset: 0xB1D89, size: 0x8, addend: 0x0, symName: '__ZN5alloc3vec16Vec$LT$T$C$A$GT$8push_mut17h3aaefee48ad9af6fE', symObjAddr: 0xA00, symBinAddr: 0x2D390, symSize: 0x108 }
  - { offset: 0xB2028, size: 0x8, addend: 0x0, symName: '__ZN5alloc3vec16Vec$LT$T$C$A$GT$8push_mut17h531f760b8013a519E', symObjAddr: 0xB08, symBinAddr: 0x2D498, symSize: 0x110 }
  - { offset: 0xB22CB, size: 0x8, addend: 0x0, symName: '__ZN5alloc3vec16Vec$LT$T$C$A$GT$8push_mut17hd499e4b737c0adafE', symObjAddr: 0xC18, symBinAddr: 0x2D5A8, symSize: 0x110 }
  - { offset: 0xB31B7, size: 0x8, addend: 0x0, symName: '__ZN10serde_core2de5impls111_$LT$impl$u20$serde_core..de..Deserialize$u20$for$u20$std..collections..hash..map..HashMap$LT$K$C$V$C$S$GT$$GT$11deserialize17h09226d280bd9a023E', symObjAddr: 0x0, symBinAddr: 0x2DB10, symSize: 0x24 }
  - { offset: 0xB3512, size: 0x8, addend: 0x0, symName: '__ZN10serde_core2de5impls111_$LT$impl$u20$serde_core..de..Deserialize$u20$for$u20$std..collections..hash..map..HashMap$LT$K$C$V$C$S$GT$$GT$11deserialize17h09226d280bd9a023E', symObjAddr: 0x0, symBinAddr: 0x2DB10, symSize: 0x24 }
  - { offset: 0xB3582, size: 0x8, addend: 0x0, symName: '__ZN10serde_core2de5impls111_$LT$impl$u20$serde_core..de..Deserialize$u20$for$u20$std..collections..hash..map..HashMap$LT$K$C$V$C$S$GT$$GT$11deserialize17h94aa48d770619a7cE', symObjAddr: 0x24, symBinAddr: 0x2DB34, symSize: 0x24 }
  - { offset: 0xB35F2, size: 0x8, addend: 0x0, symName: '__ZN10serde_core2de5impls111_$LT$impl$u20$serde_core..de..Deserialize$u20$for$u20$std..collections..hash..map..HashMap$LT$K$C$V$C$S$GT$$GT$11deserialize17he6466278efe972beE', symObjAddr: 0x48, symBinAddr: 0x2DB58, symSize: 0x28 }
  - { offset: 0xB3C46, size: 0x8, addend: 0x0, symName: '__ZN3std11collections4hash3map24HashMap$LT$K$C$V$C$S$GT$24with_capacity_and_hasher17hcc76f01e596daafcE', symObjAddr: 0x70, symBinAddr: 0x2DB80, symSize: 0x48 }
  - { offset: 0xB4120, size: 0x8, addend: 0x0, symName: '__ZN5alloc7raw_vec19RawVec$LT$T$C$A$GT$8grow_one17h3b272416773e5d96E', symObjAddr: 0x0, symBinAddr: 0x2DBC8, symSize: 0x88 }
  - { offset: 0xB50E9, size: 0x8, addend: 0x0, symName: '__ZN5alloc7raw_vec19RawVec$LT$T$C$A$GT$8grow_one17h3b272416773e5d96E', symObjAddr: 0x0, symBinAddr: 0x2DBC8, symSize: 0x88 }
  - { offset: 0xB53F6, size: 0x8, addend: 0x0, symName: '__ZN5alloc7raw_vec19RawVec$LT$T$C$A$GT$8grow_one17h8501ae415de5f1a3E', symObjAddr: 0x88, symBinAddr: 0x2DC50, symSize: 0x88 }
  - { offset: 0xB56E3, size: 0x8, addend: 0x0, symName: '__ZN5alloc7raw_vec19RawVec$LT$T$C$A$GT$8grow_one17h90ff85d74f641763E', symObjAddr: 0x110, symBinAddr: 0x2DCD8, symSize: 0x88 }
  - { offset: 0xB5795, size: 0x8, addend: 0x0, symName: '__ZN5alloc7raw_vec19RawVec$LT$T$C$A$GT$8grow_one17hc891dca864e523baE', symObjAddr: 0x198, symBinAddr: 0x2DD60, symSize: 0x88 }
  - { offset: 0xB5865, size: 0x8, addend: 0x0, symName: '__ZN5alloc7raw_vec19RawVec$LT$T$C$A$GT$8grow_one17hd5c5b7d9172250e8E', symObjAddr: 0x220, symBinAddr: 0x2DDE8, symSize: 0x88 }
  - { offset: 0xB58F0, size: 0x8, addend: 0x0, symName: __ZN4core4iter6traits8iterator8Iterator9enumerate17h2c63987aece5394aE, symObjAddr: 0x0, symBinAddr: 0x2DE70, symSize: 0x38 }
  - { offset: 0xB610D, size: 0x8, addend: 0x0, symName: __ZN4core4iter6traits8iterator8Iterator9enumerate17h2c63987aece5394aE, symObjAddr: 0x0, symBinAddr: 0x2DE70, symSize: 0x38 }
  - { offset: 0xB61BB, size: 0x8, addend: 0x0, symName: '__ZN99_$LT$core..array..iter..IntoIter$LT$T$C$_$GT$$u20$as$u20$core..iter..traits..iterator..Iterator$GT$4next17h748322eed506b089E', symObjAddr: 0x38, symBinAddr: 0x2DEA8, symSize: 0x2C }
  - { offset: 0xB712C, size: 0x8, addend: 0x0, symName: '__ZN4core3num23_$LT$impl$u20$usize$GT$13unchecked_mul18precondition_check17h0fd0f8b069a6e889E', symObjAddr: 0x0, symBinAddr: 0x2DED4, symSize: 0x60 }
  - { offset: 0xB7177, size: 0x8, addend: 0x0, symName: '__ZN4core3num23_$LT$impl$u20$usize$GT$13unchecked_mul18precondition_check17h0fd0f8b069a6e889E', symObjAddr: 0x0, symBinAddr: 0x2DED4, symSize: 0x60 }
  - { offset: 0xB726C, size: 0x8, addend: 0x0, symName: '__ZN153_$LT$core..result..Result$LT$T$C$F$GT$$u20$as$u20$core..ops..try_trait..FromResidual$LT$core..result..Result$LT$core..convert..Infallible$C$E$GT$$GT$$GT$13from_residual17h033df77dfcec06d4E', symObjAddr: 0x0, symBinAddr: 0x2DF34, symSize: 0x58 }
  - { offset: 0xB7A6B, size: 0x8, addend: 0x0, symName: '__ZN153_$LT$core..result..Result$LT$T$C$F$GT$$u20$as$u20$core..ops..try_trait..FromResidual$LT$core..result..Result$LT$core..convert..Infallible$C$E$GT$$GT$$GT$13from_residual17h033df77dfcec06d4E', symObjAddr: 0x0, symBinAddr: 0x2DF34, symSize: 0x58 }
  - { offset: 0xB7AD3, size: 0x8, addend: 0x0, symName: '__ZN153_$LT$core..result..Result$LT$T$C$F$GT$$u20$as$u20$core..ops..try_trait..FromResidual$LT$core..result..Result$LT$core..convert..Infallible$C$E$GT$$GT$$GT$13from_residual17h059f6de4abafee96E', symObjAddr: 0x58, symBinAddr: 0x2DF8C, symSize: 0x40 }
  - { offset: 0xB7B3A, size: 0x8, addend: 0x0, symName: '__ZN153_$LT$core..result..Result$LT$T$C$F$GT$$u20$as$u20$core..ops..try_trait..FromResidual$LT$core..result..Result$LT$core..convert..Infallible$C$E$GT$$GT$$GT$13from_residual17h23152c2e0e04eefeE', symObjAddr: 0x98, symBinAddr: 0x2DFCC, symSize: 0x34 }
  - { offset: 0xB7BA1, size: 0x8, addend: 0x0, symName: '__ZN153_$LT$core..result..Result$LT$T$C$F$GT$$u20$as$u20$core..ops..try_trait..FromResidual$LT$core..result..Result$LT$core..convert..Infallible$C$E$GT$$GT$$GT$13from_residual17h28535a88097e40bbE', symObjAddr: 0xCC, symBinAddr: 0x2E000, symSize: 0x58 }
  - { offset: 0xB7C09, size: 0x8, addend: 0x0, symName: '__ZN153_$LT$core..result..Result$LT$T$C$F$GT$$u20$as$u20$core..ops..try_trait..FromResidual$LT$core..result..Result$LT$core..convert..Infallible$C$E$GT$$GT$$GT$13from_residual17h29211bab98366e8eE', symObjAddr: 0x124, symBinAddr: 0x2E058, symSize: 0x34 }
  - { offset: 0xB7C70, size: 0x8, addend: 0x0, symName: '__ZN153_$LT$core..result..Result$LT$T$C$F$GT$$u20$as$u20$core..ops..try_trait..FromResidual$LT$core..result..Result$LT$core..convert..Infallible$C$E$GT$$GT$$GT$13from_residual17h2dd23a9924d6d7e6E', symObjAddr: 0x158, symBinAddr: 0x2E08C, symSize: 0x48 }
  - { offset: 0xB7CF5, size: 0x8, addend: 0x0, symName: '__ZN153_$LT$core..result..Result$LT$T$C$F$GT$$u20$as$u20$core..ops..try_trait..FromResidual$LT$core..result..Result$LT$core..convert..Infallible$C$E$GT$$GT$$GT$13from_residual17h2fbe1743db99e57cE', symObjAddr: 0x1A0, symBinAddr: 0x2E0D4, symSize: 0x34 }
  - { offset: 0xB7D5C, size: 0x8, addend: 0x0, symName: '__ZN153_$LT$core..result..Result$LT$T$C$F$GT$$u20$as$u20$core..ops..try_trait..FromResidual$LT$core..result..Result$LT$core..convert..Infallible$C$E$GT$$GT$$GT$13from_residual17h33e80106afc9372fE', symObjAddr: 0x1D4, symBinAddr: 0x2E108, symSize: 0x48 }
  - { offset: 0xB7DE1, size: 0x8, addend: 0x0, symName: '__ZN153_$LT$core..result..Result$LT$T$C$F$GT$$u20$as$u20$core..ops..try_trait..FromResidual$LT$core..result..Result$LT$core..convert..Infallible$C$E$GT$$GT$$GT$13from_residual17h3bab967c48077914E', symObjAddr: 0x21C, symBinAddr: 0x2E150, symSize: 0x48 }
  - { offset: 0xB7E66, size: 0x8, addend: 0x0, symName: '__ZN153_$LT$core..result..Result$LT$T$C$F$GT$$u20$as$u20$core..ops..try_trait..FromResidual$LT$core..result..Result$LT$core..convert..Infallible$C$E$GT$$GT$$GT$13from_residual17h40ccf0372b06c4eeE', symObjAddr: 0x26C, symBinAddr: 0x2E198, symSize: 0x34 }
  - { offset: 0xB7ECD, size: 0x8, addend: 0x0, symName: '__ZN153_$LT$core..result..Result$LT$T$C$F$GT$$u20$as$u20$core..ops..try_trait..FromResidual$LT$core..result..Result$LT$core..convert..Infallible$C$E$GT$$GT$$GT$13from_residual17h4ce37468faf82443E', symObjAddr: 0x2A8, symBinAddr: 0x2E1CC, symSize: 0x48 }
  - { offset: 0xB7F52, size: 0x8, addend: 0x0, symName: '__ZN153_$LT$core..result..Result$LT$T$C$F$GT$$u20$as$u20$core..ops..try_trait..FromResidual$LT$core..result..Result$LT$core..convert..Infallible$C$E$GT$$GT$$GT$13from_residual17h60a79843513309bbE', symObjAddr: 0x2F0, symBinAddr: 0x2E214, symSize: 0x58 }
  - { offset: 0xB7FBA, size: 0x8, addend: 0x0, symName: '__ZN153_$LT$core..result..Result$LT$T$C$F$GT$$u20$as$u20$core..ops..try_trait..FromResidual$LT$core..result..Result$LT$core..convert..Infallible$C$E$GT$$GT$$GT$13from_residual17h648f04770691aadbE', symObjAddr: 0x348, symBinAddr: 0x2E26C, symSize: 0x48 }
  - { offset: 0xB803F, size: 0x8, addend: 0x0, symName: '__ZN153_$LT$core..result..Result$LT$T$C$F$GT$$u20$as$u20$core..ops..try_trait..FromResidual$LT$core..result..Result$LT$core..convert..Infallible$C$E$GT$$GT$$GT$13from_residual17h6a453a6a69120a97E', symObjAddr: 0x390, symBinAddr: 0x2E2B4, symSize: 0x34 }
  - { offset: 0xB80A6, size: 0x8, addend: 0x0, symName: '__ZN153_$LT$core..result..Result$LT$T$C$F$GT$$u20$as$u20$core..ops..try_trait..FromResidual$LT$core..result..Result$LT$core..convert..Infallible$C$E$GT$$GT$$GT$13from_residual17h6f8e540f29ae0dadE', symObjAddr: 0x3C4, symBinAddr: 0x2E2E8, symSize: 0x48 }
  - { offset: 0xB812B, size: 0x8, addend: 0x0, symName: '__ZN153_$LT$core..result..Result$LT$T$C$F$GT$$u20$as$u20$core..ops..try_trait..FromResidual$LT$core..result..Result$LT$core..convert..Infallible$C$E$GT$$GT$$GT$13from_residual17h743c8611fd365e0bE', symObjAddr: 0x40C, symBinAddr: 0x2E330, symSize: 0x48 }
  - { offset: 0xB81B0, size: 0x8, addend: 0x0, symName: '__ZN153_$LT$core..result..Result$LT$T$C$F$GT$$u20$as$u20$core..ops..try_trait..FromResidual$LT$core..result..Result$LT$core..convert..Infallible$C$E$GT$$GT$$GT$13from_residual17h767a9ef24bee3e17E', symObjAddr: 0x454, symBinAddr: 0x2E378, symSize: 0x48 }
  - { offset: 0xB8235, size: 0x8, addend: 0x0, symName: '__ZN153_$LT$core..result..Result$LT$T$C$F$GT$$u20$as$u20$core..ops..try_trait..FromResidual$LT$core..result..Result$LT$core..convert..Infallible$C$E$GT$$GT$$GT$13from_residual17h79f6b062b2a7c209E', symObjAddr: 0x49C, symBinAddr: 0x2E3C0, symSize: 0x48 }
  - { offset: 0xB82BA, size: 0x8, addend: 0x0, symName: '__ZN153_$LT$core..result..Result$LT$T$C$F$GT$$u20$as$u20$core..ops..try_trait..FromResidual$LT$core..result..Result$LT$core..convert..Infallible$C$E$GT$$GT$$GT$13from_residual17h7f0377839a749e4aE', symObjAddr: 0x4E4, symBinAddr: 0x2E408, symSize: 0x48 }
  - { offset: 0xB833F, size: 0x8, addend: 0x0, symName: '__ZN153_$LT$core..result..Result$LT$T$C$F$GT$$u20$as$u20$core..ops..try_trait..FromResidual$LT$core..result..Result$LT$core..convert..Infallible$C$E$GT$$GT$$GT$13from_residual17h7fb686eba8e4a3bdE', symObjAddr: 0x52C, symBinAddr: 0x2E450, symSize: 0x48 }
  - { offset: 0xB83C4, size: 0x8, addend: 0x0, symName: '__ZN153_$LT$core..result..Result$LT$T$C$F$GT$$u20$as$u20$core..ops..try_trait..FromResidual$LT$core..result..Result$LT$core..convert..Infallible$C$E$GT$$GT$$GT$13from_residual17h8c13b433976020e8E', symObjAddr: 0x574, symBinAddr: 0x2E498, symSize: 0x58 }
  - { offset: 0xB842C, size: 0x8, addend: 0x0, symName: '__ZN153_$LT$core..result..Result$LT$T$C$F$GT$$u20$as$u20$core..ops..try_trait..FromResidual$LT$core..result..Result$LT$core..convert..Infallible$C$E$GT$$GT$$GT$13from_residual17h8c891e0523478f2bE', symObjAddr: 0x5CC, symBinAddr: 0x2E4F0, symSize: 0x34 }
  - { offset: 0xB8493, size: 0x8, addend: 0x0, symName: '__ZN153_$LT$core..result..Result$LT$T$C$F$GT$$u20$as$u20$core..ops..try_trait..FromResidual$LT$core..result..Result$LT$core..convert..Infallible$C$E$GT$$GT$$GT$13from_residual17h8d86092e41d4a1e5E', symObjAddr: 0x600, symBinAddr: 0x2E524, symSize: 0x48 }
  - { offset: 0xB8518, size: 0x8, addend: 0x0, symName: '__ZN153_$LT$core..result..Result$LT$T$C$F$GT$$u20$as$u20$core..ops..try_trait..FromResidual$LT$core..result..Result$LT$core..convert..Infallible$C$E$GT$$GT$$GT$13from_residual17h8fb04fe95833794eE', symObjAddr: 0x648, symBinAddr: 0x2E56C, symSize: 0x48 }
  - { offset: 0xB859D, size: 0x8, addend: 0x0, symName: '__ZN153_$LT$core..result..Result$LT$T$C$F$GT$$u20$as$u20$core..ops..try_trait..FromResidual$LT$core..result..Result$LT$core..convert..Infallible$C$E$GT$$GT$$GT$13from_residual17h9387db8e1b20eaf8E', symObjAddr: 0x690, symBinAddr: 0x2E5B4, symSize: 0x48 }
  - { offset: 0xB8622, size: 0x8, addend: 0x0, symName: '__ZN153_$LT$core..result..Result$LT$T$C$F$GT$$u20$as$u20$core..ops..try_trait..FromResidual$LT$core..result..Result$LT$core..convert..Infallible$C$E$GT$$GT$$GT$13from_residual17h980a3702d5632948E', symObjAddr: 0x6D8, symBinAddr: 0x2E5FC, symSize: 0x48 }
  - { offset: 0xB86A7, size: 0x8, addend: 0x0, symName: '__ZN153_$LT$core..result..Result$LT$T$C$F$GT$$u20$as$u20$core..ops..try_trait..FromResidual$LT$core..result..Result$LT$core..convert..Infallible$C$E$GT$$GT$$GT$13from_residual17hb21ddb1f6dda4442E', symObjAddr: 0x720, symBinAddr: 0x2E644, symSize: 0x48 }
  - { offset: 0xB872C, size: 0x8, addend: 0x0, symName: '__ZN153_$LT$core..result..Result$LT$T$C$F$GT$$u20$as$u20$core..ops..try_trait..FromResidual$LT$core..result..Result$LT$core..convert..Infallible$C$E$GT$$GT$$GT$13from_residual17hc974294e9bfa2915E', symObjAddr: 0x768, symBinAddr: 0x2E68C, symSize: 0x34 }
  - { offset: 0xB8793, size: 0x8, addend: 0x0, symName: '__ZN153_$LT$core..result..Result$LT$T$C$F$GT$$u20$as$u20$core..ops..try_trait..FromResidual$LT$core..result..Result$LT$core..convert..Infallible$C$E$GT$$GT$$GT$13from_residual17hccdce9470bb3fb18E', symObjAddr: 0x79C, symBinAddr: 0x2E6C0, symSize: 0x58 }
  - { offset: 0xB87FB, size: 0x8, addend: 0x0, symName: '__ZN153_$LT$core..result..Result$LT$T$C$F$GT$$u20$as$u20$core..ops..try_trait..FromResidual$LT$core..result..Result$LT$core..convert..Infallible$C$E$GT$$GT$$GT$13from_residual17hd883ecb9ea3f49a8E', symObjAddr: 0x7F4, symBinAddr: 0x2E718, symSize: 0x4C }
  - { offset: 0xB8880, size: 0x8, addend: 0x0, symName: '__ZN153_$LT$core..result..Result$LT$T$C$F$GT$$u20$as$u20$core..ops..try_trait..FromResidual$LT$core..result..Result$LT$core..convert..Infallible$C$E$GT$$GT$$GT$13from_residual17hee45f9425a8a7656E', symObjAddr: 0x840, symBinAddr: 0x2E764, symSize: 0x48 }
  - { offset: 0xB9E33, size: 0x8, addend: 0x0, symName: '__ZN4core6result23Result$LT$$RF$T$C$E$GT$6cloned28_$u7b$$u7b$closure$u7d$$u7d$17h315710590354ed83E', symObjAddr: 0x29B4, symBinAddr: 0x308D8, symSize: 0x24 }
  - { offset: 0xBBC61, size: 0x8, addend: 0x0, symName: '__ZN79_$LT$core..result..Result$LT$T$C$E$GT$$u20$as$u20$core..ops..try_trait..Try$GT$11from_output17h806649b50928e849E', symObjAddr: 0x29D8, symBinAddr: 0x308FC, symSize: 0x1C }
  - { offset: 0xBBCA1, size: 0x8, addend: 0x0, symName: '__ZN79_$LT$core..result..Result$LT$T$C$E$GT$$u20$as$u20$core..ops..try_trait..Try$GT$11from_output17ha343dc5a96d79cb3E', symObjAddr: 0x29F4, symBinAddr: 0x30918, symSize: 0x1C }
  - { offset: 0xBBCE1, size: 0x8, addend: 0x0, symName: '__ZN79_$LT$core..result..Result$LT$T$C$E$GT$$u20$as$u20$core..ops..try_trait..Try$GT$6branch17h07279920b9fe5e67E', symObjAddr: 0x2A10, symBinAddr: 0x30934, symSize: 0x5C }
  - { offset: 0xBBD5E, size: 0x8, addend: 0x0, symName: '__ZN79_$LT$core..result..Result$LT$T$C$E$GT$$u20$as$u20$core..ops..try_trait..Try$GT$6branch17h0a9b983ff4acd02aE', symObjAddr: 0x2A6C, symBinAddr: 0x30990, symSize: 0x80 }
  - { offset: 0xBBDDC, size: 0x8, addend: 0x0, symName: '__ZN79_$LT$core..result..Result$LT$T$C$E$GT$$u20$as$u20$core..ops..try_trait..Try$GT$6branch17h0c671eeb46226e96E', symObjAddr: 0x2AEC, symBinAddr: 0x30A10, symSize: 0x64 }
  - { offset: 0xBBE59, size: 0x8, addend: 0x0, symName: '__ZN79_$LT$core..result..Result$LT$T$C$E$GT$$u20$as$u20$core..ops..try_trait..Try$GT$6branch17h11efda89dc3fc512E', symObjAddr: 0x2B50, symBinAddr: 0x30A74, symSize: 0x88 }
  - { offset: 0xBBED6, size: 0x8, addend: 0x0, symName: '__ZN79_$LT$core..result..Result$LT$T$C$E$GT$$u20$as$u20$core..ops..try_trait..Try$GT$6branch17h1525bfcc72f53847E', symObjAddr: 0x2BD8, symBinAddr: 0x30AFC, symSize: 0x78 }
  - { offset: 0xBBF53, size: 0x8, addend: 0x0, symName: '__ZN79_$LT$core..result..Result$LT$T$C$E$GT$$u20$as$u20$core..ops..try_trait..Try$GT$6branch17h1a22b6f3b0ba637fE', symObjAddr: 0x2C50, symBinAddr: 0x30B74, symSize: 0x80 }
  - { offset: 0xBBFD1, size: 0x8, addend: 0x0, symName: '__ZN79_$LT$core..result..Result$LT$T$C$E$GT$$u20$as$u20$core..ops..try_trait..Try$GT$6branch17h1cc683372c64b8baE', symObjAddr: 0x2CD0, symBinAddr: 0x30BF4, symSize: 0x70 }
  - { offset: 0xBC04F, size: 0x8, addend: 0x0, symName: '__ZN79_$LT$core..result..Result$LT$T$C$E$GT$$u20$as$u20$core..ops..try_trait..Try$GT$6branch17h1d60e95a2446c711E', symObjAddr: 0x2D40, symBinAddr: 0x30C64, symSize: 0x54 }
  - { offset: 0xBC0CB, size: 0x8, addend: 0x0, symName: '__ZN79_$LT$core..result..Result$LT$T$C$E$GT$$u20$as$u20$core..ops..try_trait..Try$GT$6branch17h26e6f6e1ed3bb14bE', symObjAddr: 0x2D94, symBinAddr: 0x30CB8, symSize: 0x84 }
  - { offset: 0xBC148, size: 0x8, addend: 0x0, symName: '__ZN79_$LT$core..result..Result$LT$T$C$E$GT$$u20$as$u20$core..ops..try_trait..Try$GT$6branch17h28e1abef7da03d19E', symObjAddr: 0x2E18, symBinAddr: 0x30D3C, symSize: 0x80 }
  - { offset: 0xBC1C6, size: 0x8, addend: 0x0, symName: '__ZN79_$LT$core..result..Result$LT$T$C$E$GT$$u20$as$u20$core..ops..try_trait..Try$GT$6branch17h2afd32e856c0c600E', symObjAddr: 0x2E98, symBinAddr: 0x30DBC, symSize: 0x88 }
  - { offset: 0xBC244, size: 0x8, addend: 0x0, symName: '__ZN79_$LT$core..result..Result$LT$T$C$E$GT$$u20$as$u20$core..ops..try_trait..Try$GT$6branch17h333589351cfe90bcE', symObjAddr: 0x2F20, symBinAddr: 0x30E44, symSize: 0x44 }
  - { offset: 0xBC2C0, size: 0x8, addend: 0x0, symName: '__ZN79_$LT$core..result..Result$LT$T$C$E$GT$$u20$as$u20$core..ops..try_trait..Try$GT$6branch17h3b5863e0ab634ce6E', symObjAddr: 0x2F64, symBinAddr: 0x30E88, symSize: 0x70 }
  - { offset: 0xBC33D, size: 0x8, addend: 0x0, symName: '__ZN79_$LT$core..result..Result$LT$T$C$E$GT$$u20$as$u20$core..ops..try_trait..Try$GT$6branch17h3c2c648a835ff4bcE', symObjAddr: 0x2FD4, symBinAddr: 0x30EF8, symSize: 0x44 }
  - { offset: 0xBC3B9, size: 0x8, addend: 0x0, symName: '__ZN79_$LT$core..result..Result$LT$T$C$E$GT$$u20$as$u20$core..ops..try_trait..Try$GT$6branch17h41b99197f4fbfdc5E', symObjAddr: 0x3018, symBinAddr: 0x30F3C, symSize: 0x7C }
  - { offset: 0xBC436, size: 0x8, addend: 0x0, symName: '__ZN79_$LT$core..result..Result$LT$T$C$E$GT$$u20$as$u20$core..ops..try_trait..Try$GT$6branch17h4521139ce1e1cd4cE', symObjAddr: 0x3094, symBinAddr: 0x30FB8, symSize: 0x7C }
  - { offset: 0xBC4B3, size: 0x8, addend: 0x0, symName: '__ZN79_$LT$core..result..Result$LT$T$C$E$GT$$u20$as$u20$core..ops..try_trait..Try$GT$6branch17h4840bdd75665b344E', symObjAddr: 0x3110, symBinAddr: 0x31034, symSize: 0x84 }
  - { offset: 0xBC530, size: 0x8, addend: 0x0, symName: '__ZN79_$LT$core..result..Result$LT$T$C$E$GT$$u20$as$u20$core..ops..try_trait..Try$GT$6branch17h49d2eba1070156fdE', symObjAddr: 0x3194, symBinAddr: 0x310B8, symSize: 0x5C }
  - { offset: 0xBC5AD, size: 0x8, addend: 0x0, symName: '__ZN79_$LT$core..result..Result$LT$T$C$E$GT$$u20$as$u20$core..ops..try_trait..Try$GT$6branch17h4b701ae468feb168E', symObjAddr: 0x31F0, symBinAddr: 0x31114, symSize: 0x5C }
  - { offset: 0xBC62A, size: 0x8, addend: 0x0, symName: '__ZN79_$LT$core..result..Result$LT$T$C$E$GT$$u20$as$u20$core..ops..try_trait..Try$GT$6branch17h4c83db20b162b9daE', symObjAddr: 0x324C, symBinAddr: 0x31170, symSize: 0x80 }
  - { offset: 0xBC6A8, size: 0x8, addend: 0x0, symName: '__ZN79_$LT$core..result..Result$LT$T$C$E$GT$$u20$as$u20$core..ops..try_trait..Try$GT$6branch17h57c0871f500560d2E', symObjAddr: 0x32CC, symBinAddr: 0x311F0, symSize: 0x7C }
  - { offset: 0xBC725, size: 0x8, addend: 0x0, symName: '__ZN79_$LT$core..result..Result$LT$T$C$E$GT$$u20$as$u20$core..ops..try_trait..Try$GT$6branch17h5e3716d69aa740a9E', symObjAddr: 0x3348, symBinAddr: 0x3126C, symSize: 0x8C }
  - { offset: 0xBC7A2, size: 0x8, addend: 0x0, symName: '__ZN79_$LT$core..result..Result$LT$T$C$E$GT$$u20$as$u20$core..ops..try_trait..Try$GT$6branch17h64a2f21c51673b2cE', symObjAddr: 0x33D4, symBinAddr: 0x312F8, symSize: 0x5C }
  - { offset: 0xBC81F, size: 0x8, addend: 0x0, symName: '__ZN79_$LT$core..result..Result$LT$T$C$E$GT$$u20$as$u20$core..ops..try_trait..Try$GT$6branch17h6773b753154ca65dE', symObjAddr: 0x3430, symBinAddr: 0x31354, symSize: 0x70 }
  - { offset: 0xBC89C, size: 0x8, addend: 0x0, symName: '__ZN79_$LT$core..result..Result$LT$T$C$E$GT$$u20$as$u20$core..ops..try_trait..Try$GT$6branch17h68a03d848d7ea4e9E', symObjAddr: 0x34A0, symBinAddr: 0x313C4, symSize: 0x80 }
  - { offset: 0xBC91A, size: 0x8, addend: 0x0, symName: '__ZN79_$LT$core..result..Result$LT$T$C$E$GT$$u20$as$u20$core..ops..try_trait..Try$GT$6branch17h68eab739995fb2b1E', symObjAddr: 0x3520, symBinAddr: 0x31444, symSize: 0x3C }
  - { offset: 0xBC978, size: 0x8, addend: 0x0, symName: '__ZN79_$LT$core..result..Result$LT$T$C$E$GT$$u20$as$u20$core..ops..try_trait..Try$GT$6branch17h69b89ad0dec7fd71E', symObjAddr: 0x355C, symBinAddr: 0x31480, symSize: 0x84 }
  - { offset: 0xBC9F5, size: 0x8, addend: 0x0, symName: '__ZN79_$LT$core..result..Result$LT$T$C$E$GT$$u20$as$u20$core..ops..try_trait..Try$GT$6branch17h787f13d277e72092E', symObjAddr: 0x35E0, symBinAddr: 0x31504, symSize: 0x78 }
  - { offset: 0xBCA72, size: 0x8, addend: 0x0, symName: '__ZN79_$LT$core..result..Result$LT$T$C$E$GT$$u20$as$u20$core..ops..try_trait..Try$GT$6branch17h7a2f255e9776f29eE', symObjAddr: 0x3658, symBinAddr: 0x3157C, symSize: 0x80 }
  - { offset: 0xBCAF0, size: 0x8, addend: 0x0, symName: '__ZN79_$LT$core..result..Result$LT$T$C$E$GT$$u20$as$u20$core..ops..try_trait..Try$GT$6branch17h7abd0ae1266c4ce2E', symObjAddr: 0x36D8, symBinAddr: 0x315FC, symSize: 0x84 }
  - { offset: 0xBCB6D, size: 0x8, addend: 0x0, symName: '__ZN79_$LT$core..result..Result$LT$T$C$E$GT$$u20$as$u20$core..ops..try_trait..Try$GT$6branch17h7c88a73fbb40874eE', symObjAddr: 0x375C, symBinAddr: 0x31680, symSize: 0x5C }
  - { offset: 0xBCBEA, size: 0x8, addend: 0x0, symName: '__ZN79_$LT$core..result..Result$LT$T$C$E$GT$$u20$as$u20$core..ops..try_trait..Try$GT$6branch17h81bb292e06d5c104E', symObjAddr: 0x37B8, symBinAddr: 0x316DC, symSize: 0x7C }
  - { offset: 0xBCC67, size: 0x8, addend: 0x0, symName: '__ZN79_$LT$core..result..Result$LT$T$C$E$GT$$u20$as$u20$core..ops..try_trait..Try$GT$6branch17h85bbd33dd3a8a5d2E', symObjAddr: 0x3834, symBinAddr: 0x31758, symSize: 0xB0 }
  - { offset: 0xBCCE4, size: 0x8, addend: 0x0, symName: '__ZN79_$LT$core..result..Result$LT$T$C$E$GT$$u20$as$u20$core..ops..try_trait..Try$GT$6branch17h8ba62fe2f83875c2E', symObjAddr: 0x38E4, symBinAddr: 0x31808, symSize: 0x94 }
  - { offset: 0xBCD61, size: 0x8, addend: 0x0, symName: '__ZN79_$LT$core..result..Result$LT$T$C$E$GT$$u20$as$u20$core..ops..try_trait..Try$GT$6branch17h8dff4e65587ac417E', symObjAddr: 0x3978, symBinAddr: 0x3189C, symSize: 0x5C }
  - { offset: 0xBCDDE, size: 0x8, addend: 0x0, symName: '__ZN79_$LT$core..result..Result$LT$T$C$E$GT$$u20$as$u20$core..ops..try_trait..Try$GT$6branch17h92267039335b610cE', symObjAddr: 0x39D4, symBinAddr: 0x318F8, symSize: 0x7C }
  - { offset: 0xBCE5B, size: 0x8, addend: 0x0, symName: '__ZN79_$LT$core..result..Result$LT$T$C$E$GT$$u20$as$u20$core..ops..try_trait..Try$GT$6branch17h986d75475fe89937E', symObjAddr: 0x3A50, symBinAddr: 0x31974, symSize: 0x88 }
  - { offset: 0xBCED9, size: 0x8, addend: 0x0, symName: '__ZN79_$LT$core..result..Result$LT$T$C$E$GT$$u20$as$u20$core..ops..try_trait..Try$GT$6branch17h9cdc3207ba97bdfbE', symObjAddr: 0x3AD8, symBinAddr: 0x319FC, symSize: 0x88 }
  - { offset: 0xBCF56, size: 0x8, addend: 0x0, symName: '__ZN79_$LT$core..result..Result$LT$T$C$E$GT$$u20$as$u20$core..ops..try_trait..Try$GT$6branch17ha336ceb104d6d1b8E', symObjAddr: 0x3B60, symBinAddr: 0x31A84, symSize: 0x84 }
  - { offset: 0xBCFD3, size: 0x8, addend: 0x0, symName: '__ZN79_$LT$core..result..Result$LT$T$C$E$GT$$u20$as$u20$core..ops..try_trait..Try$GT$6branch17ha3ff56c5e87213f5E', symObjAddr: 0x3BE4, symBinAddr: 0x31B08, symSize: 0x78 }
  - { offset: 0xBD050, size: 0x8, addend: 0x0, symName: '__ZN79_$LT$core..result..Result$LT$T$C$E$GT$$u20$as$u20$core..ops..try_trait..Try$GT$6branch17ha5a61d972170c044E', symObjAddr: 0x3C5C, symBinAddr: 0x31B80, symSize: 0x44 }
  - { offset: 0xBD0CC, size: 0x8, addend: 0x0, symName: '__ZN79_$LT$core..result..Result$LT$T$C$E$GT$$u20$as$u20$core..ops..try_trait..Try$GT$6branch17hb1a09b531199cefbE', symObjAddr: 0x3CA0, symBinAddr: 0x31BC4, symSize: 0x80 }
  - { offset: 0xBD14A, size: 0x8, addend: 0x0, symName: '__ZN79_$LT$core..result..Result$LT$T$C$E$GT$$u20$as$u20$core..ops..try_trait..Try$GT$6branch17hb5dd377bc80a75c1E', symObjAddr: 0x3D20, symBinAddr: 0x31C44, symSize: 0x8C }
  - { offset: 0xBD1C8, size: 0x8, addend: 0x0, symName: '__ZN79_$LT$core..result..Result$LT$T$C$E$GT$$u20$as$u20$core..ops..try_trait..Try$GT$6branch17hb6fad8a823bee841E', symObjAddr: 0x3DAC, symBinAddr: 0x31CD0, symSize: 0x80 }
  - { offset: 0xBD246, size: 0x8, addend: 0x0, symName: '__ZN79_$LT$core..result..Result$LT$T$C$E$GT$$u20$as$u20$core..ops..try_trait..Try$GT$6branch17hba98a3b5295f2626E', symObjAddr: 0x3E2C, symBinAddr: 0x31D50, symSize: 0x70 }
  - { offset: 0xBD2C3, size: 0x8, addend: 0x0, symName: '__ZN79_$LT$core..result..Result$LT$T$C$E$GT$$u20$as$u20$core..ops..try_trait..Try$GT$6branch17hbf69257358ce65d2E', symObjAddr: 0x3E9C, symBinAddr: 0x31DC0, symSize: 0xB8 }
  - { offset: 0xBD341, size: 0x8, addend: 0x0, symName: '__ZN79_$LT$core..result..Result$LT$T$C$E$GT$$u20$as$u20$core..ops..try_trait..Try$GT$6branch17hbffd3becd8f04116E', symObjAddr: 0x3F54, symBinAddr: 0x31E78, symSize: 0x80 }
  - { offset: 0xBD3BF, size: 0x8, addend: 0x0, symName: '__ZN79_$LT$core..result..Result$LT$T$C$E$GT$$u20$as$u20$core..ops..try_trait..Try$GT$6branch17hc4fc13a0f252023eE', symObjAddr: 0x3FD4, symBinAddr: 0x31EF8, symSize: 0x8C }
  - { offset: 0xBD43D, size: 0x8, addend: 0x0, symName: '__ZN79_$LT$core..result..Result$LT$T$C$E$GT$$u20$as$u20$core..ops..try_trait..Try$GT$6branch17hc73cc54f28548707E', symObjAddr: 0x4060, symBinAddr: 0x31F84, symSize: 0x88 }
  - { offset: 0xBD4BB, size: 0x8, addend: 0x0, symName: '__ZN79_$LT$core..result..Result$LT$T$C$E$GT$$u20$as$u20$core..ops..try_trait..Try$GT$6branch17hcc1fc62e853f0860E', symObjAddr: 0x40E8, symBinAddr: 0x3200C, symSize: 0x70 }
  - { offset: 0xBD538, size: 0x8, addend: 0x0, symName: '__ZN79_$LT$core..result..Result$LT$T$C$E$GT$$u20$as$u20$core..ops..try_trait..Try$GT$6branch17hcf12ce3d888864a7E', symObjAddr: 0x4158, symBinAddr: 0x3207C, symSize: 0x80 }
  - { offset: 0xBD5B6, size: 0x8, addend: 0x0, symName: '__ZN79_$LT$core..result..Result$LT$T$C$E$GT$$u20$as$u20$core..ops..try_trait..Try$GT$6branch17hd16ebec4a078aa3fE', symObjAddr: 0x41D8, symBinAddr: 0x320FC, symSize: 0x78 }
  - { offset: 0xBD633, size: 0x8, addend: 0x0, symName: '__ZN79_$LT$core..result..Result$LT$T$C$E$GT$$u20$as$u20$core..ops..try_trait..Try$GT$6branch17hd5e9f1339902ccb0E', symObjAddr: 0x4250, symBinAddr: 0x32174, symSize: 0xB8 }
  - { offset: 0xBD6B1, size: 0x8, addend: 0x0, symName: '__ZN79_$LT$core..result..Result$LT$T$C$E$GT$$u20$as$u20$core..ops..try_trait..Try$GT$6branch17hdaf8680a2c1955b6E', symObjAddr: 0x4308, symBinAddr: 0x3222C, symSize: 0x7C }
  - { offset: 0xBD72E, size: 0x8, addend: 0x0, symName: '__ZN79_$LT$core..result..Result$LT$T$C$E$GT$$u20$as$u20$core..ops..try_trait..Try$GT$6branch17he0337f749954702eE', symObjAddr: 0x4384, symBinAddr: 0x322A8, symSize: 0x88 }
  - { offset: 0xBD7AC, size: 0x8, addend: 0x0, symName: '__ZN79_$LT$core..result..Result$LT$T$C$E$GT$$u20$as$u20$core..ops..try_trait..Try$GT$6branch17he118fb5c69fc9695E', symObjAddr: 0x440C, symBinAddr: 0x32330, symSize: 0x80 }
  - { offset: 0xBD82A, size: 0x8, addend: 0x0, symName: '__ZN79_$LT$core..result..Result$LT$T$C$E$GT$$u20$as$u20$core..ops..try_trait..Try$GT$6branch17he19a1ec8c873a121E', symObjAddr: 0x448C, symBinAddr: 0x323B0, symSize: 0x5C }
  - { offset: 0xBD8A7, size: 0x8, addend: 0x0, symName: '__ZN79_$LT$core..result..Result$LT$T$C$E$GT$$u20$as$u20$core..ops..try_trait..Try$GT$6branch17he35450f0455490c3E', symObjAddr: 0x44E8, symBinAddr: 0x3240C, symSize: 0x88 }
  - { offset: 0xBD925, size: 0x8, addend: 0x0, symName: '__ZN79_$LT$core..result..Result$LT$T$C$E$GT$$u20$as$u20$core..ops..try_trait..Try$GT$6branch17he4d43727c1b266a4E', symObjAddr: 0x4570, symBinAddr: 0x32494, symSize: 0x80 }
  - { offset: 0xBD9A3, size: 0x8, addend: 0x0, symName: '__ZN79_$LT$core..result..Result$LT$T$C$E$GT$$u20$as$u20$core..ops..try_trait..Try$GT$6branch17hea88fd84ce7f2282E', symObjAddr: 0x45F0, symBinAddr: 0x32514, symSize: 0x70 }
  - { offset: 0xBDA20, size: 0x8, addend: 0x0, symName: '__ZN79_$LT$core..result..Result$LT$T$C$E$GT$$u20$as$u20$core..ops..try_trait..Try$GT$6branch17heaa16d64e5eee351E', symObjAddr: 0x4660, symBinAddr: 0x32584, symSize: 0xB0 }
  - { offset: 0xBDA9D, size: 0x8, addend: 0x0, symName: '__ZN79_$LT$core..result..Result$LT$T$C$E$GT$$u20$as$u20$core..ops..try_trait..Try$GT$6branch17hef82ff0c896f1302E', symObjAddr: 0x4710, symBinAddr: 0x32634, symSize: 0x80 }
  - { offset: 0xBDB1B, size: 0x8, addend: 0x0, symName: '__ZN79_$LT$core..result..Result$LT$T$C$E$GT$$u20$as$u20$core..ops..try_trait..Try$GT$6branch17hf00fe701d62c58a5E', symObjAddr: 0x4790, symBinAddr: 0x326B4, symSize: 0x80 }
  - { offset: 0xBDB99, size: 0x8, addend: 0x0, symName: '__ZN79_$LT$core..result..Result$LT$T$C$E$GT$$u20$as$u20$core..ops..try_trait..Try$GT$6branch17hf1e76382a863a962E', symObjAddr: 0x4810, symBinAddr: 0x32734, symSize: 0x3C }
  - { offset: 0xBDBF7, size: 0x8, addend: 0x0, symName: '__ZN79_$LT$core..result..Result$LT$T$C$E$GT$$u20$as$u20$core..ops..try_trait..Try$GT$6branch17hf66d6823b9d739ddE', symObjAddr: 0x484C, symBinAddr: 0x32770, symSize: 0x94 }
  - { offset: 0xBDC74, size: 0x8, addend: 0x0, symName: '__ZN79_$LT$core..result..Result$LT$T$C$E$GT$$u20$as$u20$core..ops..try_trait..Try$GT$6branch17hfa979030a610c45cE', symObjAddr: 0x48E0, symBinAddr: 0x32804, symSize: 0x7C }
  - { offset: 0xBDCF1, size: 0x8, addend: 0x0, symName: '__ZN79_$LT$core..result..Result$LT$T$C$E$GT$$u20$as$u20$core..ops..try_trait..Try$GT$6branch17hff112de89b4e6e2bE', symObjAddr: 0x495C, symBinAddr: 0x32880, symSize: 0x8C }
  - { offset: 0xC5B58, size: 0x8, addend: 0x0, symName: '__ZN88_$LT$core..result..Result$LT$T$C$E$GT$$u20$as$u20$pyo3..impl_..wrap..OkWrap$LT$T$GT$$GT$4wrap17h1a9dfd0478e3955aE', symObjAddr: 0x49E8, symBinAddr: 0x3290C, symSize: 0x14 }
  - { offset: 0xC5B96, size: 0x8, addend: 0x0, symName: '__ZN88_$LT$core..result..Result$LT$T$C$E$GT$$u20$as$u20$pyo3..impl_..wrap..OkWrap$LT$T$GT$$GT$4wrap17h3817e6d5e14c522dE', symObjAddr: 0x49FC, symBinAddr: 0x32920, symSize: 0x14 }
  - { offset: 0xC5BD4, size: 0x8, addend: 0x0, symName: '__ZN88_$LT$core..result..Result$LT$T$C$E$GT$$u20$as$u20$pyo3..impl_..wrap..OkWrap$LT$T$GT$$GT$4wrap17h4a1e57541e590e56E', symObjAddr: 0x4A10, symBinAddr: 0x32934, symSize: 0x14 }
  - { offset: 0xC5C12, size: 0x8, addend: 0x0, symName: '__ZN88_$LT$core..result..Result$LT$T$C$E$GT$$u20$as$u20$pyo3..impl_..wrap..OkWrap$LT$T$GT$$GT$4wrap17h51a4ed42e3103a05E', symObjAddr: 0x4A24, symBinAddr: 0x32948, symSize: 0x14 }
  - { offset: 0xC5C50, size: 0x8, addend: 0x0, symName: '__ZN88_$LT$core..result..Result$LT$T$C$E$GT$$u20$as$u20$pyo3..impl_..wrap..OkWrap$LT$T$GT$$GT$4wrap17h6d6f95c67d2563c8E', symObjAddr: 0x4A38, symBinAddr: 0x3295C, symSize: 0x14 }
  - { offset: 0xC5C8E, size: 0x8, addend: 0x0, symName: '__ZN88_$LT$core..result..Result$LT$T$C$E$GT$$u20$as$u20$pyo3..impl_..wrap..OkWrap$LT$T$GT$$GT$4wrap17h96d269bea7b89721E', symObjAddr: 0x4A4C, symBinAddr: 0x32970, symSize: 0x14 }
  - { offset: 0xC5CCC, size: 0x8, addend: 0x0, symName: '__ZN88_$LT$core..result..Result$LT$T$C$E$GT$$u20$as$u20$pyo3..impl_..wrap..OkWrap$LT$T$GT$$GT$4wrap17hdf71bb603d105ea9E', symObjAddr: 0x4A60, symBinAddr: 0x32984, symSize: 0x14 }
  - { offset: 0xC5D0A, size: 0x8, addend: 0x0, symName: '__ZN88_$LT$core..result..Result$LT$T$C$E$GT$$u20$as$u20$pyo3..impl_..wrap..OkWrap$LT$T$GT$$GT$4wrap17hfae102929db4e978E', symObjAddr: 0x4A74, symBinAddr: 0x32998, symSize: 0x30 }
  - { offset: 0xC5F26, size: 0x8, addend: 0x0, symName: '__ZN99_$LT$core..result..Result$LT$T$C$E$GT$$u20$as$u20$pyo3..callback..IntoPyCallbackOutput$LT$U$GT$$GT$7convert17h46f026544d2dc5b8E', symObjAddr: 0x4AA4, symBinAddr: 0x329C8, symSize: 0xE4 }
  - { offset: 0xC65C2, size: 0x8, addend: 0x0, symName: '__ZN4core6result19Result$LT$T$C$E$GT$14unwrap_or_else17h0c3acdfb434e2910E', symObjAddr: 0x888, symBinAddr: 0x2E7AC, symSize: 0x74 }
  - { offset: 0xC6680, size: 0x8, addend: 0x0, symName: '__ZN4core6result19Result$LT$T$C$E$GT$14unwrap_or_else17h1fb14ff775a2d125E', symObjAddr: 0x8FC, symBinAddr: 0x2E820, symSize: 0x7C }
  - { offset: 0xC66EC, size: 0x8, addend: 0x0, symName: '__ZN4core6result19Result$LT$T$C$E$GT$14unwrap_or_else17h3b8d3c5d8b5f9e33E', symObjAddr: 0x978, symBinAddr: 0x2E89C, symSize: 0x7C }
  - { offset: 0xC6758, size: 0x8, addend: 0x0, symName: '__ZN4core6result19Result$LT$T$C$E$GT$14unwrap_or_else17hdab56c16b41e20feE', symObjAddr: 0x9F4, symBinAddr: 0x2E918, symSize: 0x7C }
  - { offset: 0xC67C4, size: 0x8, addend: 0x0, symName: '__ZN4core6result19Result$LT$T$C$E$GT$14unwrap_or_else17he1d3349d2f9e1c96E', symObjAddr: 0xA70, symBinAddr: 0x2E994, symSize: 0x7C }
  - { offset: 0xC8C43, size: 0x8, addend: 0x0, symName: '__ZN4core6result19Result$LT$T$C$E$GT$3map17h095fa9d412f9c3bdE', symObjAddr: 0xAEC, symBinAddr: 0x2EA10, symSize: 0x4C }
  - { offset: 0xC8D87, size: 0x8, addend: 0x0, symName: '__ZN4core6result19Result$LT$T$C$E$GT$3map17h0fa9e63a1846c7c9E', symObjAddr: 0xB38, symBinAddr: 0x2EA5C, symSize: 0xA4 }
  - { offset: 0xC8E84, size: 0x8, addend: 0x0, symName: '__ZN4core6result19Result$LT$T$C$E$GT$3map17h16bb5b445a6e0701E', symObjAddr: 0xBDC, symBinAddr: 0x2EB00, symSize: 0x84 }
  - { offset: 0xC8F17, size: 0x8, addend: 0x0, symName: '__ZN4core6result19Result$LT$T$C$E$GT$3map17h17ab30f226acb839E', symObjAddr: 0xC60, symBinAddr: 0x2EB84, symSize: 0x4C }
  - { offset: 0xC8FA9, size: 0x8, addend: 0x0, symName: '__ZN4core6result19Result$LT$T$C$E$GT$3map17h2071d9cc8bc3408bE', symObjAddr: 0xCAC, symBinAddr: 0x2EBD0, symSize: 0x8C }
  - { offset: 0xC903C, size: 0x8, addend: 0x0, symName: '__ZN4core6result19Result$LT$T$C$E$GT$3map17h2342255f93f78e7cE', symObjAddr: 0xD38, symBinAddr: 0x2EC5C, symSize: 0xA8 }
  - { offset: 0xC90F4, size: 0x8, addend: 0x0, symName: '__ZN4core6result19Result$LT$T$C$E$GT$3map17h2b9c5ee1baf56d2dE', symObjAddr: 0xDE0, symBinAddr: 0x2ED04, symSize: 0x88 }
  - { offset: 0xC91B0, size: 0x8, addend: 0x0, symName: '__ZN4core6result19Result$LT$T$C$E$GT$3map17h2fb42cef0c224bdaE', symObjAddr: 0xE68, symBinAddr: 0x2ED8C, symSize: 0xA8 }
  - { offset: 0xC925B, size: 0x8, addend: 0x0, symName: '__ZN4core6result19Result$LT$T$C$E$GT$3map17h32237d1262af0794E', symObjAddr: 0xF10, symBinAddr: 0x2EE34, symSize: 0x80 }
  - { offset: 0xC9306, size: 0x8, addend: 0x0, symName: '__ZN4core6result19Result$LT$T$C$E$GT$3map17h323926940e535cb5E', symObjAddr: 0xF90, symBinAddr: 0x2EEB4, symSize: 0x80 }
  - { offset: 0xC93A6, size: 0x8, addend: 0x0, symName: '__ZN4core6result19Result$LT$T$C$E$GT$3map17h3b57b56001c25128E', symObjAddr: 0x1010, symBinAddr: 0x2EF34, symSize: 0x4C }
  - { offset: 0xC9450, size: 0x8, addend: 0x0, symName: '__ZN4core6result19Result$LT$T$C$E$GT$3map17h51a2efc40b668322E', symObjAddr: 0x105C, symBinAddr: 0x2EF80, symSize: 0xA0 }
  - { offset: 0xC94E3, size: 0x8, addend: 0x0, symName: '__ZN4core6result19Result$LT$T$C$E$GT$3map17h55ffd1456053f685E', symObjAddr: 0x10FC, symBinAddr: 0x2F020, symSize: 0x80 }
  - { offset: 0xC9576, size: 0x8, addend: 0x0, symName: '__ZN4core6result19Result$LT$T$C$E$GT$3map17h64d376d1ab7e1cdcE', symObjAddr: 0x117C, symBinAddr: 0x2F0A0, symSize: 0x98 }
  - { offset: 0xC9616, size: 0x8, addend: 0x0, symName: '__ZN4core6result19Result$LT$T$C$E$GT$3map17h73a7096ce5c68063E', symObjAddr: 0x1214, symBinAddr: 0x2F138, symSize: 0x88 }
  - { offset: 0xC96B6, size: 0x8, addend: 0x0, symName: '__ZN4core6result19Result$LT$T$C$E$GT$3map17h7c60775aeee6cb81E', symObjAddr: 0x129C, symBinAddr: 0x2F1C0, symSize: 0x4C }
  - { offset: 0xC9755, size: 0x8, addend: 0x0, symName: '__ZN4core6result19Result$LT$T$C$E$GT$3map17h7e062fc4b241b2a9E', symObjAddr: 0x12E8, symBinAddr: 0x2F20C, symSize: 0x4C }
  - { offset: 0xC97E7, size: 0x8, addend: 0x0, symName: '__ZN4core6result19Result$LT$T$C$E$GT$3map17h85077e76fff7b11cE', symObjAddr: 0x1334, symBinAddr: 0x2F258, symSize: 0xA8 }
  - { offset: 0xC9892, size: 0x8, addend: 0x0, symName: '__ZN4core6result19Result$LT$T$C$E$GT$3map17h87c84f2a353d0a60E', symObjAddr: 0x13DC, symBinAddr: 0x2F300, symSize: 0x80 }
  - { offset: 0xC993D, size: 0x8, addend: 0x0, symName: '__ZN4core6result19Result$LT$T$C$E$GT$3map17h9ff1cbfe5b746bc9E', symObjAddr: 0x145C, symBinAddr: 0x2F380, symSize: 0x8C }
  - { offset: 0xC99E8, size: 0x8, addend: 0x0, symName: '__ZN4core6result19Result$LT$T$C$E$GT$3map17hac6ca801a8ef6352E', symObjAddr: 0x14E8, symBinAddr: 0x2F40C, symSize: 0x80 }
  - { offset: 0xC9A7B, size: 0x8, addend: 0x0, symName: '__ZN4core6result19Result$LT$T$C$E$GT$3map17hb857dcfec92fad43E', symObjAddr: 0x1568, symBinAddr: 0x2F48C, symSize: 0x80 }
  - { offset: 0xC9B0E, size: 0x8, addend: 0x0, symName: '__ZN4core6result19Result$LT$T$C$E$GT$3map17hc99f72ea1c3acb1fE', symObjAddr: 0x15E8, symBinAddr: 0x2F50C, symSize: 0x54 }
  - { offset: 0xC9BB8, size: 0x8, addend: 0x0, symName: '__ZN4core6result19Result$LT$T$C$E$GT$3map17hd149c5fa3f8c6e2bE', symObjAddr: 0x163C, symBinAddr: 0x2F560, symSize: 0xA4 }
  - { offset: 0xC9C63, size: 0x8, addend: 0x0, symName: '__ZN4core6result19Result$LT$T$C$E$GT$3map17hd68e4f019e385a47E', symObjAddr: 0x16E0, symBinAddr: 0x2F604, symSize: 0x80 }
  - { offset: 0xC9CF6, size: 0x8, addend: 0x0, symName: '__ZN4core6result19Result$LT$T$C$E$GT$3map17hdb7ff0aaac534dc0E', symObjAddr: 0x1760, symBinAddr: 0x2F684, symSize: 0xA8 }
  - { offset: 0xC9DA1, size: 0x8, addend: 0x0, symName: '__ZN4core6result19Result$LT$T$C$E$GT$3map17hee6fccf06ef67736E', symObjAddr: 0x1808, symBinAddr: 0x2F72C, symSize: 0xA4 }
  - { offset: 0xC9E34, size: 0x8, addend: 0x0, symName: '__ZN4core6result19Result$LT$T$C$E$GT$3map17hf2fd8add4bb034aaE', symObjAddr: 0x18AC, symBinAddr: 0x2F7D0, symSize: 0x8C }
  - { offset: 0xC9EC7, size: 0x8, addend: 0x0, symName: '__ZN4core6result19Result$LT$T$C$E$GT$3map17hf5b52565a4479ae7E', symObjAddr: 0x1938, symBinAddr: 0x2F85C, symSize: 0xC4 }
  - { offset: 0xC9F8C, size: 0x8, addend: 0x0, symName: '__ZN4core6result19Result$LT$T$C$E$GT$6is_err17h34753343b6bc5f1dE', symObjAddr: 0x19FC, symBinAddr: 0x2F920, symSize: 0x20 }
  - { offset: 0xC9FF7, size: 0x8, addend: 0x0, symName: '__ZN4core6result19Result$LT$T$C$E$GT$7map_err17h02c5beab95d8f1eeE', symObjAddr: 0x1A1C, symBinAddr: 0x2F940, symSize: 0xD0 }
  - { offset: 0xCA0A3, size: 0x8, addend: 0x0, symName: '__ZN4core6result19Result$LT$T$C$E$GT$7map_err17h06a23eb4fd763562E', symObjAddr: 0x1AEC, symBinAddr: 0x2FA10, symSize: 0xA4 }
  - { offset: 0xCA14E, size: 0x8, addend: 0x0, symName: '__ZN4core6result19Result$LT$T$C$E$GT$7map_err17h09b2401bc005f62aE', symObjAddr: 0x1B90, symBinAddr: 0x2FAB4, symSize: 0x78 }
  - { offset: 0xCA1F8, size: 0x8, addend: 0x0, symName: '__ZN4core6result19Result$LT$T$C$E$GT$7map_err17h0c3af701cc6b5c8fE', symObjAddr: 0x1C08, symBinAddr: 0x2FB2C, symSize: 0xA4 }
  - { offset: 0xCA28B, size: 0x8, addend: 0x0, symName: '__ZN4core6result19Result$LT$T$C$E$GT$7map_err17h110462a54e853d7dE', symObjAddr: 0x1CAC, symBinAddr: 0x2FBD0, symSize: 0xAC }
  - { offset: 0xCA336, size: 0x8, addend: 0x0, symName: '__ZN4core6result19Result$LT$T$C$E$GT$7map_err17h285ace3b60b559adE', symObjAddr: 0x1D58, symBinAddr: 0x2FC7C, symSize: 0xA8 }
  - { offset: 0xCA3E1, size: 0x8, addend: 0x0, symName: '__ZN4core6result19Result$LT$T$C$E$GT$7map_err17h287782d2245182b2E', symObjAddr: 0x1E00, symBinAddr: 0x2FD24, symSize: 0x70 }
  - { offset: 0xCA473, size: 0x8, addend: 0x0, symName: '__ZN4core6result19Result$LT$T$C$E$GT$7map_err17h35b599b8232ce616E', symObjAddr: 0x1E70, symBinAddr: 0x2FD94, symSize: 0x90 }
  - { offset: 0xCA506, size: 0x8, addend: 0x0, symName: '__ZN4core6result19Result$LT$T$C$E$GT$7map_err17h36a8389ae60d253cE', symObjAddr: 0x1F00, symBinAddr: 0x2FE24, symSize: 0x88 }
  - { offset: 0xCA599, size: 0x8, addend: 0x0, symName: '__ZN4core6result19Result$LT$T$C$E$GT$7map_err17h41db100591c2ad60E', symObjAddr: 0x1F88, symBinAddr: 0x2FEAC, symSize: 0x98 }
  - { offset: 0xCA671, size: 0x8, addend: 0x0, symName: '__ZN4core6result19Result$LT$T$C$E$GT$7map_err17h42752c8c9a9d5765E', symObjAddr: 0x2020, symBinAddr: 0x2FF44, symSize: 0xD0 }
  - { offset: 0xCA705, size: 0x8, addend: 0x0, symName: '__ZN4core6result19Result$LT$T$C$E$GT$7map_err17h5d4c8f698212be04E', symObjAddr: 0x20F0, symBinAddr: 0x30014, symSize: 0xAC }
  - { offset: 0xCA802, size: 0x8, addend: 0x0, symName: '__ZN4core6result19Result$LT$T$C$E$GT$7map_err17h692366e0610a5128E', symObjAddr: 0x219C, symBinAddr: 0x300C0, symSize: 0x74 }
  - { offset: 0xCA894, size: 0x8, addend: 0x0, symName: '__ZN4core6result19Result$LT$T$C$E$GT$7map_err17h6d73c8ad4fc72c87E', symObjAddr: 0x2210, symBinAddr: 0x30134, symSize: 0xAC }
  - { offset: 0xCA93F, size: 0x8, addend: 0x0, symName: '__ZN4core6result19Result$LT$T$C$E$GT$7map_err17h85f9b7e2ba47c868E', symObjAddr: 0x22BC, symBinAddr: 0x301E0, symSize: 0x30 }
  - { offset: 0xCA9B3, size: 0x8, addend: 0x0, symName: '__ZN4core6result19Result$LT$T$C$E$GT$7map_err17h8b57652a7446ab3bE', symObjAddr: 0x22EC, symBinAddr: 0x30210, symSize: 0x78 }
  - { offset: 0xCAA5D, size: 0x8, addend: 0x0, symName: '__ZN4core6result19Result$LT$T$C$E$GT$7map_err17h9589a05e896f0605E', symObjAddr: 0x2364, symBinAddr: 0x30288, symSize: 0x78 }
  - { offset: 0xCAAEF, size: 0x8, addend: 0x0, symName: '__ZN4core6result19Result$LT$T$C$E$GT$7map_err17ha2f3eadc24c7bc47E', symObjAddr: 0x23DC, symBinAddr: 0x30300, symSize: 0xBC }
  - { offset: 0xCAB83, size: 0x8, addend: 0x0, symName: '__ZN4core6result19Result$LT$T$C$E$GT$7map_err17ha837429a14e84989E', symObjAddr: 0x2498, symBinAddr: 0x303BC, symSize: 0x20 }
  - { offset: 0xCABF7, size: 0x8, addend: 0x0, symName: '__ZN4core6result19Result$LT$T$C$E$GT$7map_err17hb1587ba67e9d6cdfE', symObjAddr: 0x24B8, symBinAddr: 0x303DC, symSize: 0xB8 }
  - { offset: 0xCAC8A, size: 0x8, addend: 0x0, symName: '__ZN4core6result19Result$LT$T$C$E$GT$7map_err17hb4d4309e24ae42d5E', symObjAddr: 0x2570, symBinAddr: 0x30494, symSize: 0xA4 }
  - { offset: 0xCAD1D, size: 0x8, addend: 0x0, symName: '__ZN4core6result19Result$LT$T$C$E$GT$7map_err17hd25fdd4d99d58f64E', symObjAddr: 0x2614, symBinAddr: 0x30538, symSize: 0xCC }
  - { offset: 0xCADB1, size: 0x8, addend: 0x0, symName: '__ZN4core6result19Result$LT$T$C$E$GT$7map_err17hd45573d1ecc5f2bcE', symObjAddr: 0x26E0, symBinAddr: 0x30604, symSize: 0xAC }
  - { offset: 0xCAE44, size: 0x8, addend: 0x0, symName: '__ZN4core6result19Result$LT$T$C$E$GT$7map_err17hda958e846354f255E', symObjAddr: 0x278C, symBinAddr: 0x306B0, symSize: 0x70 }
  - { offset: 0xCAED6, size: 0x8, addend: 0x0, symName: '__ZN4core6result19Result$LT$T$C$E$GT$7map_err17he23aeca54ab9fe4fE', symObjAddr: 0x27FC, symBinAddr: 0x30720, symSize: 0x3C }
  - { offset: 0xCAF4A, size: 0x8, addend: 0x0, symName: '__ZN4core6result19Result$LT$T$C$E$GT$7map_err17he5700ce508c24e17E', symObjAddr: 0x2838, symBinAddr: 0x3075C, symSize: 0x78 }
  - { offset: 0xCAFDC, size: 0x8, addend: 0x0, symName: '__ZN4core6result19Result$LT$T$C$E$GT$7map_err17hf822a5af94f608a3E', symObjAddr: 0x28B0, symBinAddr: 0x307D4, symSize: 0x78 }
  - { offset: 0xCB06E, size: 0x8, addend: 0x0, symName: '__ZN4core6result19Result$LT$T$C$E$GT$8and_then17h839eba157a87c489E', symObjAddr: 0x2928, symBinAddr: 0x3084C, symSize: 0x78 }
  - { offset: 0xCB101, size: 0x8, addend: 0x0, symName: '__ZN4core6result23Result$LT$$RF$T$C$E$GT$6cloned17h0f90baf0b474005cE', symObjAddr: 0x29A0, symBinAddr: 0x308C4, symSize: 0x14 }
  - { offset: 0xCB269, size: 0x8, addend: 0x0, symName: '__ZN4core3mem13manually_drop21ManuallyDrop$LT$T$GT$4drop17h1c51d980c8edac0dE', symObjAddr: 0x0, symBinAddr: 0x32AAC, symSize: 0x24 }
  - { offset: 0xCCC63, size: 0x8, addend: 0x0, symName: '__ZN4core3mem13manually_drop21ManuallyDrop$LT$T$GT$4drop17h1c51d980c8edac0dE', symObjAddr: 0x0, symBinAddr: 0x32AAC, symSize: 0x24 }
  - { offset: 0xCE4A0, size: 0x8, addend: 0x0, symName: '__ZN4core3mem13manually_drop21ManuallyDrop$LT$T$GT$4drop17h2016c9239597088eE', symObjAddr: 0x24, symBinAddr: 0x32AD0, symSize: 0x24 }
  - { offset: 0xCE4D8, size: 0x8, addend: 0x0, symName: '__ZN4core3mem13manually_drop21ManuallyDrop$LT$T$GT$4drop17h402e75dfd6a01f47E', symObjAddr: 0x48, symBinAddr: 0x32AF4, symSize: 0x24 }
  - { offset: 0xCE510, size: 0x8, addend: 0x0, symName: '__ZN4core3mem13manually_drop21ManuallyDrop$LT$T$GT$4drop17hed6d9a6f01cc8a92E', symObjAddr: 0x6C, symBinAddr: 0x32B18, symSize: 0x24 }
  - { offset: 0xCE559, size: 0x8, addend: 0x0, symName: _PyInit_sekejap, symObjAddr: 0x0, symBinAddr: 0x32B3C, symSize: 0x34 }
  - { offset: 0xCE57E, size: 0x8, addend: 0x0, symName: __ZN7sekejap7sekejap9_PYO3_DEF17h57f0159d3858fae7E, symObjAddr: 0x50, symBinAddr: 0x4943B8, symSize: 0x0 }
  - { offset: 0xCE58B, size: 0x8, addend: 0x0, symName: _PyInit_sekejap, symObjAddr: 0x0, symBinAddr: 0x32B3C, symSize: 0x34 }
  - { offset: 0xD01E3, size: 0x8, addend: 0x0, symName: '__ZN117_$LT$serde..private..de..missing_field..MissingFieldDeserializer$LT$E$GT$$u20$as$u20$serde_core..de..Deserializer$GT$15deserialize_any17h0d51aa900a856212E', symObjAddr: 0x0, symBinAddr: 0x32B70, symSize: 0x60 }
  - { offset: 0xD077A, size: 0x8, addend: 0x0, symName: '__ZN117_$LT$serde..private..de..missing_field..MissingFieldDeserializer$LT$E$GT$$u20$as$u20$serde_core..de..Deserializer$GT$15deserialize_any17h0d51aa900a856212E', symObjAddr: 0x0, symBinAddr: 0x32B70, symSize: 0x60 }
  - { offset: 0xD07C6, size: 0x8, addend: 0x0, symName: '__ZN117_$LT$serde..private..de..missing_field..MissingFieldDeserializer$LT$E$GT$$u20$as$u20$serde_core..de..Deserializer$GT$15deserialize_any17h34172a09cbbd3523E', symObjAddr: 0x60, symBinAddr: 0x32BD0, symSize: 0x60 }
  - { offset: 0xD0812, size: 0x8, addend: 0x0, symName: '__ZN117_$LT$serde..private..de..missing_field..MissingFieldDeserializer$LT$E$GT$$u20$as$u20$serde_core..de..Deserializer$GT$15deserialize_any17h5591c2beab3ba25bE', symObjAddr: 0xC0, symBinAddr: 0x32C30, symSize: 0x60 }
  - { offset: 0xD085E, size: 0x8, addend: 0x0, symName: '__ZN117_$LT$serde..private..de..missing_field..MissingFieldDeserializer$LT$E$GT$$u20$as$u20$serde_core..de..Deserializer$GT$15deserialize_any17h6ea6f543a7f1cf0dE', symObjAddr: 0x120, symBinAddr: 0x32C90, symSize: 0x60 }
  - { offset: 0xD08AA, size: 0x8, addend: 0x0, symName: '__ZN117_$LT$serde..private..de..missing_field..MissingFieldDeserializer$LT$E$GT$$u20$as$u20$serde_core..de..Deserializer$GT$15deserialize_any17h77df5c06f85241e5E', symObjAddr: 0x180, symBinAddr: 0x32CF0, symSize: 0x54 }
  - { offset: 0xD08F6, size: 0x8, addend: 0x0, symName: '__ZN117_$LT$serde..private..de..missing_field..MissingFieldDeserializer$LT$E$GT$$u20$as$u20$serde_core..de..Deserializer$GT$15deserialize_any17h890f86d48bcfd9f1E', symObjAddr: 0x1D4, symBinAddr: 0x32D44, symSize: 0x5C }
  - { offset: 0xD0942, size: 0x8, addend: 0x0, symName: '__ZN117_$LT$serde..private..de..missing_field..MissingFieldDeserializer$LT$E$GT$$u20$as$u20$serde_core..de..Deserializer$GT$15deserialize_any17hd4454b1d3d3efa4fE', symObjAddr: 0x230, symBinAddr: 0x32DA0, symSize: 0x60 }
  - { offset: 0xD098E, size: 0x8, addend: 0x0, symName: '__ZN117_$LT$serde..private..de..missing_field..MissingFieldDeserializer$LT$E$GT$$u20$as$u20$serde_core..de..Deserializer$GT$15deserialize_any17hd8e9c9c9f261cb91E', symObjAddr: 0x290, symBinAddr: 0x32E00, symSize: 0x60 }
  - { offset: 0xD09DA, size: 0x8, addend: 0x0, symName: '__ZN117_$LT$serde..private..de..missing_field..MissingFieldDeserializer$LT$E$GT$$u20$as$u20$serde_core..de..Deserializer$GT$15deserialize_f6417h9504d714aff0098bE', symObjAddr: 0x2F0, symBinAddr: 0x32E60, symSize: 0x28 }
  - { offset: 0xD0A26, size: 0x8, addend: 0x0, symName: '__ZN117_$LT$serde..private..de..missing_field..MissingFieldDeserializer$LT$E$GT$$u20$as$u20$serde_core..de..Deserializer$GT$15deserialize_map17h01557e40586ad159E', symObjAddr: 0x318, symBinAddr: 0x32E88, symSize: 0x28 }
  - { offset: 0xD0A72, size: 0x8, addend: 0x0, symName: '__ZN117_$LT$serde..private..de..missing_field..MissingFieldDeserializer$LT$E$GT$$u20$as$u20$serde_core..de..Deserializer$GT$15deserialize_seq17h4f650b77ed8032b8E', symObjAddr: 0x340, symBinAddr: 0x32EB0, symSize: 0x28 }
  - { offset: 0xD0ABE, size: 0x8, addend: 0x0, symName: '__ZN117_$LT$serde..private..de..missing_field..MissingFieldDeserializer$LT$E$GT$$u20$as$u20$serde_core..de..Deserializer$GT$15deserialize_seq17hf166932056c66310E', symObjAddr: 0x368, symBinAddr: 0x32ED8, symSize: 0x28 }
  - { offset: 0xD0B0A, size: 0x8, addend: 0x0, symName: '__ZN117_$LT$serde..private..de..missing_field..MissingFieldDeserializer$LT$E$GT$$u20$as$u20$serde_core..de..Deserializer$GT$15deserialize_u3217hc40c07f8c3061834E', symObjAddr: 0x390, symBinAddr: 0x32F00, symSize: 0x28 }
  - { offset: 0xD0B56, size: 0x8, addend: 0x0, symName: '__ZN117_$LT$serde..private..de..missing_field..MissingFieldDeserializer$LT$E$GT$$u20$as$u20$serde_core..de..Deserializer$GT$15deserialize_u6417h210c191093a534ceE', symObjAddr: 0x3B8, symBinAddr: 0x32F28, symSize: 0x28 }
  - { offset: 0xD0BA2, size: 0x8, addend: 0x0, symName: '__ZN117_$LT$serde..private..de..missing_field..MissingFieldDeserializer$LT$E$GT$$u20$as$u20$serde_core..de..Deserializer$GT$18deserialize_option17h8967ba1ac688a233E', symObjAddr: 0x3E0, symBinAddr: 0x32F50, symSize: 0x24 }
  - { offset: 0xD0BEE, size: 0x8, addend: 0x0, symName: '__ZN117_$LT$serde..private..de..missing_field..MissingFieldDeserializer$LT$E$GT$$u20$as$u20$serde_core..de..Deserializer$GT$18deserialize_option17h90d24e18b63b56a6E', symObjAddr: 0x404, symBinAddr: 0x32F74, symSize: 0x24 }
  - { offset: 0xD0C3A, size: 0x8, addend: 0x0, symName: '__ZN117_$LT$serde..private..de..missing_field..MissingFieldDeserializer$LT$E$GT$$u20$as$u20$serde_core..de..Deserializer$GT$18deserialize_option17hc1ca9777db5a063cE', symObjAddr: 0x428, symBinAddr: 0x32F98, symSize: 0x24 }
  - { offset: 0xD0C86, size: 0x8, addend: 0x0, symName: '__ZN117_$LT$serde..private..de..missing_field..MissingFieldDeserializer$LT$E$GT$$u20$as$u20$serde_core..de..Deserializer$GT$18deserialize_option17hc7780826e35855a1E', symObjAddr: 0x44C, symBinAddr: 0x32FBC, symSize: 0x24 }
  - { offset: 0xD0CD2, size: 0x8, addend: 0x0, symName: '__ZN117_$LT$serde..private..de..missing_field..MissingFieldDeserializer$LT$E$GT$$u20$as$u20$serde_core..de..Deserializer$GT$18deserialize_option17hcde0e4f4593012acE', symObjAddr: 0x470, symBinAddr: 0x32FE0, symSize: 0x24 }
  - { offset: 0xD0D1E, size: 0x8, addend: 0x0, symName: '__ZN117_$LT$serde..private..de..missing_field..MissingFieldDeserializer$LT$E$GT$$u20$as$u20$serde_core..de..Deserializer$GT$18deserialize_struct17hca8650baec35c1a0E', symObjAddr: 0x494, symBinAddr: 0x33004, symSize: 0x38 }
  - { offset: 0xD0DB2, size: 0x8, addend: 0x0, symName: __ZN5serde7private2de13missing_field17h0b334d4dc87521f0E, symObjAddr: 0x4CC, symBinAddr: 0x3303C, symSize: 0x34 }
  - { offset: 0xD0E0D, size: 0x8, addend: 0x0, symName: __ZN5serde7private2de13missing_field17h1ea4f85f2ea2e7c0E, symObjAddr: 0x500, symBinAddr: 0x33070, symSize: 0x34 }
  - { offset: 0xD0E68, size: 0x8, addend: 0x0, symName: __ZN5serde7private2de13missing_field17h221cc8a6aa32923fE, symObjAddr: 0x534, symBinAddr: 0x330A4, symSize: 0x34 }
  - { offset: 0xD0EC3, size: 0x8, addend: 0x0, symName: __ZN5serde7private2de13missing_field17h276c059c18192778E, symObjAddr: 0x568, symBinAddr: 0x330D8, symSize: 0x34 }
  - { offset: 0xD0F1E, size: 0x8, addend: 0x0, symName: __ZN5serde7private2de13missing_field17h2844b4a00694eabbE, symObjAddr: 0x59C, symBinAddr: 0x3310C, symSize: 0x34 }
  - { offset: 0xD0F79, size: 0x8, addend: 0x0, symName: __ZN5serde7private2de13missing_field17h43d6a53ccfbc10dbE, symObjAddr: 0x5D0, symBinAddr: 0x33140, symSize: 0x34 }
  - { offset: 0xD0FD4, size: 0x8, addend: 0x0, symName: __ZN5serde7private2de13missing_field17h62ef76c39594f64cE, symObjAddr: 0x604, symBinAddr: 0x33174, symSize: 0x34 }
  - { offset: 0xD102F, size: 0x8, addend: 0x0, symName: __ZN5serde7private2de13missing_field17h821de5a34200ffeaE, symObjAddr: 0x638, symBinAddr: 0x331A8, symSize: 0x34 }
  - { offset: 0xD108A, size: 0x8, addend: 0x0, symName: __ZN5serde7private2de13missing_field17hc53192f1012e3837E, symObjAddr: 0x66C, symBinAddr: 0x331DC, symSize: 0x34 }
  - { offset: 0xD10E5, size: 0x8, addend: 0x0, symName: __ZN5serde7private2de13missing_field17hd1835322b6fba963E, symObjAddr: 0x6A0, symBinAddr: 0x33210, symSize: 0x34 }
  - { offset: 0xD1140, size: 0x8, addend: 0x0, symName: __ZN5serde7private2de13missing_field17hd776bb4cc6ad99e2E, symObjAddr: 0x6D4, symBinAddr: 0x33244, symSize: 0x34 }
  - { offset: 0xD119B, size: 0x8, addend: 0x0, symName: __ZN5serde7private2de13missing_field17he73ec71024aa12d6E, symObjAddr: 0x708, symBinAddr: 0x33278, symSize: 0x34 }
  - { offset: 0xD11F6, size: 0x8, addend: 0x0, symName: __ZN5serde7private2de13missing_field17hf4ab3f175dc7aa68E, symObjAddr: 0x73C, symBinAddr: 0x332AC, symSize: 0x34 }
  - { offset: 0xD2FB0, size: 0x8, addend: 0x0, symName: '__ZN10serde_json5value2de82_$LT$impl$u20$serde_core..de..Deserialize$u20$for$u20$serde_json..value..Value$GT$11deserialize17h0b4eb932de7fa027E', symObjAddr: 0x0, symBinAddr: 0x332E0, symSize: 0x24 }
  - { offset: 0xD3236, size: 0x8, addend: 0x0, symName: '__ZN10serde_json5value2de82_$LT$impl$u20$serde_core..de..Deserialize$u20$for$u20$serde_json..value..Value$GT$11deserialize17h0b4eb932de7fa027E', symObjAddr: 0x0, symBinAddr: 0x332E0, symSize: 0x24 }
  - { offset: 0xD326B, size: 0x8, addend: 0x0, symName: '__ZN10serde_json5value2de82_$LT$impl$u20$serde_core..de..Deserialize$u20$for$u20$serde_json..value..Value$GT$11deserialize17hdab733da50746ac9E', symObjAddr: 0x24, symBinAddr: 0x33304, symSize: 0x28 }
  - { offset: 0xD3FEC, size: 0x8, addend: 0x0, symName: '__ZN4core4cell13Cell$LT$T$GT$3new17hcd7f47638207e47bE', symObjAddr: 0x0, symBinAddr: 0x3332C, symSize: 0x10 }
  - { offset: 0xD408E, size: 0x8, addend: 0x0, symName: '__ZN4core4cell13Cell$LT$T$GT$3new17hcd7f47638207e47bE', symObjAddr: 0x0, symBinAddr: 0x3332C, symSize: 0x10 }
  - { offset: 0xD40D8, size: 0x8, addend: 0x0, symName: '__ZN5alloc5boxed7convert176_$LT$impl$u20$core..convert..From$LT$alloc..string..String$GT$$u20$for$u20$alloc..boxed..Box$LT$dyn$u20$core..error..Error$u2b$core..marker..Sync$u2b$core..marker..Send$GT$$GT$4from17hf2364929c44d19e0E', symObjAddr: 0x0, symBinAddr: 0x3333C, symSize: 0x84 }
  - { offset: 0xD4122, size: 0x8, addend: 0x0, symName: '__ZN5alloc5boxed7convert176_$LT$impl$u20$core..convert..From$LT$alloc..string..String$GT$$u20$for$u20$alloc..boxed..Box$LT$dyn$u20$core..error..Error$u2b$core..marker..Sync$u2b$core..marker..Send$GT$$GT$4from17hf2364929c44d19e0E', symObjAddr: 0x0, symBinAddr: 0x3333C, symSize: 0x84 }
  - { offset: 0xD4398, size: 0x8, addend: 0x0, symName: '__ZN4pyo35types10boolobject116_$LT$impl$u20$pyo3..conversion..IntoPy$LT$pyo3..instance..Py$LT$pyo3..types..any..PyAny$GT$$GT$$u20$for$u20$bool$GT$7into_py17h9fa66f3c91d2aaddE', symObjAddr: 0x0, symBinAddr: 0x333C0, symSize: 0x24 }
  - { offset: 0xD54F9, size: 0x8, addend: 0x0, symName: '__ZN4pyo35types10boolobject116_$LT$impl$u20$pyo3..conversion..IntoPy$LT$pyo3..instance..Py$LT$pyo3..types..any..PyAny$GT$$GT$$u20$for$u20$bool$GT$7into_py17h9fa66f3c91d2aaddE', symObjAddr: 0x0, symBinAddr: 0x333C0, symSize: 0x24 }
  - { offset: 0xD5B56, size: 0x8, addend: 0x0, symName: __ZN4pyo35types10boolobject6PyBool9new_bound17h70586d67b7d34cc7E, symObjAddr: 0x24, symBinAddr: 0x333E4, symSize: 0x50 }
  - { offset: 0xD5BAF, size: 0x8, addend: 0x0, symName: '__ZN4pyo311conversions3std3vec136_$LT$impl$u20$pyo3..conversion..IntoPy$LT$pyo3..instance..Py$LT$pyo3..types..any..PyAny$GT$$GT$$u20$for$u20$alloc..vec..Vec$LT$T$GT$$GT$7into_py28_$u7b$$u7b$closure$u7d$$u7d$17h07493c67fbb4306fE', symObjAddr: 0x0, symBinAddr: 0x33434, symSize: 0x38 }
  - { offset: 0xD6DDF, size: 0x8, addend: 0x0, symName: '__ZN4pyo311conversions3std3vec136_$LT$impl$u20$pyo3..conversion..IntoPy$LT$pyo3..instance..Py$LT$pyo3..types..any..PyAny$GT$$GT$$u20$for$u20$alloc..vec..Vec$LT$T$GT$$GT$7into_py28_$u7b$$u7b$closure$u7d$$u7d$17h07493c67fbb4306fE', symObjAddr: 0x0, symBinAddr: 0x33434, symSize: 0x38 }
  - { offset: 0xD6E2E, size: 0x8, addend: 0x0, symName: '__ZN4pyo311conversions3std3vec136_$LT$impl$u20$pyo3..conversion..IntoPy$LT$pyo3..instance..Py$LT$pyo3..types..any..PyAny$GT$$GT$$u20$for$u20$alloc..vec..Vec$LT$T$GT$$GT$7into_py28_$u7b$$u7b$closure$u7d$$u7d$17h1773eb16bfd298ccE', symObjAddr: 0x38, symBinAddr: 0x3346C, symSize: 0x38 }
  - { offset: 0xD6E7D, size: 0x8, addend: 0x0, symName: '__ZN4pyo311conversions3std3vec136_$LT$impl$u20$pyo3..conversion..IntoPy$LT$pyo3..instance..Py$LT$pyo3..types..any..PyAny$GT$$GT$$u20$for$u20$alloc..vec..Vec$LT$T$GT$$GT$7into_py28_$u7b$$u7b$closure$u7d$$u7d$17h56049dce740e042fE', symObjAddr: 0x70, symBinAddr: 0x334A4, symSize: 0x34 }
  - { offset: 0xD6ECC, size: 0x8, addend: 0x0, symName: '__ZN4pyo311conversions3std3vec136_$LT$impl$u20$pyo3..conversion..IntoPy$LT$pyo3..instance..Py$LT$pyo3..types..any..PyAny$GT$$GT$$u20$for$u20$alloc..vec..Vec$LT$T$GT$$GT$7into_py28_$u7b$$u7b$closure$u7d$$u7d$17hdba95ce9112b871dE', symObjAddr: 0xA4, symBinAddr: 0x334D8, symSize: 0x38 }
  - { offset: 0xD76C3, size: 0x8, addend: 0x0, symName: __ZN4pyo35impl_10trampoline11module_init17hb41d1ca4f7ac5b17E, symObjAddr: 0x0, symBinAddr: 0x33510, symSize: 0x28 }
  - { offset: 0xD8993, size: 0x8, addend: 0x0, symName: __ZN4pyo35impl_10trampoline11module_init17hb41d1ca4f7ac5b17E, symObjAddr: 0x0, symBinAddr: 0x33510, symSize: 0x28 }
  - { offset: 0xD89BF, size: 0x8, addend: 0x0, symName: __ZN4pyo35impl_10trampoline22fastcall_with_keywords17hc69553cbc265b0b1E, symObjAddr: 0x28, symBinAddr: 0x33538, symSize: 0x5C }
  - { offset: 0xD8A23, size: 0x8, addend: 0x0, symName: __ZN4pyo35impl_10trampoline6noargs17hd0b74ff7e1dfbbbdE, symObjAddr: 0x84, symBinAddr: 0x33594, symSize: 0x64 }
  - { offset: 0xD8A6B, size: 0x8, addend: 0x0, symName: __ZN4pyo35impl_10trampoline7dealloc17h4607bbf4189e0997E, symObjAddr: 0xE8, symBinAddr: 0x335F8, symSize: 0x34 }
  - { offset: 0xD8AA1, size: 0x8, addend: 0x0, symName: __ZN4pyo35impl_10trampoline7newfunc17h5034e288ce76c937E, symObjAddr: 0x11C, symBinAddr: 0x3362C, symSize: 0x50 }
  - { offset: 0xD8AF7, size: 0x8, addend: 0x0, symName: __ZN4pyo35impl_10trampoline8reprfunc17h92b8bb2767d5c41bE, symObjAddr: 0x16C, symBinAddr: 0x3367C, symSize: 0x30 }
  - { offset: 0xD929D, size: 0x8, addend: 0x0, symName: '__ZN100_$LT$core..array..iter..iter_inner..PolymorphicIter$LT$DATA$GT$$u20$as$u20$core..ops..drop..Drop$GT$4drop17h4be8886ab896f4c3E', symObjAddr: 0x0, symBinAddr: 0x336AC, symSize: 0x30 }
  - { offset: 0xD9B19, size: 0x8, addend: 0x0, symName: __ZN4core3ops8function5FnMut8call_mut17hd3d2778c2ee18743E, symObjAddr: 0x3A8, symBinAddr: 0x33A54, symSize: 0x48 }
  - { offset: 0xD9B5D, size: 0x8, addend: 0x0, symName: __ZN4core3ops8function5FnMut8call_mut17he62fe7de8f1090a4E, symObjAddr: 0x3F0, symBinAddr: 0x33A9C, symSize: 0x48 }
  - { offset: 0xD9BA7, size: 0x8, addend: 0x0, symName: '__ZN4core3ops8function6FnOnce40call_once$u7b$$u7b$vtable.shim$u7d$$u7d$17h4a9616a221971e3fE', symObjAddr: 0x438, symBinAddr: 0x33AE4, symSize: 0x30 }
  - { offset: 0xD9BEB, size: 0x8, addend: 0x0, symName: '__ZN4core3ops8function6FnOnce40call_once$u7b$$u7b$vtable.shim$u7d$$u7d$17haa0ae7bf94640757E', symObjAddr: 0x468, symBinAddr: 0x33B14, symSize: 0x24 }
  - { offset: 0xD9C2F, size: 0x8, addend: 0x0, symName: __ZN4core3ops8function6FnOnce9call_once17h05faff8b5ee63a30E, symObjAddr: 0x48C, symBinAddr: 0x33B38, symSize: 0x2C }
  - { offset: 0xD9C73, size: 0x8, addend: 0x0, symName: __ZN4core3ops8function6FnOnce9call_once17h124826fa9f95dcdeE, symObjAddr: 0x4B8, symBinAddr: 0x33B64, symSize: 0x34 }
  - { offset: 0xD9CB7, size: 0x8, addend: 0x0, symName: __ZN4core3ops8function6FnOnce9call_once17h1e3dec2cd2d24ddbE, symObjAddr: 0x4EC, symBinAddr: 0x33B98, symSize: 0x24 }
  - { offset: 0xD9CFB, size: 0x8, addend: 0x0, symName: __ZN4core3ops8function6FnOnce9call_once17h1e8f16ea2c65e698E, symObjAddr: 0x510, symBinAddr: 0x33BBC, symSize: 0x3C }
  - { offset: 0xD9D3F, size: 0x8, addend: 0x0, symName: __ZN4core3ops8function6FnOnce9call_once17h1e8f98d664cd79c4E, symObjAddr: 0x54C, symBinAddr: 0x33BF8, symSize: 0x3C }
  - { offset: 0xD9D83, size: 0x8, addend: 0x0, symName: __ZN4core3ops8function6FnOnce9call_once17h2113f5e155ef70ebE, symObjAddr: 0x588, symBinAddr: 0x33C34, symSize: 0x34 }
  - { offset: 0xD9DC7, size: 0x8, addend: 0x0, symName: __ZN4core3ops8function6FnOnce9call_once17h213ce4cfea9b78a9E, symObjAddr: 0x5BC, symBinAddr: 0x33C68, symSize: 0x24 }
  - { offset: 0xD9E0B, size: 0x8, addend: 0x0, symName: __ZN4core3ops8function6FnOnce9call_once17h24c1c3314633e0edE, symObjAddr: 0x5E0, symBinAddr: 0x33C8C, symSize: 0x3C }
  - { offset: 0xD9E4F, size: 0x8, addend: 0x0, symName: __ZN4core3ops8function6FnOnce9call_once17h3a4a8d829e3714b3E, symObjAddr: 0x61C, symBinAddr: 0x33CC8, symSize: 0x3C }
  - { offset: 0xD9E93, size: 0x8, addend: 0x0, symName: __ZN4core3ops8function6FnOnce9call_once17h3b00244d77ef3443E, symObjAddr: 0x658, symBinAddr: 0x33D04, symSize: 0x4C }
  - { offset: 0xD9ED7, size: 0x8, addend: 0x0, symName: __ZN4core3ops8function6FnOnce9call_once17h3ffe6a9c91b37fd8E, symObjAddr: 0x6A4, symBinAddr: 0x33D50, symSize: 0x3C }
  - { offset: 0xD9F1B, size: 0x8, addend: 0x0, symName: __ZN4core3ops8function6FnOnce9call_once17h48a0ff492bd77f88E, symObjAddr: 0x6E0, symBinAddr: 0x33D8C, symSize: 0x3C }
  - { offset: 0xD9F5F, size: 0x8, addend: 0x0, symName: __ZN4core3ops8function6FnOnce9call_once17h49c5e738327c5aa7E, symObjAddr: 0x71C, symBinAddr: 0x33DC8, symSize: 0x34 }
  - { offset: 0xD9FA3, size: 0x8, addend: 0x0, symName: __ZN4core3ops8function6FnOnce9call_once17h4c400a06b906d421E, symObjAddr: 0x750, symBinAddr: 0x33DFC, symSize: 0x3C }
  - { offset: 0xD9FE7, size: 0x8, addend: 0x0, symName: __ZN4core3ops8function6FnOnce9call_once17h7f97329d70a31031E, symObjAddr: 0x78C, symBinAddr: 0x33E38, symSize: 0x24 }
  - { offset: 0xDA02B, size: 0x8, addend: 0x0, symName: __ZN4core3ops8function6FnOnce9call_once17h844e27ca72566dd4E, symObjAddr: 0x7B0, symBinAddr: 0x33E5C, symSize: 0x24 }
  - { offset: 0xDA06F, size: 0x8, addend: 0x0, symName: __ZN4core3ops8function6FnOnce9call_once17h8b9c76eb3efc0973E, symObjAddr: 0x7D4, symBinAddr: 0x33E80, symSize: 0x24 }
  - { offset: 0xDA0B3, size: 0x8, addend: 0x0, symName: __ZN4core3ops8function6FnOnce9call_once17h915c7840c98272a1E, symObjAddr: 0x7F8, symBinAddr: 0x33EA4, symSize: 0x3C }
  - { offset: 0xDA0F7, size: 0x8, addend: 0x0, symName: __ZN4core3ops8function6FnOnce9call_once17h9e5b7b3a50252f6bE, symObjAddr: 0x834, symBinAddr: 0x33EE0, symSize: 0x24 }
  - { offset: 0xDA13B, size: 0x8, addend: 0x0, symName: __ZN4core3ops8function6FnOnce9call_once17hbaa85a8538c4fdc0E, symObjAddr: 0x858, symBinAddr: 0x33F04, symSize: 0x3C }
  - { offset: 0xDA17F, size: 0x8, addend: 0x0, symName: __ZN4core3ops8function6FnOnce9call_once17hbbb76dc72081d0bcE, symObjAddr: 0x894, symBinAddr: 0x33F40, symSize: 0x24 }
  - { offset: 0xDA1C3, size: 0x8, addend: 0x0, symName: __ZN4core3ops8function6FnOnce9call_once17hbfc8b0d908e06ffcE, symObjAddr: 0x8B8, symBinAddr: 0x33F64, symSize: 0x4C }
  - { offset: 0xDA207, size: 0x8, addend: 0x0, symName: __ZN4core3ops8function6FnOnce9call_once17hbfe40ad403f9f2b0E, symObjAddr: 0x904, symBinAddr: 0x33FB0, symSize: 0x40 }
  - { offset: 0xDA24B, size: 0x8, addend: 0x0, symName: __ZN4core3ops8function6FnOnce9call_once17hc0b2b23b3690e49eE, symObjAddr: 0x944, symBinAddr: 0x33FF0, symSize: 0x3C }
  - { offset: 0xDA28F, size: 0x8, addend: 0x0, symName: __ZN4core3ops8function6FnOnce9call_once17hc53147b943ed9cd1E, symObjAddr: 0x980, symBinAddr: 0x3402C, symSize: 0x3C }
  - { offset: 0xDA2D3, size: 0x8, addend: 0x0, symName: __ZN4core3ops8function6FnOnce9call_once17hd0d9fe120172dc23E, symObjAddr: 0x9BC, symBinAddr: 0x34068, symSize: 0x24 }
  - { offset: 0xDA317, size: 0x8, addend: 0x0, symName: __ZN4core3ops8function6FnOnce9call_once17hdb66337e74de2ab6E, symObjAddr: 0x9E0, symBinAddr: 0x3408C, symSize: 0x3C }
  - { offset: 0xDA35B, size: 0x8, addend: 0x0, symName: __ZN4core3ops8function6FnOnce9call_once17hde829e2b710b0adcE, symObjAddr: 0xA1C, symBinAddr: 0x340C8, symSize: 0x2C }
  - { offset: 0xDA39F, size: 0x8, addend: 0x0, symName: __ZN4core3ops8function6FnOnce9call_once17heaae802c4e975d45E, symObjAddr: 0xA48, symBinAddr: 0x340F4, symSize: 0x24 }
  - { offset: 0xDA3E3, size: 0x8, addend: 0x0, symName: __ZN4core3ops8function6FnOnce9call_once17hee10d54dc97acd50E, symObjAddr: 0xA6C, symBinAddr: 0x34118, symSize: 0x34 }
  - { offset: 0xDA427, size: 0x8, addend: 0x0, symName: __ZN4core3ops8function6FnOnce9call_once17hee8c3b83ecb34589E, symObjAddr: 0xAA0, symBinAddr: 0x3414C, symSize: 0x3C }
  - { offset: 0xDA46B, size: 0x8, addend: 0x0, symName: __ZN4core3ops8function6FnOnce9call_once17hfe7af74d3fb8d05fE, symObjAddr: 0xB00, symBinAddr: 0x34188, symSize: 0x24 }
  - { offset: 0xDA4C6, size: 0x8, addend: 0x0, symName: '__ZN100_$LT$core..array..iter..iter_inner..PolymorphicIter$LT$DATA$GT$$u20$as$u20$core..ops..drop..Drop$GT$4drop17h4be8886ab896f4c3E', symObjAddr: 0x0, symBinAddr: 0x336AC, symSize: 0x30 }
  - { offset: 0xDA544, size: 0x8, addend: 0x0, symName: '__ZN82_$LT$core..array..iter..IntoIter$LT$T$C$_$GT$$u20$as$u20$core..ops..drop..Drop$GT$4drop17h5a9213cb500448c2E', symObjAddr: 0x35A0, symBinAddr: 0x369D0, symSize: 0x30 }
  - { offset: 0xDA913, size: 0x8, addend: 0x0, symName: '__ZN4core3ptr101drop_in_place$LT$core..option..Option$LT$core..option..Option$LT$serde_json..value..Value$GT$$GT$$GT$17hbb137826ba0eb53eE', symObjAddr: 0xB48, symBinAddr: 0x341AC, symSize: 0x44 }
  - { offset: 0xDA942, size: 0x8, addend: 0x0, symName: '__ZN4core3ptr102drop_in_place$LT$core..result..Result$LT$alloc..vec..Vec$LT$f32$GT$$C$serde_json..error..Error$GT$$GT$17h700a5001bb57a23bE', symObjAddr: 0xBB0, symBinAddr: 0x341F0, symSize: 0x5C }
  - { offset: 0xDA971, size: 0x8, addend: 0x0, symName: '__ZN4core3ptr102drop_in_place$LT$core..result..Result$LT$alloc..vec..Vec$LT$u64$GT$$C$serde_json..error..Error$GT$$GT$17h08beca5af95f760cE', symObjAddr: 0xC0C, symBinAddr: 0x3424C, symSize: 0x5C }
  - { offset: 0xDA9A0, size: 0x8, addend: 0x0, symName: '__ZN4core3ptr105drop_in_place$LT$core..result..Result$LT$alloc..vec..Vec$LT$sekejap..PyHit$GT$$C$pyo3..err..PyErr$GT$$GT$17h67f4682b6c006e18E', symObjAddr: 0xCB0, symBinAddr: 0x342A8, symSize: 0x50 }
  - { offset: 0xDA9CF, size: 0x8, addend: 0x0, symName: '__ZN4core3ptr106drop_in_place$LT$core..result..Result$LT$$BP$mut$u20$pyo3_ffi..object..PyObject$C$pyo3..err..PyErr$GT$$GT$17h436964e88562fb80E', symObjAddr: 0xD00, symBinAddr: 0x342F8, symSize: 0x40 }
  - { offset: 0xDA9FE, size: 0x8, addend: 0x0, symName: '__ZN4core3ptr106drop_in_place$LT$hashbrown..raw..RawTable$LT$$LP$alloc..string..String$C$$LP$usize$C$usize$RP$$RP$$GT$$GT$17h1ba01a59bc9fc539E', symObjAddr: 0xD40, symBinAddr: 0x34338, symSize: 0x24 }
  - { offset: 0xDAA2D, size: 0x8, addend: 0x0, symName: '__ZN4core3ptr108drop_in_place$LT$core..result..Result$LT$$LP$$RP$$C$alloc..borrow..Cow$LT$core..ffi..c_str..CStr$GT$$GT$$GT$17h6da2582ccf4b6966E', symObjAddr: 0xD88, symBinAddr: 0x3435C, symSize: 0x44 }
  - { offset: 0xDAA5C, size: 0x8, addend: 0x0, symName: '__ZN4core3ptr108drop_in_place$LT$core..result..Result$LT$sekejap..vector..hnsw..HnswGraph$C$serde_json..error..Error$GT$$GT$17hb12780ace7f8b578E', symObjAddr: 0xDCC, symBinAddr: 0x343A0, symSize: 0x58 }
  - { offset: 0xDAA8B, size: 0x8, addend: 0x0, symName: '__ZN4core3ptr110drop_in_place$LT$std..collections..hash..map..HashMap$LT$alloc..string..String$C$$LP$usize$C$usize$RP$$GT$$GT$17h60c7a590cc66b07bE', symObjAddr: 0xE24, symBinAddr: 0x343F8, symSize: 0x24 }
  - { offset: 0xDAABA, size: 0x8, addend: 0x0, symName: '__ZN4core3ptr112drop_in_place$LT$core..result..Result$LT$alloc..vec..Vec$LT$alloc..string..String$GT$$C$pyo3..err..PyErr$GT$$GT$17hc8ba1ddff75a50f2E', symObjAddr: 0xE48, symBinAddr: 0x3441C, symSize: 0x50 }
  - { offset: 0xDAAE9, size: 0x8, addend: 0x0, symName: '__ZN4core3ptr115drop_in_place$LT$core..array..iter..IntoIter$LT$pyo3..instance..Py$LT$pyo3..types..any..PyAny$GT$$C$3_usize$GT$$GT$17hdc957c524b912430E', symObjAddr: 0xE98, symBinAddr: 0x3446C, symSize: 0x24 }
  - { offset: 0xDAB18, size: 0x8, addend: 0x0, symName: '__ZN4core3ptr116drop_in_place$LT$alloc..vec..in_place_drop..InPlaceDstDataSrcBufDrop$LT$sekejap..query..Hit$C$sekejap..PyHit$GT$$GT$17h0a16198b8a8aebdeE', symObjAddr: 0xEBC, symBinAddr: 0x34490, symSize: 0x24 }
  - { offset: 0xDAB47, size: 0x8, addend: 0x0, symName: '__ZN4core3ptr116drop_in_place$LT$core..result..Result$LT$alloc..vec..Vec$LT$sekejap..SnapEdge$GT$$C$serde_json..error..Error$GT$$GT$17hf076dbcdf8506e10E', symObjAddr: 0xEE0, symBinAddr: 0x344B4, symSize: 0x5C }
  - { offset: 0xDAB76, size: 0x8, addend: 0x0, symName: '__ZN4core3ptr116drop_in_place$LT$core..result..Result$LT$alloc..vec..Vec$LT$sekejap..SnapHnsw$GT$$C$serde_json..error..Error$GT$$GT$17hf77724e126b8e606E', symObjAddr: 0xF3C, symBinAddr: 0x34510, symSize: 0x5C }
  - { offset: 0xDABA5, size: 0x8, addend: 0x0, symName: '__ZN4core3ptr116drop_in_place$LT$core..result..Result$LT$alloc..vec..Vec$LT$sekejap..SnapNode$GT$$C$serde_json..error..Error$GT$$GT$17hcfe2d030a8d99348E', symObjAddr: 0xF98, symBinAddr: 0x3456C, symSize: 0x5C }
  - { offset: 0xDABD4, size: 0x8, addend: 0x0, symName: '__ZN4core3ptr117drop_in_place$LT$alloc..vec..in_place_drop..InPlaceDstDataSrcBufDrop$LT$sekejap..EdgeHit$C$sekejap..PyEdgeHit$GT$$GT$17hf35aeed2bdd3fcc5E', symObjAddr: 0xFF4, symBinAddr: 0x345C8, symSize: 0x24 }
  - { offset: 0xDAC03, size: 0x8, addend: 0x0, symName: '__ZN4core3ptr117drop_in_place$LT$core..option..Option$LT$core..option..Option$LT$alloc..vec..Vec$LT$sekejap..SnapHnsw$GT$$GT$$GT$$GT$17h7385b819000c5ac3E', symObjAddr: 0x1018, symBinAddr: 0x345EC, symSize: 0x48 }
  - { offset: 0xDAC32, size: 0x8, addend: 0x0, symName: '__ZN4core3ptr117drop_in_place$LT$core..result..Result$LT$core..option..Option$LT$alloc..string..String$GT$$C$pyo3..err..PyErr$GT$$GT$17hab35df3cf29e00ddE', symObjAddr: 0x1060, symBinAddr: 0x34634, symSize: 0x50 }
  - { offset: 0xDAC61, size: 0x8, addend: 0x0, symName: '__ZN4core3ptr117drop_in_place$LT$core..result..Result$LT$core..option..Option$LT$sekejap..PyPathResult$GT$$C$pyo3..err..PyErr$GT$$GT$17h138fd490789c917eE', symObjAddr: 0x10B0, symBinAddr: 0x34684, symSize: 0x5C }
  - { offset: 0xDAC90, size: 0x8, addend: 0x0, symName: '__ZN4core3ptr118drop_in_place$LT$core..result..Result$LT$alloc..vec..Vec$LT$sekejap..SnapVector$GT$$C$serde_json..error..Error$GT$$GT$17he511267e6247f927E', symObjAddr: 0x110C, symBinAddr: 0x346E0, symSize: 0x5C }
  - { offset: 0xDACBF, size: 0x8, addend: 0x0, symName: '__ZN4core3ptr119drop_in_place$LT$core..option..Option$LT$core..option..Option$LT$alloc..vec..Vec$LT$sekejap..SnapVector$GT$$GT$$GT$$GT$17h245f6b2c02d0c956E', symObjAddr: 0x1168, symBinAddr: 0x3473C, symSize: 0x48 }
  - { offset: 0xDACEE, size: 0x8, addend: 0x0, symName: '__ZN4core3ptr124drop_in_place$LT$core..result..Result$LT$alloc..vec..Vec$LT$sekejap..sql..TableSchema$GT$$C$serde_json..error..Error$GT$$GT$17h7913a07574f69523E', symObjAddr: 0x11B0, symBinAddr: 0x34784, symSize: 0x5C }
  - { offset: 0xDAD1D, size: 0x8, addend: 0x0, symName: '__ZN4core3ptr125drop_in_place$LT$core..option..Option$LT$core..option..Option$LT$alloc..vec..Vec$LT$sekejap..sql..TableSchema$GT$$GT$$GT$$GT$17h3d29e1e007ffd451E', symObjAddr: 0x120C, symBinAddr: 0x347E0, symSize: 0x48 }
  - { offset: 0xDAD4C, size: 0x8, addend: 0x0, symName: '__ZN4core3ptr125drop_in_place$LT$core..result..Result$LT$alloc..vec..Vec$LT$alloc..vec..Vec$LT$u64$GT$$GT$$C$serde_json..error..Error$GT$$GT$17h4c5267a47803dedeE', symObjAddr: 0x1254, symBinAddr: 0x34828, symSize: 0x5C }
  - { offset: 0xDAD7B, size: 0x8, addend: 0x0, symName: '__ZN4core3ptr130drop_in_place$LT$hashbrown..map..HashMap$LT$alloc..string..String$C$$LP$usize$C$usize$RP$$C$std..hash..random..RandomState$GT$$GT$17h8a5b7cfee1ef8c18E', symObjAddr: 0x12F8, symBinAddr: 0x34884, symSize: 0x24 }
  - { offset: 0xDADAA, size: 0x8, addend: 0x0, symName: '__ZN4core3ptr130drop_in_place$LT$pyo3..err..PyErr..new$LT$pyo3..exceptions..PyIOError$C$alloc..string..String$GT$..$u7b$$u7b$closure$u7d$$u7d$$GT$17hbfd5527fac53f439E', symObjAddr: 0x131C, symBinAddr: 0x348A8, symSize: 0x24 }
  - { offset: 0xDADD9, size: 0x8, addend: 0x0, symName: '__ZN4core3ptr137drop_in_place$LT$alloc..vec..into_iter..IntoIter$LT$$LP$alloc..string..String$C$alloc..string..String$C$alloc..string..String$RP$$GT$$GT$17hbb279ccd372e8fddE', symObjAddr: 0x1388, symBinAddr: 0x348CC, symSize: 0x24 }
  - { offset: 0xDAE08, size: 0x8, addend: 0x0, symName: '__ZN4core3ptr137drop_in_place$LT$core..iter..adapters..map..Map$LT$alloc..vec..into_iter..IntoIter$LT$sekejap..query..Hit$GT$$C$sekejap..to_pyhit$GT$$GT$17h0e51ebdc04111039E', symObjAddr: 0x13AC, symBinAddr: 0x348F0, symSize: 0x24 }
  - { offset: 0xDAE37, size: 0x8, addend: 0x0, symName: '__ZN4core3ptr138drop_in_place$LT$core..iter..adapters..map..Map$LT$alloc..vec..into_iter..IntoIter$LT$sekejap..EdgeHit$GT$$C$sekejap..to_pyedgehit$GT$$GT$17h21e07b773d376b45E', symObjAddr: 0x13D0, symBinAddr: 0x34914, symSize: 0x24 }
  - { offset: 0xDAE66, size: 0x8, addend: 0x0, symName: '__ZN4core3ptr148drop_in_place$LT$core..option..Option$LT$std..collections..hash..map..HashMap$LT$u64$C$alloc..vec..Vec$LT$alloc..vec..Vec$LT$u64$GT$$GT$$GT$$GT$$GT$17h0587f23b18237eb4E', symObjAddr: 0x13F4, symBinAddr: 0x34938, symSize: 0x44 }
  - { offset: 0xDAE95, size: 0x8, addend: 0x0, symName: '__ZN4core3ptr165drop_in_place$LT$core..iter..adapters..enumerate..Enumerate$LT$core..array..iter..IntoIter$LT$pyo3..instance..Py$LT$pyo3..types..any..PyAny$GT$$C$3_usize$GT$$GT$$GT$17h9acc4c343025d42cE', symObjAddr: 0x1438, symBinAddr: 0x3497C, symSize: 0x24 }
  - { offset: 0xDAEC4, size: 0x8, addend: 0x0, symName: '__ZN4core3ptr168drop_in_place$LT$$LT$alloc..vec..into_iter..IntoIter$LT$T$C$A$GT$$u20$as$u20$core..ops..drop..Drop$GT$..drop..DropGuard$LT$sekejap..PyHit$C$alloc..alloc..Global$GT$$GT$17h6eacb9863df5a5d0E', symObjAddr: 0x145C, symBinAddr: 0x349A0, symSize: 0x24 }
  - { offset: 0xDAEF3, size: 0x8, addend: 0x0, symName: '__ZN4core3ptr168drop_in_place$LT$core..result..Result$LT$alloc..vec..Vec$LT$$LP$alloc..string..String$C$alloc..string..String$C$alloc..string..String$RP$$GT$$C$pyo3..err..PyErr$GT$$GT$17h085a52cefe2f58b3E', symObjAddr: 0x1480, symBinAddr: 0x349C4, symSize: 0x50 }
  - { offset: 0xDAF22, size: 0x8, addend: 0x0, symName: '__ZN4core3ptr171drop_in_place$LT$$LT$T$u20$as$u20$alloc..slice..$LT$impl$u20$$u5b$T$u5d$$GT$..to_vec_in..ConvertVec$GT$..to_vec..DropGuard$LT$sekejap..PyHit$C$alloc..alloc..Global$GT$$GT$17h83cbd034dcd14d04E', symObjAddr: 0x14D0, symBinAddr: 0x34A14, symSize: 0x24 }
  - { offset: 0xDAF51, size: 0x8, addend: 0x0, symName: '__ZN4core3ptr172drop_in_place$LT$$LT$alloc..vec..into_iter..IntoIter$LT$T$C$A$GT$$u20$as$u20$core..ops..drop..Drop$GT$..drop..DropGuard$LT$sekejap..PyEdgeHit$C$alloc..alloc..Global$GT$$GT$17he05db0a7eab24e29E', symObjAddr: 0x14F4, symBinAddr: 0x34A38, symSize: 0x24 }
  - { offset: 0xDAF80, size: 0x8, addend: 0x0, symName: '__ZN4core3ptr175drop_in_place$LT$$LT$T$u20$as$u20$alloc..slice..$LT$impl$u20$$u5b$T$u5d$$GT$..to_vec_in..ConvertVec$GT$..to_vec..DropGuard$LT$sekejap..PyEdgeHit$C$alloc..alloc..Global$GT$$GT$17h7575b6b30a13e66cE', symObjAddr: 0x1518, symBinAddr: 0x34A5C, symSize: 0x24 }
  - { offset: 0xDAFAF, size: 0x8, addend: 0x0, symName: '__ZN4core3ptr175drop_in_place$LT$core..result..Result$LT$std..collections..hash..map..HashMap$LT$u64$C$alloc..vec..Vec$LT$alloc..vec..Vec$LT$u64$GT$$GT$$GT$$C$serde_json..error..Error$GT$$GT$17hb9cedd8fed70133aE', symObjAddr: 0x153C, symBinAddr: 0x34A80, symSize: 0x58 }
  - { offset: 0xDAFDE, size: 0x8, addend: 0x0, symName: '__ZN4core3ptr185drop_in_place$LT$$LT$alloc..vec..into_iter..IntoIter$LT$T$C$A$GT$$u20$as$u20$core..ops..drop..Drop$GT$..drop..DropGuard$LT$sekejap..storage..wal..WalEntry$C$alloc..alloc..Global$GT$$GT$17hdc0a12768e21ca52E', symObjAddr: 0x1594, symBinAddr: 0x34AD8, symSize: 0x24 }
  - { offset: 0xDB00D, size: 0x8, addend: 0x0, symName: '__ZN4core3ptr189drop_in_place$LT$core..array..iter..iter_inner..PolymorphicIter$LT$$u5b$core..mem..maybe_uninit..MaybeUninit$LT$pyo3..instance..Py$LT$pyo3..types..any..PyAny$GT$$GT$$u3b$$u20$3$u5d$$GT$$GT$17h1e5983e1f325e333E', symObjAddr: 0x15B8, symBinAddr: 0x34AFC, symSize: 0x24 }
  - { offset: 0xDB03C, size: 0x8, addend: 0x0, symName: '__ZN4core3ptr231drop_in_place$LT$$LT$alloc..vec..into_iter..IntoIter$LT$T$C$A$GT$$u20$as$u20$core..ops..drop..Drop$GT$..drop..DropGuard$LT$$LP$alloc..string..String$C$alloc..string..String$C$alloc..string..String$RP$$C$alloc..alloc..Global$GT$$GT$17h7c64ecf937de812dE', symObjAddr: 0x15DC, symBinAddr: 0x34B20, symSize: 0x24 }
  - { offset: 0xDB06B, size: 0x8, addend: 0x0, symName: '__ZN4core3ptr238drop_in_place$LT$alloc..boxed..convert..$LT$impl$u20$core..convert..From$LT$alloc..string..String$GT$$u20$for$u20$alloc..boxed..Box$LT$dyn$u20$core..error..Error$u2b$core..marker..Sync$u2b$core..marker..Send$GT$$GT$..from..StringError$GT$17hee3a3f74124c0bc7E', symObjAddr: 0x1600, symBinAddr: 0x34B44, symSize: 0x24 }
  - { offset: 0xDB09A, size: 0x8, addend: 0x0, symName: '__ZN4core3ptr330drop_in_place$LT$core..iter..adapters..map..Map$LT$alloc..vec..into_iter..IntoIter$LT$sekejap..PyHit$GT$$C$pyo3..conversions..std..vec..$LT$impl$u20$pyo3..conversion..IntoPy$LT$pyo3..instance..Py$LT$pyo3..types..any..PyAny$GT$$GT$$u20$for$u20$alloc..vec..Vec$LT$sekejap..PyHit$GT$$GT$..into_py..$u7b$$u7b$closure$u7d$$u7d$$GT$$GT$17hfc32e896b0a44eeaE', symObjAddr: 0x1624, symBinAddr: 0x34B68, symSize: 0x24 }
  - { offset: 0xDB0C9, size: 0x8, addend: 0x0, symName: '__ZN4core3ptr338drop_in_place$LT$core..iter..adapters..map..Map$LT$alloc..vec..into_iter..IntoIter$LT$sekejap..PyEdgeHit$GT$$C$pyo3..conversions..std..vec..$LT$impl$u20$pyo3..conversion..IntoPy$LT$pyo3..instance..Py$LT$pyo3..types..any..PyAny$GT$$GT$$u20$for$u20$alloc..vec..Vec$LT$sekejap..PyEdgeHit$GT$$GT$..into_py..$u7b$$u7b$closure$u7d$$u7d$$GT$$GT$17hc16c296c1c24d3bcE', symObjAddr: 0x1648, symBinAddr: 0x34B8C, symSize: 0x24 }
  - { offset: 0xDB0F8, size: 0x8, addend: 0x0, symName: '__ZN4core3ptr344drop_in_place$LT$core..iter..adapters..map..Map$LT$alloc..vec..into_iter..IntoIter$LT$alloc..string..String$GT$$C$pyo3..conversions..std..vec..$LT$impl$u20$pyo3..conversion..IntoPy$LT$pyo3..instance..Py$LT$pyo3..types..any..PyAny$GT$$GT$$u20$for$u20$alloc..vec..Vec$LT$alloc..string..String$GT$$GT$..into_py..$u7b$$u7b$closure$u7d$$u7d$$GT$$GT$17hcf129581e862d0efE', symObjAddr: 0x166C, symBinAddr: 0x34BB0, symSize: 0x24 }
  - { offset: 0xDB127, size: 0x8, addend: 0x0, symName: '__ZN4core3ptr34drop_in_place$LT$sekejap..PyDB$GT$17h7d5caf78dad5430dE', symObjAddr: 0x1690, symBinAddr: 0x34BD4, symSize: 0x24 }
  - { offset: 0xDB156, size: 0x8, addend: 0x0, symName: '__ZN4core3ptr35drop_in_place$LT$sekejap..PyHit$GT$17h5bf4bd002a153e1bE', symObjAddr: 0x16B4, symBinAddr: 0x34BF8, symSize: 0x60 }
  - { offset: 0xDB185, size: 0x8, addend: 0x0, symName: '__ZN4core3ptr36drop_in_place$LT$sekejap..CoreDB$GT$17h73793918565d873aE', symObjAddr: 0x1714, symBinAddr: 0x34C58, symSize: 0x32C }
  - { offset: 0xDB1B4, size: 0x8, addend: 0x0, symName: '__ZN4core3ptr39drop_in_place$LT$sekejap..PyEdgeHit$GT$17h0a9f06b7cafe444bE', symObjAddr: 0x1A40, symBinAddr: 0x34F84, symSize: 0xC0 }
  - { offset: 0xDB1E3, size: 0x8, addend: 0x0, symName: '__ZN4core3ptr40drop_in_place$LT$sekejap..PathResult$GT$17hedca47c183f3b862E', symObjAddr: 0x1B00, symBinAddr: 0x35044, symSize: 0x60 }
  - { offset: 0xDB212, size: 0x8, addend: 0x0, symName: '__ZN4core3ptr42drop_in_place$LT$sekejap..PyPathResult$GT$17h963ea214a49db4e9E', symObjAddr: 0x1B60, symBinAddr: 0x350A4, symSize: 0x60 }
  - { offset: 0xDB241, size: 0x8, addend: 0x0, symName: '__ZN4core3ptr456drop_in_place$LT$core..iter..adapters..map..Map$LT$alloc..vec..into_iter..IntoIter$LT$$LP$alloc..string..String$C$alloc..string..String$C$alloc..string..String$RP$$GT$$C$pyo3..conversions..std..vec..$LT$impl$u20$pyo3..conversion..IntoPy$LT$pyo3..instance..Py$LT$pyo3..types..any..PyAny$GT$$GT$$u20$for$u20$alloc..vec..Vec$LT$$LP$alloc..string..String$C$alloc..string..String$C$alloc..string..String$RP$$GT$$GT$..into_py..$u7b$$u7b$closure$u7d$$u7d$$GT$$GT$17h27251d11bb167ee5E', symObjAddr: 0x1BC0, symBinAddr: 0x35104, symSize: 0x24 }
  - { offset: 0xDB270, size: 0x8, addend: 0x0, symName: '__ZN4core3ptr45drop_in_place$LT$$u5b$sekejap..PyHit$u5d$$GT$17hf689709f5152f39dE', symObjAddr: 0x1BE4, symBinAddr: 0x35128, symSize: 0xC4 }
  - { offset: 0xDB29F, size: 0x8, addend: 0x0, symName: '__ZN4core3ptr49drop_in_place$LT$$u5b$sekejap..PyEdgeHit$u5d$$GT$17hffbfc1f61958cfbcE', symObjAddr: 0x1CA8, symBinAddr: 0x351EC, symSize: 0xC4 }
  - { offset: 0xDB2CE, size: 0x8, addend: 0x0, symName: '__ZN4core3ptr58drop_in_place$LT$alloc..vec..Vec$LT$sekejap..PyHit$GT$$GT$17hc92fe766134c3d42E', symObjAddr: 0x1D90, symBinAddr: 0x352B0, symSize: 0x5C }
  - { offset: 0xDB2FD, size: 0x8, addend: 0x0, symName: '__ZN4core3ptr60drop_in_place$LT$pyo3..instance..Py$LT$sekejap..PyDB$GT$$GT$17h786e028a9c4a1f8cE', symObjAddr: 0x1DEC, symBinAddr: 0x3530C, symSize: 0x2C }
  - { offset: 0xDB32C, size: 0x8, addend: 0x0, symName: '__ZN4core3ptr61drop_in_place$LT$pyo3..instance..Py$LT$sekejap..PyHit$GT$$GT$17h37431aff50f58944E', symObjAddr: 0x1E18, symBinAddr: 0x35338, symSize: 0x2C }
  - { offset: 0xDB35B, size: 0x8, addend: 0x0, symName: '__ZN4core3ptr61drop_in_place$LT$pyo3..pycell..PyRef$LT$sekejap..PyDB$GT$$GT$17h24cec18b03f0ac03E', symObjAddr: 0x1E44, symBinAddr: 0x35364, symSize: 0x5C }
  - { offset: 0xDB38A, size: 0x8, addend: 0x0, symName: '__ZN4core3ptr62drop_in_place$LT$alloc..vec..Vec$LT$sekejap..PyEdgeHit$GT$$GT$17h056e0efd81026346E', symObjAddr: 0x1EA0, symBinAddr: 0x353C0, symSize: 0x5C }
  - { offset: 0xDB3B9, size: 0x8, addend: 0x0, symName: '__ZN4core3ptr62drop_in_place$LT$pyo3..pycell..PyRef$LT$sekejap..PyHit$GT$$GT$17h8a03031609865e43E', symObjAddr: 0x1EFC, symBinAddr: 0x3541C, symSize: 0x5C }
  - { offset: 0xDB3E8, size: 0x8, addend: 0x0, symName: '__ZN4core3ptr63drop_in_place$LT$pyo3..instance..Bound$LT$sekejap..PyDB$GT$$GT$17hadd9451bfbef348eE', symObjAddr: 0x1F58, symBinAddr: 0x35478, symSize: 0x24 }
  - { offset: 0xDB417, size: 0x8, addend: 0x0, symName: '__ZN4core3ptr64drop_in_place$LT$core..cell..UnsafeCell$LT$sekejap..PyDB$GT$$GT$17hed00e79cb1a180ecE', symObjAddr: 0x1F7C, symBinAddr: 0x3549C, symSize: 0x24 }
  - { offset: 0xDB446, size: 0x8, addend: 0x0, symName: '__ZN4core3ptr64drop_in_place$LT$core..option..Option$LT$sekejap..CoreDB$GT$$GT$17h592735c2a9d841afE', symObjAddr: 0x1FA0, symBinAddr: 0x354C0, symSize: 0x48 }
  - { offset: 0xDB475, size: 0x8, addend: 0x0, symName: '__ZN4core3ptr64drop_in_place$LT$pyo3..instance..Bound$LT$sekejap..PyHit$GT$$GT$17hcdc11d8791897e00E', symObjAddr: 0x1FE8, symBinAddr: 0x35508, symSize: 0x24 }
  - { offset: 0xDB4A4, size: 0x8, addend: 0x0, symName: '__ZN4core3ptr64drop_in_place$LT$pyo3..pycell..PyRefMut$LT$sekejap..PyDB$GT$$GT$17he9fe5fe2b7cd87a8E', symObjAddr: 0x200C, symBinAddr: 0x3552C, symSize: 0x5C }
  - { offset: 0xDB4D3, size: 0x8, addend: 0x0, symName: '__ZN4core3ptr65drop_in_place$LT$alloc..raw_vec..RawVec$LT$sekejap..PyHit$GT$$GT$17h4a33467ce2a939baE', symObjAddr: 0x2068, symBinAddr: 0x35588, symSize: 0x24 }
  - { offset: 0xDB502, size: 0x8, addend: 0x0, symName: '__ZN4core3ptr65drop_in_place$LT$core..cell..UnsafeCell$LT$sekejap..PyHit$GT$$GT$17h080f1d50efba0d49E', symObjAddr: 0x208C, symBinAddr: 0x355AC, symSize: 0x24 }
  - { offset: 0xDB531, size: 0x8, addend: 0x0, symName: '__ZN4core3ptr65drop_in_place$LT$pyo3..instance..Py$LT$sekejap..PyEdgeHit$GT$$GT$17hd667d8efe476115dE', symObjAddr: 0x20B0, symBinAddr: 0x355D0, symSize: 0x2C }
  - { offset: 0xDB560, size: 0x8, addend: 0x0, symName: '__ZN4core3ptr66drop_in_place$LT$pyo3..pycell..PyRef$LT$sekejap..PyEdgeHit$GT$$GT$17h524623b79923c829E', symObjAddr: 0x20DC, symBinAddr: 0x355FC, symSize: 0x5C }
  - { offset: 0xDB58F, size: 0x8, addend: 0x0, symName: '__ZN4core3ptr68drop_in_place$LT$core..option..Option$LT$sekejap..PathResult$GT$$GT$17h1d1a645f30081ac7E', symObjAddr: 0x2138, symBinAddr: 0x35658, symSize: 0x48 }
  - { offset: 0xDB5BE, size: 0x8, addend: 0x0, symName: '__ZN4core3ptr68drop_in_place$LT$pyo3..instance..Bound$LT$sekejap..PyEdgeHit$GT$$GT$17ha9b5d4c1a5211661E', symObjAddr: 0x2180, symBinAddr: 0x356A0, symSize: 0x24 }
  - { offset: 0xDB5ED, size: 0x8, addend: 0x0, symName: '__ZN4core3ptr68drop_in_place$LT$pyo3..instance..Py$LT$sekejap..PyPathResult$GT$$GT$17heea8decfecd76907E', symObjAddr: 0x21A4, symBinAddr: 0x356C4, symSize: 0x2C }
  - { offset: 0xDB61C, size: 0x8, addend: 0x0, symName: '__ZN4core3ptr69drop_in_place$LT$alloc..borrow..Cow$LT$core..ffi..c_str..CStr$GT$$GT$17hbc2d5b9edc947510E', symObjAddr: 0x21D0, symBinAddr: 0x356F0, symSize: 0x40 }
  - { offset: 0xDB64B, size: 0x8, addend: 0x0, symName: '__ZN4core3ptr69drop_in_place$LT$alloc..raw_vec..RawVec$LT$sekejap..PyEdgeHit$GT$$GT$17hab77db17c5dbdafbE', symObjAddr: 0x2210, symBinAddr: 0x35730, symSize: 0x24 }
  - { offset: 0xDB67A, size: 0x8, addend: 0x0, symName: '__ZN4core3ptr69drop_in_place$LT$core..cell..UnsafeCell$LT$sekejap..PyEdgeHit$GT$$GT$17h79c61e813ed2ca9aE', symObjAddr: 0x2234, symBinAddr: 0x35754, symSize: 0x24 }
  - { offset: 0xDB6A9, size: 0x8, addend: 0x0, symName: '__ZN4core3ptr69drop_in_place$LT$pyo3..pycell..PyRef$LT$sekejap..PyPathResult$GT$$GT$17h2a88912274121241E', symObjAddr: 0x2258, symBinAddr: 0x35778, symSize: 0x5C }
  - { offset: 0xDB6D8, size: 0x8, addend: 0x0, symName: '__ZN4core3ptr70drop_in_place$LT$core..option..Option$LT$sekejap..PyPathResult$GT$$GT$17h9cfbfb4200b4045fE', symObjAddr: 0x22B4, symBinAddr: 0x357D4, symSize: 0x48 }
  - { offset: 0xDB707, size: 0x8, addend: 0x0, symName: '__ZN4core3ptr71drop_in_place$LT$pyo3..instance..Bound$LT$sekejap..PyPathResult$GT$$GT$17h937241a6d90c0b76E', symObjAddr: 0x22FC, symBinAddr: 0x3581C, symSize: 0x24 }
  - { offset: 0xDB736, size: 0x8, addend: 0x0, symName: '__ZN4core3ptr72drop_in_place$LT$core..cell..UnsafeCell$LT$sekejap..PyPathResult$GT$$GT$17h6de9acfa2471344aE', symObjAddr: 0x2320, symBinAddr: 0x35840, symSize: 0x24 }
  - { offset: 0xDB765, size: 0x8, addend: 0x0, symName: '__ZN4core3ptr72drop_in_place$LT$core..result..Result$LT$bool$C$pyo3..err..PyErr$GT$$GT$17h8f72d098a4463c62E', symObjAddr: 0x2344, symBinAddr: 0x35864, symSize: 0x40 }
  - { offset: 0xDB794, size: 0x8, addend: 0x0, symName: '__ZN4core3ptr73drop_in_place$LT$core..result..Result$LT$usize$C$pyo3..err..PyErr$GT$$GT$17h78874003d3c23f02E', symObjAddr: 0x2384, symBinAddr: 0x358A4, symSize: 0x40 }
  - { offset: 0xDB7C3, size: 0x8, addend: 0x0, symName: '__ZN4core3ptr74drop_in_place$LT$alloc..vec..into_iter..IntoIter$LT$sekejap..PyHit$GT$$GT$17h50e7a5ab2fc6100aE', symObjAddr: 0x23C4, symBinAddr: 0x358E4, symSize: 0x24 }
  - { offset: 0xDB7F2, size: 0x8, addend: 0x0, symName: '__ZN4core3ptr78drop_in_place$LT$alloc..vec..into_iter..IntoIter$LT$sekejap..PyEdgeHit$GT$$GT$17h9f2c9833ad66af44E', symObjAddr: 0x23E8, symBinAddr: 0x35908, symSize: 0x24 }
  - { offset: 0xDB821, size: 0x8, addend: 0x0, symName: '__ZN4core3ptr80drop_in_place$LT$pyo3..pyclass_init..PyClassInitializer$LT$sekejap..PyDB$GT$$GT$17h2b26a2d3b509bbd5E', symObjAddr: 0x246C, symBinAddr: 0x3592C, symSize: 0x24 }
  - { offset: 0xDB850, size: 0x8, addend: 0x0, symName: '__ZN4core3ptr81drop_in_place$LT$alloc..vec..in_place_drop..InPlaceDrop$LT$sekejap..PyHit$GT$$GT$17hd5deef57bd3d86abE', symObjAddr: 0x2490, symBinAddr: 0x35950, symSize: 0x24 }
  - { offset: 0xDB87F, size: 0x8, addend: 0x0, symName: '__ZN4core3ptr81drop_in_place$LT$core..result..Result$LT$sekejap..PyDB$C$pyo3..err..PyErr$GT$$GT$17hdd97858e08af0dc4E', symObjAddr: 0x24B4, symBinAddr: 0x35974, symSize: 0x60 }
  - { offset: 0xDB8AE, size: 0x8, addend: 0x0, symName: '__ZN4core3ptr81drop_in_place$LT$pyo3..pyclass_init..PyClassInitializer$LT$sekejap..PyHit$GT$$GT$17h702ce3d095724c79E', symObjAddr: 0x2514, symBinAddr: 0x359D4, symSize: 0x24 }
  - { offset: 0xDB8DD, size: 0x8, addend: 0x0, symName: '__ZN4core3ptr84drop_in_place$LT$pyo3..pyclass_init..PyClassInitializerImpl$LT$sekejap..PyDB$GT$$GT$17h378447938053d4b2E', symObjAddr: 0x2538, symBinAddr: 0x359F8, symSize: 0x5C }
  - { offset: 0xDB90C, size: 0x8, addend: 0x0, symName: '__ZN4core3ptr85drop_in_place$LT$alloc..vec..in_place_drop..InPlaceDrop$LT$sekejap..PyEdgeHit$GT$$GT$17h7ae6a103a2e9d4c5E', symObjAddr: 0x2594, symBinAddr: 0x35A54, symSize: 0x24 }
  - { offset: 0xDB93B, size: 0x8, addend: 0x0, symName: '__ZN4core3ptr85drop_in_place$LT$pyo3..pyclass_init..PyClassInitializer$LT$sekejap..PyEdgeHit$GT$$GT$17h5e83c8ed58929c5fE', symObjAddr: 0x25B8, symBinAddr: 0x35A78, symSize: 0x24 }
  - { offset: 0xDB96A, size: 0x8, addend: 0x0, symName: '__ZN4core3ptr85drop_in_place$LT$pyo3..pyclass_init..PyClassInitializerImpl$LT$sekejap..PyHit$GT$$GT$17h0e575d2bf2c5cb48E', symObjAddr: 0x25DC, symBinAddr: 0x35A9C, symSize: 0x58 }
  - { offset: 0xDB999, size: 0x8, addend: 0x0, symName: '__ZN4core3ptr88drop_in_place$LT$pyo3..pyclass_init..PyClassInitializer$LT$sekejap..PyPathResult$GT$$GT$17h523eb5795bbd1c12E', symObjAddr: 0x2634, symBinAddr: 0x35AF4, symSize: 0x24 }
  - { offset: 0xDB9C8, size: 0x8, addend: 0x0, symName: '__ZN4core3ptr89drop_in_place$LT$core..option..Option$LT$alloc..vec..Vec$LT$sekejap..SnapEdge$GT$$GT$$GT$17h8ffdaf62f55ccaa6E', symObjAddr: 0x2658, symBinAddr: 0x35B18, symSize: 0x48 }
  - { offset: 0xDB9F7, size: 0x8, addend: 0x0, symName: '__ZN4core3ptr89drop_in_place$LT$core..option..Option$LT$alloc..vec..Vec$LT$sekejap..SnapNode$GT$$GT$$GT$17habd7a56c412f46f3E', symObjAddr: 0x26A0, symBinAddr: 0x35B60, symSize: 0x48 }
  - { offset: 0xDBA26, size: 0x8, addend: 0x0, symName: '__ZN4core3ptr89drop_in_place$LT$core..option..Option$LT$pyo3..pycell..PyRef$LT$sekejap..PyDB$GT$$GT$$GT$17h485619c76c62bdc7E', symObjAddr: 0x26E8, symBinAddr: 0x35BA8, symSize: 0x44 }
  - { offset: 0xDBA55, size: 0x8, addend: 0x0, symName: '__ZN4core3ptr89drop_in_place$LT$pyo3..pyclass_init..PyClassInitializerImpl$LT$sekejap..PyEdgeHit$GT$$GT$17hdc817557b7a2a14eE', symObjAddr: 0x272C, symBinAddr: 0x35BEC, symSize: 0x58 }
  - { offset: 0xDBA84, size: 0x8, addend: 0x0, symName: '__ZN4core3ptr90drop_in_place$LT$core..option..Option$LT$pyo3..pycell..PyRef$LT$sekejap..PyHit$GT$$GT$$GT$17he439714f07fc52b1E', symObjAddr: 0x2784, symBinAddr: 0x35C44, symSize: 0x44 }
  - { offset: 0xDBAB3, size: 0x8, addend: 0x0, symName: '__ZN4core3ptr91drop_in_place$LT$$u5b$pyo3..instance..Py$LT$pyo3..types..any..PyAny$GT$$u3b$$u20$3$u5d$$GT$17h70110b17b5a7aa37E', symObjAddr: 0x27C8, symBinAddr: 0x35C88, symSize: 0xA4 }
  - { offset: 0xDBAE2, size: 0x8, addend: 0x0, symName: '__ZN4core3ptr91drop_in_place$LT$alloc..vec..into_iter..IntoIter$LT$sekejap..storage..wal..WalEntry$GT$$GT$17hbbae251a12403534E', symObjAddr: 0x286C, symBinAddr: 0x35D2C, symSize: 0x24 }
  - { offset: 0xDBB11, size: 0x8, addend: 0x0, symName: '__ZN4core3ptr92drop_in_place$LT$core..option..Option$LT$pyo3..pycell..PyRefMut$LT$sekejap..PyDB$GT$$GT$$GT$17h878100a9027da4f5E', symObjAddr: 0x2890, symBinAddr: 0x35D50, symSize: 0x44 }
  - { offset: 0xDBB40, size: 0x8, addend: 0x0, symName: '__ZN4core3ptr92drop_in_place$LT$pyo3..pyclass_init..PyClassInitializerImpl$LT$sekejap..PyPathResult$GT$$GT$17h2427ba2c87babe63E', symObjAddr: 0x28D4, symBinAddr: 0x35D94, symSize: 0x58 }
  - { offset: 0xDBB6F, size: 0x8, addend: 0x0, symName: '__ZN4core3ptr93drop_in_place$LT$core..result..Result$LT$sekejap..SnapEdge$C$serde_json..error..Error$GT$$GT$17ha0e5b43543bbaa70E', symObjAddr: 0x292C, symBinAddr: 0x35DEC, symSize: 0x5C }
  - { offset: 0xDBB9E, size: 0x8, addend: 0x0, symName: '__ZN4core3ptr93drop_in_place$LT$core..result..Result$LT$sekejap..SnapHnsw$C$serde_json..error..Error$GT$$GT$17h8dd8a70164775426E', symObjAddr: 0x2988, symBinAddr: 0x35E48, symSize: 0x58 }
  - { offset: 0xDBBCD, size: 0x8, addend: 0x0, symName: '__ZN4core3ptr93drop_in_place$LT$core..result..Result$LT$sekejap..SnapNode$C$serde_json..error..Error$GT$$GT$17had81aee4c56efe3dE', symObjAddr: 0x29E0, symBinAddr: 0x35EA0, symSize: 0x5C }
  - { offset: 0xDBBFC, size: 0x8, addend: 0x0, symName: '__ZN4core3ptr93drop_in_place$LT$core..result..Result$LT$sekejap..Snapshot$C$serde_json..error..Error$GT$$GT$17h5f0a0996ad4ae822E', symObjAddr: 0x2A3C, symBinAddr: 0x35EFC, symSize: 0x5C }
  - { offset: 0xDBC2B, size: 0x8, addend: 0x0, symName: '__ZN4core3ptr94drop_in_place$LT$core..option..Option$LT$pyo3..pycell..PyRef$LT$sekejap..PyEdgeHit$GT$$GT$$GT$17hc02993567042cba3E', symObjAddr: 0x2A98, symBinAddr: 0x35F58, symSize: 0x44 }
  - { offset: 0xDBC5A, size: 0x8, addend: 0x0, symName: '__ZN4core3ptr95drop_in_place$LT$core..result..Result$LT$$LP$u64$C$usize$RP$$C$serde_json..error..Error$GT$$GT$17hd94e93421a4cae7bE', symObjAddr: 0x2ADC, symBinAddr: 0x35F9C, symSize: 0x40 }
  - { offset: 0xDBC89, size: 0x8, addend: 0x0, symName: '__ZN4core3ptr95drop_in_place$LT$core..result..Result$LT$sekejap..SnapVector$C$serde_json..error..Error$GT$$GT$17hb851a3e43df3b9d4E', symObjAddr: 0x2B1C, symBinAddr: 0x35FDC, symSize: 0x5C }
  - { offset: 0xDBCB8, size: 0x8, addend: 0x0, symName: '__ZN4core3ptr97drop_in_place$LT$core..option..Option$LT$alloc..borrow..Cow$LT$core..ffi..c_str..CStr$GT$$GT$$GT$17he12de89778278208E', symObjAddr: 0x2BC0, symBinAddr: 0x36038, symSize: 0x44 }
  - { offset: 0xDBCE7, size: 0x8, addend: 0x0, symName: '__ZN4core3ptr97drop_in_place$LT$core..option..Option$LT$pyo3..pycell..PyRef$LT$sekejap..PyPathResult$GT$$GT$$GT$17hf06cb85995bf48dcE', symObjAddr: 0x2C04, symBinAddr: 0x3607C, symSize: 0x44 }
  - { offset: 0xE0170, size: 0x8, addend: 0x0, symName: '__ZN111_$LT$alloc..vec..in_place_drop..InPlaceDstDataSrcBufDrop$LT$Src$C$Dest$GT$$u20$as$u20$core..ops..drop..Drop$GT$4drop17h9777d740d9505b29E', symObjAddr: 0x30, symBinAddr: 0x336DC, symSize: 0xB4 }
  - { offset: 0xE02EC, size: 0x8, addend: 0x0, symName: '__ZN111_$LT$alloc..vec..in_place_drop..InPlaceDstDataSrcBufDrop$LT$Src$C$Dest$GT$$u20$as$u20$core..ops..drop..Drop$GT$4drop17h9bc02a8a8433ff07E', symObjAddr: 0xE4, symBinAddr: 0x33790, symSize: 0xB4 }
  - { offset: 0xE046E, size: 0x8, addend: 0x0, symName: '__ZN89_$LT$alloc..vec..in_place_drop..InPlaceDrop$LT$T$GT$$u20$as$u20$core..ops..drop..Drop$GT$4drop17h33f607a1e2fd281fE', symObjAddr: 0x37B0, symBinAddr: 0x36BE0, symSize: 0x70 }
  - { offset: 0xE04C4, size: 0x8, addend: 0x0, symName: '__ZN89_$LT$alloc..vec..in_place_drop..InPlaceDrop$LT$T$GT$$u20$as$u20$core..ops..drop..Drop$GT$4drop17hae44a483172fa61bE', symObjAddr: 0x3820, symBinAddr: 0x36C50, symSize: 0x70 }
  - { offset: 0xE061A, size: 0x8, addend: 0x0, symName: '__ZN157_$LT$$LT$alloc..vec..into_iter..IntoIter$LT$T$C$A$GT$$u20$as$u20$core..ops..drop..Drop$GT$..drop..DropGuard$LT$T$C$A$GT$$u20$as$u20$core..ops..drop..Drop$GT$4drop17h5a1e71adec53636dE', symObjAddr: 0x198, symBinAddr: 0x33844, symSize: 0x6C }
  - { offset: 0xE075D, size: 0x8, addend: 0x0, symName: '__ZN157_$LT$$LT$alloc..vec..into_iter..IntoIter$LT$T$C$A$GT$$u20$as$u20$core..ops..drop..Drop$GT$..drop..DropGuard$LT$T$C$A$GT$$u20$as$u20$core..ops..drop..Drop$GT$4drop17hb732280ee82ccc0bE', symObjAddr: 0x204, symBinAddr: 0x338B0, symSize: 0x6C }
  - { offset: 0xE08A0, size: 0x8, addend: 0x0, symName: '__ZN157_$LT$$LT$alloc..vec..into_iter..IntoIter$LT$T$C$A$GT$$u20$as$u20$core..ops..drop..Drop$GT$..drop..DropGuard$LT$T$C$A$GT$$u20$as$u20$core..ops..drop..Drop$GT$4drop17he3c0c0da8b2c0112E', symObjAddr: 0x270, symBinAddr: 0x3391C, symSize: 0x6C }
  - { offset: 0xE09E3, size: 0x8, addend: 0x0, symName: '__ZN157_$LT$$LT$alloc..vec..into_iter..IntoIter$LT$T$C$A$GT$$u20$as$u20$core..ops..drop..Drop$GT$..drop..DropGuard$LT$T$C$A$GT$$u20$as$u20$core..ops..drop..Drop$GT$4drop17hf936e993d0812b63E', symObjAddr: 0x2DC, symBinAddr: 0x33988, symSize: 0x6C }
  - { offset: 0xE0BC4, size: 0x8, addend: 0x0, symName: '__ZN86_$LT$alloc..vec..into_iter..IntoIter$LT$T$C$A$GT$$u20$as$u20$core..ops..drop..Drop$GT$4drop17h40ae83d0663ef608E', symObjAddr: 0x35D0, symBinAddr: 0x36A00, symSize: 0x78 }
  - { offset: 0xE0C16, size: 0x8, addend: 0x0, symName: '__ZN86_$LT$alloc..vec..into_iter..IntoIter$LT$T$C$A$GT$$u20$as$u20$core..ops..drop..Drop$GT$4drop17h814b0a98fc17f103E', symObjAddr: 0x3648, symBinAddr: 0x36A78, symSize: 0x78 }
  - { offset: 0xE0C68, size: 0x8, addend: 0x0, symName: '__ZN86_$LT$alloc..vec..into_iter..IntoIter$LT$T$C$A$GT$$u20$as$u20$core..ops..drop..Drop$GT$4drop17h989e638d0c69a3c1E', symObjAddr: 0x36C0, symBinAddr: 0x36AF0, symSize: 0x78 }
  - { offset: 0xE0CBA, size: 0x8, addend: 0x0, symName: '__ZN86_$LT$alloc..vec..into_iter..IntoIter$LT$T$C$A$GT$$u20$as$u20$core..ops..drop..Drop$GT$4drop17hdab186d170e3a349E', symObjAddr: 0x3738, symBinAddr: 0x36B68, symSize: 0x78 }
  - { offset: 0xE1089, size: 0x8, addend: 0x0, symName: '__ZN70_$LT$alloc..vec..Vec$LT$T$C$A$GT$$u20$as$u20$core..ops..drop..Drop$GT$4drop17h62b3f9a384932e66E', symObjAddr: 0x2D30, symBinAddr: 0x36160, symSize: 0x38 }
  - { offset: 0xE1139, size: 0x8, addend: 0x0, symName: '__ZN70_$LT$alloc..vec..Vec$LT$T$C$A$GT$$u20$as$u20$core..ops..drop..Drop$GT$4drop17h9d2e9cdefc479ac3E', symObjAddr: 0x2D68, symBinAddr: 0x36198, symSize: 0x38 }
  - { offset: 0xE1AB2, size: 0x8, addend: 0x0, symName: '__ZN77_$LT$alloc..raw_vec..RawVec$LT$T$C$A$GT$$u20$as$u20$core..ops..drop..Drop$GT$4drop17h76f6b97afaea660cE', symObjAddr: 0x34FC, symBinAddr: 0x3692C, symSize: 0x34 }
  - { offset: 0xE1AEE, size: 0x8, addend: 0x0, symName: '__ZN77_$LT$alloc..raw_vec..RawVec$LT$T$C$A$GT$$u20$as$u20$core..ops..drop..Drop$GT$4drop17hc5e3b5dd250835d7E', symObjAddr: 0x3530, symBinAddr: 0x36960, symSize: 0x34 }
  - { offset: 0xE204B, size: 0x8, addend: 0x0, symName: '__ZN160_$LT$$LT$T$u20$as$u20$alloc..slice..$LT$impl$u20$$u5b$T$u5d$$GT$..to_vec_in..ConvertVec$GT$..to_vec..DropGuard$LT$T$C$A$GT$$u20$as$u20$core..ops..drop..Drop$GT$4drop17h10059ede61fd6824E', symObjAddr: 0x348, symBinAddr: 0x339F4, symSize: 0x30 }
  - { offset: 0xE2087, size: 0x8, addend: 0x0, symName: '__ZN160_$LT$$LT$T$u20$as$u20$alloc..slice..$LT$impl$u20$$u5b$T$u5d$$GT$..to_vec_in..ConvertVec$GT$..to_vec..DropGuard$LT$T$C$A$GT$$u20$as$u20$core..ops..drop..Drop$GT$4drop17h3d431dc0dfda89b7E', symObjAddr: 0x378, symBinAddr: 0x33A24, symSize: 0x30 }
  - { offset: 0xE2D4B, size: 0x8, addend: 0x0, symName: '__ZN69_$LT$pyo3..instance..Py$LT$T$GT$$u20$as$u20$core..ops..drop..Drop$GT$4drop17h3641e9d7498aa69cE', symObjAddr: 0x2C90, symBinAddr: 0x360C0, symSize: 0x28 }
  - { offset: 0xE2D7E, size: 0x8, addend: 0x0, symName: '__ZN69_$LT$pyo3..instance..Py$LT$T$GT$$u20$as$u20$core..ops..drop..Drop$GT$4drop17h9ac438447c5c3458E', symObjAddr: 0x2CB8, symBinAddr: 0x360E8, symSize: 0x28 }
  - { offset: 0xE2DB1, size: 0x8, addend: 0x0, symName: '__ZN69_$LT$pyo3..instance..Py$LT$T$GT$$u20$as$u20$core..ops..drop..Drop$GT$4drop17ha364c6b5fc7f08b1E', symObjAddr: 0x2CE0, symBinAddr: 0x36110, symSize: 0x28 }
  - { offset: 0xE2DE4, size: 0x8, addend: 0x0, symName: '__ZN69_$LT$pyo3..instance..Py$LT$T$GT$$u20$as$u20$core..ops..drop..Drop$GT$4drop17hf9bb8d952f2abce8E', symObjAddr: 0x2D08, symBinAddr: 0x36138, symSize: 0x28 }
  - { offset: 0xE2E1D, size: 0x8, addend: 0x0, symName: '__ZN72_$LT$pyo3..instance..Bound$LT$T$GT$$u20$as$u20$core..ops..drop..Drop$GT$4drop17h3c9e0804c4fddbd6E', symObjAddr: 0x2E50, symBinAddr: 0x36280, symSize: 0x1A0 }
  - { offset: 0xE2E8C, size: 0x8, addend: 0x0, symName: '__ZN72_$LT$pyo3..instance..Bound$LT$T$GT$$u20$as$u20$core..ops..drop..Drop$GT$4drop17ha419b331914dd278E', symObjAddr: 0x2FF0, symBinAddr: 0x36420, symSize: 0x1A0 }
  - { offset: 0xE2EFB, size: 0x8, addend: 0x0, symName: '__ZN72_$LT$pyo3..instance..Bound$LT$T$GT$$u20$as$u20$core..ops..drop..Drop$GT$4drop17hc0f2d2215a95aa21E', symObjAddr: 0x3190, symBinAddr: 0x365C0, symSize: 0x1A0 }
  - { offset: 0xE2F6A, size: 0x8, addend: 0x0, symName: '__ZN72_$LT$pyo3..instance..Bound$LT$T$GT$$u20$as$u20$core..ops..drop..Drop$GT$4drop17hd6bd6e15ac9a31f1E', symObjAddr: 0x3330, symBinAddr: 0x36760, symSize: 0x1A0 }
  - { offset: 0xE31E9, size: 0x8, addend: 0x0, symName: '__ZN70_$LT$pyo3..pycell..PyRef$LT$T$GT$$u20$as$u20$core..ops..drop..Drop$GT$4drop17h1197b4158eddc9bcE', symObjAddr: 0x2DA0, symBinAddr: 0x361D0, symSize: 0x2C }
  - { offset: 0xE321C, size: 0x8, addend: 0x0, symName: '__ZN70_$LT$pyo3..pycell..PyRef$LT$T$GT$$u20$as$u20$core..ops..drop..Drop$GT$4drop17h2c7b2f0d4b26d754E', symObjAddr: 0x2DCC, symBinAddr: 0x361FC, symSize: 0x2C }
  - { offset: 0xE324F, size: 0x8, addend: 0x0, symName: '__ZN70_$LT$pyo3..pycell..PyRef$LT$T$GT$$u20$as$u20$core..ops..drop..Drop$GT$4drop17hd5fdf2619a32efa7E', symObjAddr: 0x2DF8, symBinAddr: 0x36228, symSize: 0x2C }
  - { offset: 0xE3282, size: 0x8, addend: 0x0, symName: '__ZN70_$LT$pyo3..pycell..PyRef$LT$T$GT$$u20$as$u20$core..ops..drop..Drop$GT$4drop17he053494ac1ee2c5aE', symObjAddr: 0x2E24, symBinAddr: 0x36254, symSize: 0x2C }
  - { offset: 0xE32BB, size: 0x8, addend: 0x0, symName: '__ZN73_$LT$pyo3..pycell..PyRefMut$LT$T$GT$$u20$as$u20$core..ops..drop..Drop$GT$4drop17h8a72e8d68d0aa712E', symObjAddr: 0x34D0, symBinAddr: 0x36900, symSize: 0x2C }
  - { offset: 0xE4096, size: 0x8, addend: 0x0, symName: '__ZN79_$LT$hashbrown..raw..RawTable$LT$T$C$A$GT$$u20$as$u20$core..ops..drop..Drop$GT$4drop17hd9fe58fa16512fb5E', symObjAddr: 0x3564, symBinAddr: 0x36994, symSize: 0x3C }
  - { offset: 0xE5ED9, size: 0x8, addend: 0x0, symName: __ZN4core9ub_checks23maybe_is_nonoverlapping7runtime17h8f172e2f6e18e3faE, symObjAddr: 0x0, symBinAddr: 0x36CC0, symSize: 0xD8 }
  - { offset: 0xE605E, size: 0x8, addend: 0x0, symName: __ZN4core9ub_checks23maybe_is_nonoverlapping7runtime17h8f172e2f6e18e3faE, symObjAddr: 0x0, symBinAddr: 0x36CC0, symSize: 0xD8 }
  - { offset: 0xE6271, size: 0x8, addend: 0x0, symName: '__ZN114_$LT$pyo3..pyclass_init..PyNativeTypeInitializer$LT$T$GT$$u20$as$u20$pyo3..pyclass_init..PyObjectInit$LT$T$GT$$GT$15into_new_object17h571a779ae767bebbE', symObjAddr: 0x0, symBinAddr: 0x36D98, symSize: 0x3C }
  - { offset: 0xE8CD1, size: 0x8, addend: 0x0, symName: '__ZN114_$LT$pyo3..pyclass_init..PyNativeTypeInitializer$LT$T$GT$$u20$as$u20$pyo3..pyclass_init..PyObjectInit$LT$T$GT$$GT$15into_new_object17h571a779ae767bebbE', symObjAddr: 0x0, symBinAddr: 0x36D98, symSize: 0x3C }
  - { offset: 0xE8D55, size: 0x8, addend: 0x0, symName: '__ZN114_$LT$pyo3..pyclass_init..PyNativeTypeInitializer$LT$T$GT$$u20$as$u20$pyo3..pyclass_init..PyObjectInit$LT$T$GT$$GT$17can_be_subclassed17hc41babeac98a6357E', symObjAddr: 0x3C, symBinAddr: 0x36DD4, symSize: 0x18 }
  - { offset: 0xE9289, size: 0x8, addend: 0x0, symName: '__ZN96_$LT$pyo3..pyclass_init..PyClassInitializer$LT$T$GT$$u20$as$u20$core..convert..From$LT$T$GT$$GT$4from17h414418bd3b09cd1eE', symObjAddr: 0x11EC, symBinAddr: 0x37F84, symSize: 0x48 }
  - { offset: 0xE92C1, size: 0x8, addend: 0x0, symName: '__ZN96_$LT$pyo3..pyclass_init..PyClassInitializer$LT$T$GT$$u20$as$u20$core..convert..From$LT$T$GT$$GT$4from17h42dc9dc3f2bd96afE', symObjAddr: 0x1234, symBinAddr: 0x37FCC, symSize: 0x48 }
  - { offset: 0xE92F9, size: 0x8, addend: 0x0, symName: '__ZN96_$LT$pyo3..pyclass_init..PyClassInitializer$LT$T$GT$$u20$as$u20$core..convert..From$LT$T$GT$$GT$4from17hc619abfa76be1216E', symObjAddr: 0x127C, symBinAddr: 0x38014, symSize: 0x48 }
  - { offset: 0xE9331, size: 0x8, addend: 0x0, symName: '__ZN96_$LT$pyo3..pyclass_init..PyClassInitializer$LT$T$GT$$u20$as$u20$core..convert..From$LT$T$GT$$GT$4from17hf05ce8758e8de801E', symObjAddr: 0x12C4, symBinAddr: 0x3805C, symSize: 0x50 }
  - { offset: 0xEA58E, size: 0x8, addend: 0x0, symName: '__ZN4pyo312pyclass_init27PyClassInitializer$LT$T$GT$19create_class_object17h3ab1c3e48d9a1cdeE', symObjAddr: 0x54, symBinAddr: 0x36DEC, symSize: 0x98 }
  - { offset: 0xEA5D3, size: 0x8, addend: 0x0, symName: '__ZN4pyo312pyclass_init27PyClassInitializer$LT$T$GT$19create_class_object17hb260a95e4af2fc78E', symObjAddr: 0xEC, symBinAddr: 0x36E84, symSize: 0x98 }
  - { offset: 0xEA618, size: 0x8, addend: 0x0, symName: '__ZN4pyo312pyclass_init27PyClassInitializer$LT$T$GT$19create_class_object17hc4d0021869350f42E', symObjAddr: 0x184, symBinAddr: 0x36F1C, symSize: 0x98 }
  - { offset: 0xEA6DE, size: 0x8, addend: 0x0, symName: '__ZN4pyo312pyclass_init27PyClassInitializer$LT$T$GT$27create_class_object_of_type17h5be83c83536665e8E', symObjAddr: 0x21C, symBinAddr: 0x36FB4, symSize: 0x2FC }
  - { offset: 0xEA8FC, size: 0x8, addend: 0x0, symName: '__ZN4pyo312pyclass_init27PyClassInitializer$LT$T$GT$27create_class_object_of_type17h7df5c7addd29a1d3E', symObjAddr: 0x518, symBinAddr: 0x372B0, symSize: 0x2EC }
  - { offset: 0xEAB1A, size: 0x8, addend: 0x0, symName: '__ZN4pyo312pyclass_init27PyClassInitializer$LT$T$GT$27create_class_object_of_type17hd20ac9e0dfa92b80E', symObjAddr: 0x804, symBinAddr: 0x3759C, symSize: 0x2F8 }
  - { offset: 0xEC51A, size: 0x8, addend: 0x0, symName: '__ZN4pyo312pyclass_init27PyClassInitializer$LT$T$GT$27create_class_object_of_type17hd33ba3acd9a4c24eE', symObjAddr: 0xAFC, symBinAddr: 0x37894, symSize: 0x33C }
  - { offset: 0xEC710, size: 0x8, addend: 0x0, symName: '__ZN4pyo312pyclass_init27PyClassInitializer$LT$T$GT$3new17h0f6bfd64ba1f8b1dE', symObjAddr: 0xE38, symBinAddr: 0x37BD0, symSize: 0xFC }
  - { offset: 0xEC74B, size: 0x8, addend: 0x0, symName: '__ZN4pyo312pyclass_init27PyClassInitializer$LT$T$GT$3new17h30c6612058f5dd6eE', symObjAddr: 0xF34, symBinAddr: 0x37CCC, symSize: 0xE0 }
  - { offset: 0xEC786, size: 0x8, addend: 0x0, symName: '__ZN4pyo312pyclass_init27PyClassInitializer$LT$T$GT$3new17h3f156c71621c2704E', symObjAddr: 0x1014, symBinAddr: 0x37DAC, symSize: 0xF8 }
  - { offset: 0xEC7C1, size: 0x8, addend: 0x0, symName: '__ZN4pyo312pyclass_init27PyClassInitializer$LT$T$GT$3new17hb592416fd03bebb8E', symObjAddr: 0x110C, symBinAddr: 0x37EA4, symSize: 0xE0 }
  - { offset: 0xEC827, size: 0x8, addend: 0x0, symName: '__ZN116_$LT$sekejap..PyHit$u20$as$u20$pyo3..conversion..IntoPy$LT$pyo3..instance..Py$LT$pyo3..types..any..PyAny$GT$$GT$$GT$7into_py17ha171eca0f87e8b8aE', symObjAddr: 0x0, symBinAddr: 0x380AC, symSize: 0xBC }
  - { offset: 0xF0A9A, size: 0x8, addend: 0x0, symName: '__ZN67_$LT$sekejap..PyDB$u20$as$u20$pyo3..impl_..pyclass..PyClassImpl$GT$10items_iter15INTRINSIC_ITEMS17he20b270b7357b196E', symObjAddr: 0xB1A8, symBinAddr: 0x369E20, symSize: 0x0 }
  - { offset: 0xF0ABA, size: 0x8, addend: 0x0, symName: '__ZN67_$LT$sekejap..PyDB$u20$as$u20$pyo3..impl_..pyclass..PyClassImpl$GT$16lazy_type_object11TYPE_OBJECT17h8fc6c368931fdd4aE', symObjAddr: 0xB270, symBinAddr: 0x494438, symSize: 0x0 }
  - { offset: 0xF0ADA, size: 0x8, addend: 0x0, symName: '__ZN67_$LT$sekejap..PyDB$u20$as$u20$pyo3..impl_..pyclass..PyClassImpl$GT$3doc3DOC17hf61637dfd253342cE', symObjAddr: 0xB2B8, symBinAddr: 0x494480, symSize: 0x0 }
  - { offset: 0xF0AE8, size: 0x8, addend: 0x0, symName: '__ZN67_$LT$sekejap..PyDB$u20$as$u20$pyo3..impl_..pyclass..PyClassImpl$GT$10items_iter17hadfc2a1d620f2079E', symObjAddr: 0x6A8, symBinAddr: 0x38754, symSize: 0x38 }
  - { offset: 0xF0B23, size: 0x8, addend: 0x0, symName: '__ZN67_$LT$sekejap..PyDB$u20$as$u20$pyo3..impl_..pyclass..PyClassImpl$GT$16lazy_type_object17hf8ebf3fef8e7c8c2E', symObjAddr: 0x6E0, symBinAddr: 0x3878C, symSize: 0xC }
  - { offset: 0xF0B40, size: 0x8, addend: 0x0, symName: '__ZN67_$LT$sekejap..PyDB$u20$as$u20$pyo3..impl_..pyclass..PyClassImpl$GT$3doc17h93420ec455f80835E', symObjAddr: 0x6EC, symBinAddr: 0x38798, symSize: 0x3C }
  - { offset: 0xF16F6, size: 0x8, addend: 0x0, symName: '__ZN68_$LT$sekejap..PyHit$u20$as$u20$pyo3..impl_..pyclass..PyClassImpl$GT$10items_iter15INTRINSIC_ITEMS17h5cbf5f9f8c9bddd2E', symObjAddr: 0x9D38, symBinAddr: 0x47D420, symSize: 0x0 }
  - { offset: 0xF170D, size: 0x8, addend: 0x0, symName: '__ZN209_$LT$$LT$sekejap..PyHit$u20$as$u20$pyo3..impl_..pyclass..PyClassImpl$GT$..items_iter..INTRINSIC_ITEMS..Offset$u20$as$u20$pyo3..impl_..pyclass..OffsetCalculator$LT$sekejap..PyHit$C$alloc..string..String$GT$$GT$6offset17h7d77fca41a3857fcE', symObjAddr: 0x2B4, symBinAddr: 0x38360, symSize: 0x40 }
  - { offset: 0xF1730, size: 0x8, addend: 0x0, symName: '__ZN237_$LT$$LT$sekejap..PyHit$u20$as$u20$pyo3..impl_..pyclass..PyClassImpl$GT$..items_iter..INTRINSIC_ITEMS..Offset$u20$as$u20$pyo3..impl_..pyclass..OffsetCalculator$LT$sekejap..PyHit$C$core..option..Option$LT$alloc..string..String$GT$$GT$$GT$6offset17hf71e1a7f3f7f43b7E', symObjAddr: 0x2F4, symBinAddr: 0x383A0, symSize: 0x40 }
  - { offset: 0xF1762, size: 0x8, addend: 0x0, symName: '__ZN68_$LT$sekejap..PyHit$u20$as$u20$pyo3..impl_..pyclass..PyClassImpl$GT$16lazy_type_object11TYPE_OBJECT17h2b9effca954dd87aE', symObjAddr: 0xB2D0, symBinAddr: 0x494498, symSize: 0x0 }
  - { offset: 0xF1782, size: 0x8, addend: 0x0, symName: '__ZN68_$LT$sekejap..PyHit$u20$as$u20$pyo3..impl_..pyclass..PyClassImpl$GT$3doc3DOC17h64f985a1b73b284cE', symObjAddr: 0xB318, symBinAddr: 0x4944E0, symSize: 0x0 }
  - { offset: 0xF1790, size: 0x8, addend: 0x0, symName: '__ZN68_$LT$sekejap..PyHit$u20$as$u20$pyo3..impl_..pyclass..PyClassImpl$GT$10items_iter17heae02ef4f334dc32E', symObjAddr: 0x74C, symBinAddr: 0x387F8, symSize: 0x38 }
  - { offset: 0xF17CB, size: 0x8, addend: 0x0, symName: '__ZN68_$LT$sekejap..PyHit$u20$as$u20$pyo3..impl_..pyclass..PyClassImpl$GT$16lazy_type_object17h417f1766a7c78a91E', symObjAddr: 0x784, symBinAddr: 0x38830, symSize: 0xC }
  - { offset: 0xF17E8, size: 0x8, addend: 0x0, symName: '__ZN68_$LT$sekejap..PyHit$u20$as$u20$pyo3..impl_..pyclass..PyClassImpl$GT$3doc17h0dc7cbdacf22ae30E', symObjAddr: 0x790, symBinAddr: 0x3883C, symSize: 0x3C }
  - { offset: 0xF1887, size: 0x8, addend: 0x0, symName: '__ZN72_$LT$sekejap..PyEdgeHit$u20$as$u20$pyo3..impl_..pyclass..PyClassImpl$GT$10items_iter15INTRINSIC_ITEMS17hdfb902d471035675E', symObjAddr: 0x9E98, symBinAddr: 0x47D580, symSize: 0x0 }
  - { offset: 0xF189E, size: 0x8, addend: 0x0, symName: '__ZN199_$LT$$LT$sekejap..PyEdgeHit$u20$as$u20$pyo3..impl_..pyclass..PyClassImpl$GT$..items_iter..INTRINSIC_ITEMS..Offset$u20$as$u20$pyo3..impl_..pyclass..OffsetCalculator$LT$sekejap..PyEdgeHit$C$f32$GT$$GT$6offset17h6ac2412898ed2656E', symObjAddr: 0x234, symBinAddr: 0x382E0, symSize: 0x40 }
  - { offset: 0xF18C1, size: 0x8, addend: 0x0, symName: '__ZN245_$LT$$LT$sekejap..PyEdgeHit$u20$as$u20$pyo3..impl_..pyclass..PyClassImpl$GT$..items_iter..INTRINSIC_ITEMS..Offset$u20$as$u20$pyo3..impl_..pyclass..OffsetCalculator$LT$sekejap..PyEdgeHit$C$core..option..Option$LT$alloc..string..String$GT$$GT$$GT$6offset17h92a77b46857008feE', symObjAddr: 0x3B4, symBinAddr: 0x38460, symSize: 0x40 }
  - { offset: 0xF18E4, size: 0x8, addend: 0x0, symName: '__ZN245_$LT$$LT$sekejap..PyEdgeHit$u20$as$u20$pyo3..impl_..pyclass..PyClassImpl$GT$..items_iter..INTRINSIC_ITEMS..Offset$u20$as$u20$pyo3..impl_..pyclass..OffsetCalculator$LT$sekejap..PyEdgeHit$C$core..option..Option$LT$alloc..string..String$GT$$GT$$GT$6offset17h9ad4782d5883f62fE', symObjAddr: 0x3F4, symBinAddr: 0x384A0, symSize: 0x40 }
  - { offset: 0xF1907, size: 0x8, addend: 0x0, symName: '__ZN245_$LT$$LT$sekejap..PyEdgeHit$u20$as$u20$pyo3..impl_..pyclass..PyClassImpl$GT$..items_iter..INTRINSIC_ITEMS..Offset$u20$as$u20$pyo3..impl_..pyclass..OffsetCalculator$LT$sekejap..PyEdgeHit$C$core..option..Option$LT$alloc..string..String$GT$$GT$$GT$6offset17hb7f2c17995d09d53E', symObjAddr: 0x434, symBinAddr: 0x384E0, symSize: 0x40 }
  - { offset: 0xF192A, size: 0x8, addend: 0x0, symName: '__ZN245_$LT$$LT$sekejap..PyEdgeHit$u20$as$u20$pyo3..impl_..pyclass..PyClassImpl$GT$..items_iter..INTRINSIC_ITEMS..Offset$u20$as$u20$pyo3..impl_..pyclass..OffsetCalculator$LT$sekejap..PyEdgeHit$C$core..option..Option$LT$alloc..string..String$GT$$GT$$GT$6offset17he766fd3949efc226E', symObjAddr: 0x474, symBinAddr: 0x38520, symSize: 0x40 }
  - { offset: 0xF195C, size: 0x8, addend: 0x0, symName: '__ZN72_$LT$sekejap..PyEdgeHit$u20$as$u20$pyo3..impl_..pyclass..PyClassImpl$GT$16lazy_type_object11TYPE_OBJECT17h97e88b4dc00b45a6E', symObjAddr: 0xB330, symBinAddr: 0x4944F8, symSize: 0x0 }
  - { offset: 0xF197C, size: 0x8, addend: 0x0, symName: '__ZN72_$LT$sekejap..PyEdgeHit$u20$as$u20$pyo3..impl_..pyclass..PyClassImpl$GT$3doc3DOC17he59e92a7296cb2a0E', symObjAddr: 0xB378, symBinAddr: 0x494540, symSize: 0x0 }
  - { offset: 0xF198A, size: 0x8, addend: 0x0, symName: '__ZN72_$LT$sekejap..PyEdgeHit$u20$as$u20$pyo3..impl_..pyclass..PyClassImpl$GT$10items_iter17hcdec5194fd8c1357E', symObjAddr: 0x7F0, symBinAddr: 0x3889C, symSize: 0x38 }
  - { offset: 0xF19C5, size: 0x8, addend: 0x0, symName: '__ZN72_$LT$sekejap..PyEdgeHit$u20$as$u20$pyo3..impl_..pyclass..PyClassImpl$GT$16lazy_type_object17hfa16159e34e4f986E', symObjAddr: 0x828, symBinAddr: 0x388D4, symSize: 0xC }
  - { offset: 0xF19E2, size: 0x8, addend: 0x0, symName: '__ZN72_$LT$sekejap..PyEdgeHit$u20$as$u20$pyo3..impl_..pyclass..PyClassImpl$GT$3doc17hfb31c75ad1b0f17dE', symObjAddr: 0x834, symBinAddr: 0x388E0, symSize: 0x3C }
  - { offset: 0xF1AA5, size: 0x8, addend: 0x0, symName: '__ZN75_$LT$sekejap..PyPathResult$u20$as$u20$pyo3..impl_..pyclass..PyClassImpl$GT$10items_iter15INTRINSIC_ITEMS17hdb0faf9748d35d67E', symObjAddr: 0x9F78, symBinAddr: 0x47D660, symSize: 0x0 }
  - { offset: 0xF1ABC, size: 0x8, addend: 0x0, symName: '__ZN207_$LT$$LT$sekejap..PyPathResult$u20$as$u20$pyo3..impl_..pyclass..PyClassImpl$GT$..items_iter..INTRINSIC_ITEMS..Offset$u20$as$u20$pyo3..impl_..pyclass..OffsetCalculator$LT$sekejap..PyPathResult$C$usize$GT$$GT$6offset17ha06d3165fe9ac240E', symObjAddr: 0x274, symBinAddr: 0x38320, symSize: 0x40 }
  - { offset: 0xF1ADF, size: 0x8, addend: 0x0, symName: '__ZN239_$LT$$LT$sekejap..PyPathResult$u20$as$u20$pyo3..impl_..pyclass..PyClassImpl$GT$..items_iter..INTRINSIC_ITEMS..Offset$u20$as$u20$pyo3..impl_..pyclass..OffsetCalculator$LT$sekejap..PyPathResult$C$alloc..vec..Vec$LT$sekejap..PyHit$GT$$GT$$GT$6offset17h7289cc999c322eedE', symObjAddr: 0x334, symBinAddr: 0x383E0, symSize: 0x40 }
  - { offset: 0xF1B02, size: 0x8, addend: 0x0, symName: '__ZN243_$LT$$LT$sekejap..PyPathResult$u20$as$u20$pyo3..impl_..pyclass..PyClassImpl$GT$..items_iter..INTRINSIC_ITEMS..Offset$u20$as$u20$pyo3..impl_..pyclass..OffsetCalculator$LT$sekejap..PyPathResult$C$alloc..vec..Vec$LT$sekejap..PyEdgeHit$GT$$GT$$GT$6offset17hc87e700da71e9a1dE', symObjAddr: 0x374, symBinAddr: 0x38420, symSize: 0x40 }
  - { offset: 0xF1B34, size: 0x8, addend: 0x0, symName: '__ZN75_$LT$sekejap..PyPathResult$u20$as$u20$pyo3..impl_..pyclass..PyClassImpl$GT$16lazy_type_object11TYPE_OBJECT17ha9556bc66372b6feE', symObjAddr: 0xB390, symBinAddr: 0x494558, symSize: 0x0 }
  - { offset: 0xF1B54, size: 0x8, addend: 0x0, symName: '__ZN75_$LT$sekejap..PyPathResult$u20$as$u20$pyo3..impl_..pyclass..PyClassImpl$GT$3doc3DOC17h475b018b3ee4dd4dE', symObjAddr: 0xB3D8, symBinAddr: 0x4945A0, symSize: 0x0 }
  - { offset: 0xF1B62, size: 0x8, addend: 0x0, symName: '__ZN75_$LT$sekejap..PyPathResult$u20$as$u20$pyo3..impl_..pyclass..PyClassImpl$GT$10items_iter17hd1d0184f64a3d0e1E', symObjAddr: 0x870, symBinAddr: 0x3891C, symSize: 0x38 }
  - { offset: 0xF1B9D, size: 0x8, addend: 0x0, symName: '__ZN75_$LT$sekejap..PyPathResult$u20$as$u20$pyo3..impl_..pyclass..PyClassImpl$GT$16lazy_type_object17hd500207336ca124eE', symObjAddr: 0x8A8, symBinAddr: 0x38954, symSize: 0xC }
  - { offset: 0xF1BBA, size: 0x8, addend: 0x0, symName: '__ZN75_$LT$sekejap..PyPathResult$u20$as$u20$pyo3..impl_..pyclass..PyClassImpl$GT$3doc17h27eb738cd6b75e85E', symObjAddr: 0x8B4, symBinAddr: 0x38960, symSize: 0x3C }
  - { offset: 0xF1C65, size: 0x8, addend: 0x0, symName: '__ZN7sekejap146_$LT$impl$u20$pyo3..impl_..pyclass..PyMethods$LT$sekejap..PyDB$GT$$u20$for$u20$pyo3..impl_..pyclass..PyClassImplCollector$LT$sekejap..PyDB$GT$$GT$10py_methods5ITEMS17hc7ad97b5e6a48a31E', symObjAddr: 0xA550, symBinAddr: 0x47DC38, symSize: 0x0 }
  - { offset: 0xF1C77, size: 0x8, addend: 0x0, symName: '__ZN7sekejap146_$LT$impl$u20$pyo3..impl_..pyclass..PyMethods$LT$sekejap..PyDB$GT$$u20$for$u20$pyo3..impl_..pyclass..PyClassImplCollector$LT$sekejap..PyDB$GT$$GT$10py_methods5ITEMS10trampoline17h0102e1e643721e9aE', symObjAddr: 0xC24, symBinAddr: 0x38CD0, symSize: 0x44 }
  - { offset: 0xF1CB1, size: 0x8, addend: 0x0, symName: '__ZN7sekejap146_$LT$impl$u20$pyo3..impl_..pyclass..PyMethods$LT$sekejap..PyDB$GT$$u20$for$u20$pyo3..impl_..pyclass..PyClassImplCollector$LT$sekejap..PyDB$GT$$GT$10py_methods5ITEMS10trampoline17h1f2281e0801b582cE', symObjAddr: 0xC68, symBinAddr: 0x38D14, symSize: 0x50 }
  - { offset: 0xF1D07, size: 0x8, addend: 0x0, symName: '__ZN7sekejap146_$LT$impl$u20$pyo3..impl_..pyclass..PyMethods$LT$sekejap..PyDB$GT$$u20$for$u20$pyo3..impl_..pyclass..PyClassImplCollector$LT$sekejap..PyDB$GT$$GT$10py_methods5ITEMS10trampoline17h29f1f09cee19ebd8E', symObjAddr: 0xCB8, symBinAddr: 0x38D64, symSize: 0x50 }
  - { offset: 0xF1D5D, size: 0x8, addend: 0x0, symName: '__ZN7sekejap146_$LT$impl$u20$pyo3..impl_..pyclass..PyMethods$LT$sekejap..PyDB$GT$$u20$for$u20$pyo3..impl_..pyclass..PyClassImplCollector$LT$sekejap..PyDB$GT$$GT$10py_methods5ITEMS10trampoline17h42db2c1b3d9890afE', symObjAddr: 0xD08, symBinAddr: 0x38DB4, symSize: 0x50 }
  - { offset: 0xF1DB3, size: 0x8, addend: 0x0, symName: '__ZN7sekejap146_$LT$impl$u20$pyo3..impl_..pyclass..PyMethods$LT$sekejap..PyDB$GT$$u20$for$u20$pyo3..impl_..pyclass..PyClassImplCollector$LT$sekejap..PyDB$GT$$GT$10py_methods5ITEMS10trampoline17h59a790cbaf73e7fcE', symObjAddr: 0xD58, symBinAddr: 0x38E04, symSize: 0x44 }
  - { offset: 0xF1DED, size: 0x8, addend: 0x0, symName: '__ZN7sekejap146_$LT$impl$u20$pyo3..impl_..pyclass..PyMethods$LT$sekejap..PyDB$GT$$u20$for$u20$pyo3..impl_..pyclass..PyClassImplCollector$LT$sekejap..PyDB$GT$$GT$10py_methods5ITEMS10trampoline17h5b8437179be21c97E', symObjAddr: 0xD9C, symBinAddr: 0x38E48, symSize: 0x44 }
  - { offset: 0xF1E27, size: 0x8, addend: 0x0, symName: '__ZN7sekejap146_$LT$impl$u20$pyo3..impl_..pyclass..PyMethods$LT$sekejap..PyDB$GT$$u20$for$u20$pyo3..impl_..pyclass..PyClassImplCollector$LT$sekejap..PyDB$GT$$GT$10py_methods5ITEMS10trampoline17h61fdff894e417965E', symObjAddr: 0xDE0, symBinAddr: 0x38E8C, symSize: 0x44 }
  - { offset: 0xF1E61, size: 0x8, addend: 0x0, symName: '__ZN7sekejap146_$LT$impl$u20$pyo3..impl_..pyclass..PyMethods$LT$sekejap..PyDB$GT$$u20$for$u20$pyo3..impl_..pyclass..PyClassImplCollector$LT$sekejap..PyDB$GT$$GT$10py_methods5ITEMS10trampoline17h6ab250ab6b335511E', symObjAddr: 0xE24, symBinAddr: 0x38ED0, symSize: 0x50 }
  - { offset: 0xF1EB7, size: 0x8, addend: 0x0, symName: '__ZN7sekejap146_$LT$impl$u20$pyo3..impl_..pyclass..PyMethods$LT$sekejap..PyDB$GT$$u20$for$u20$pyo3..impl_..pyclass..PyClassImplCollector$LT$sekejap..PyDB$GT$$GT$10py_methods5ITEMS10trampoline17h93d0679e10cfdaa5E', symObjAddr: 0xE74, symBinAddr: 0x38F20, symSize: 0x50 }
  - { offset: 0xF1F0D, size: 0x8, addend: 0x0, symName: '__ZN7sekejap146_$LT$impl$u20$pyo3..impl_..pyclass..PyMethods$LT$sekejap..PyDB$GT$$u20$for$u20$pyo3..impl_..pyclass..PyClassImplCollector$LT$sekejap..PyDB$GT$$GT$10py_methods5ITEMS10trampoline17h9ba590f1ec249a3bE', symObjAddr: 0xEC4, symBinAddr: 0x38F70, symSize: 0x50 }
  - { offset: 0xF1F63, size: 0x8, addend: 0x0, symName: '__ZN7sekejap146_$LT$impl$u20$pyo3..impl_..pyclass..PyMethods$LT$sekejap..PyDB$GT$$u20$for$u20$pyo3..impl_..pyclass..PyClassImplCollector$LT$sekejap..PyDB$GT$$GT$10py_methods5ITEMS10trampoline17h9c94e9df6c758140E', symObjAddr: 0xF14, symBinAddr: 0x38FC0, symSize: 0x50 }
  - { offset: 0xF1FB9, size: 0x8, addend: 0x0, symName: '__ZN7sekejap146_$LT$impl$u20$pyo3..impl_..pyclass..PyMethods$LT$sekejap..PyDB$GT$$u20$for$u20$pyo3..impl_..pyclass..PyClassImplCollector$LT$sekejap..PyDB$GT$$GT$10py_methods5ITEMS10trampoline17ha5c16939b91bb89cE', symObjAddr: 0xF64, symBinAddr: 0x39010, symSize: 0x50 }
  - { offset: 0xF200F, size: 0x8, addend: 0x0, symName: '__ZN7sekejap146_$LT$impl$u20$pyo3..impl_..pyclass..PyMethods$LT$sekejap..PyDB$GT$$u20$for$u20$pyo3..impl_..pyclass..PyClassImplCollector$LT$sekejap..PyDB$GT$$GT$10py_methods5ITEMS10trampoline17hb57fa5922efbe231E', symObjAddr: 0xFB4, symBinAddr: 0x39060, symSize: 0x50 }
  - { offset: 0xF2065, size: 0x8, addend: 0x0, symName: '__ZN7sekejap146_$LT$impl$u20$pyo3..impl_..pyclass..PyMethods$LT$sekejap..PyDB$GT$$u20$for$u20$pyo3..impl_..pyclass..PyClassImplCollector$LT$sekejap..PyDB$GT$$GT$10py_methods5ITEMS10trampoline17hbf4cfb8230af1799E', symObjAddr: 0x1004, symBinAddr: 0x390B0, symSize: 0x3C }
  - { offset: 0xF2091, size: 0x8, addend: 0x0, symName: '__ZN7sekejap146_$LT$impl$u20$pyo3..impl_..pyclass..PyMethods$LT$sekejap..PyDB$GT$$u20$for$u20$pyo3..impl_..pyclass..PyClassImplCollector$LT$sekejap..PyDB$GT$$GT$10py_methods5ITEMS10trampoline17hd3511219159e225cE', symObjAddr: 0x1040, symBinAddr: 0x390EC, symSize: 0x50 }
  - { offset: 0xF20E7, size: 0x8, addend: 0x0, symName: '__ZN7sekejap146_$LT$impl$u20$pyo3..impl_..pyclass..PyMethods$LT$sekejap..PyDB$GT$$u20$for$u20$pyo3..impl_..pyclass..PyClassImplCollector$LT$sekejap..PyDB$GT$$GT$10py_methods5ITEMS10trampoline17hd5946df17b575e95E', symObjAddr: 0x1090, symBinAddr: 0x3913C, symSize: 0x50 }
  - { offset: 0xF213D, size: 0x8, addend: 0x0, symName: '__ZN7sekejap146_$LT$impl$u20$pyo3..impl_..pyclass..PyMethods$LT$sekejap..PyDB$GT$$u20$for$u20$pyo3..impl_..pyclass..PyClassImplCollector$LT$sekejap..PyDB$GT$$GT$10py_methods5ITEMS10trampoline17hd75f98c8ad202f4cE', symObjAddr: 0x10E0, symBinAddr: 0x3918C, symSize: 0x44 }
  - { offset: 0xF2177, size: 0x8, addend: 0x0, symName: '__ZN7sekejap146_$LT$impl$u20$pyo3..impl_..pyclass..PyMethods$LT$sekejap..PyDB$GT$$u20$for$u20$pyo3..impl_..pyclass..PyClassImplCollector$LT$sekejap..PyDB$GT$$GT$10py_methods5ITEMS10trampoline17hdab89f939b5079c8E', symObjAddr: 0x1124, symBinAddr: 0x391D0, symSize: 0x50 }
  - { offset: 0xF21CD, size: 0x8, addend: 0x0, symName: '__ZN7sekejap146_$LT$impl$u20$pyo3..impl_..pyclass..PyMethods$LT$sekejap..PyDB$GT$$u20$for$u20$pyo3..impl_..pyclass..PyClassImplCollector$LT$sekejap..PyDB$GT$$GT$10py_methods5ITEMS10trampoline17he1220595a2713460E', symObjAddr: 0x1174, symBinAddr: 0x39220, symSize: 0x50 }
  - { offset: 0xF2223, size: 0x8, addend: 0x0, symName: '__ZN7sekejap146_$LT$impl$u20$pyo3..impl_..pyclass..PyMethods$LT$sekejap..PyDB$GT$$u20$for$u20$pyo3..impl_..pyclass..PyClassImplCollector$LT$sekejap..PyDB$GT$$GT$10py_methods5ITEMS10trampoline17he68d0b368d81ce10E', symObjAddr: 0x11C4, symBinAddr: 0x39270, symSize: 0x44 }
  - { offset: 0xF225D, size: 0x8, addend: 0x0, symName: '__ZN7sekejap146_$LT$impl$u20$pyo3..impl_..pyclass..PyMethods$LT$sekejap..PyDB$GT$$u20$for$u20$pyo3..impl_..pyclass..PyClassImplCollector$LT$sekejap..PyDB$GT$$GT$10py_methods5ITEMS10trampoline17hea75b74dcf5257a1E', symObjAddr: 0x1208, symBinAddr: 0x392B4, symSize: 0x4C }
  - { offset: 0xF22A5, size: 0x8, addend: 0x0, symName: '__ZN7sekejap146_$LT$impl$u20$pyo3..impl_..pyclass..PyMethods$LT$sekejap..PyDB$GT$$u20$for$u20$pyo3..impl_..pyclass..PyClassImplCollector$LT$sekejap..PyDB$GT$$GT$10py_methods5ITEMS10trampoline17hf52f42f0fcbaf2b5E', symObjAddr: 0x1254, symBinAddr: 0x39300, symSize: 0x50 }
  - { offset: 0xF22FB, size: 0x8, addend: 0x0, symName: '__ZN7sekejap146_$LT$impl$u20$pyo3..impl_..pyclass..PyMethods$LT$sekejap..PyDB$GT$$u20$for$u20$pyo3..impl_..pyclass..PyClassImplCollector$LT$sekejap..PyDB$GT$$GT$10py_methods5ITEMS10trampoline17hf664f12141fbf6f0E', symObjAddr: 0x12A4, symBinAddr: 0x39350, symSize: 0x50 }
  - { offset: 0xF2351, size: 0x8, addend: 0x0, symName: '__ZN7sekejap146_$LT$impl$u20$pyo3..impl_..pyclass..PyMethods$LT$sekejap..PyDB$GT$$u20$for$u20$pyo3..impl_..pyclass..PyClassImplCollector$LT$sekejap..PyDB$GT$$GT$10py_methods5ITEMS10trampoline17hfcc22131365c35cfE', symObjAddr: 0x12F4, symBinAddr: 0x393A0, symSize: 0x44 }
  - { offset: 0xF23A5, size: 0x8, addend: 0x0, symName: '__ZN7sekejap148_$LT$impl$u20$pyo3..impl_..pyclass..PyMethods$LT$sekejap..PyHit$GT$$u20$for$u20$pyo3..impl_..pyclass..PyClassImplCollector$LT$sekejap..PyHit$GT$$GT$10py_methods5ITEMS17hd2146cae7d96f004E', symObjAddr: 0xA580, symBinAddr: 0x47DC68, symSize: 0x0 }
  - { offset: 0xF23B7, size: 0x8, addend: 0x0, symName: '__ZN7sekejap148_$LT$impl$u20$pyo3..impl_..pyclass..PyMethods$LT$sekejap..PyHit$GT$$u20$for$u20$pyo3..impl_..pyclass..PyClassImplCollector$LT$sekejap..PyHit$GT$$GT$10py_methods5ITEMS10trampoline17h60acfdeb2d28bd1dE', symObjAddr: 0x1338, symBinAddr: 0x393E4, symSize: 0x3C }
  - { offset: 0xF23FD, size: 0x8, addend: 0x0, symName: '__ZN7sekejap156_$LT$impl$u20$pyo3..impl_..pyclass..PyMethods$LT$sekejap..PyEdgeHit$GT$$u20$for$u20$pyo3..impl_..pyclass..PyClassImplCollector$LT$sekejap..PyEdgeHit$GT$$GT$10py_methods5ITEMS17h919e7b201b3bfb1cE', symObjAddr: 0xA5B0, symBinAddr: 0x47DC98, symSize: 0x0 }
  - { offset: 0xF240F, size: 0x8, addend: 0x0, symName: '__ZN7sekejap156_$LT$impl$u20$pyo3..impl_..pyclass..PyMethods$LT$sekejap..PyEdgeHit$GT$$u20$for$u20$pyo3..impl_..pyclass..PyClassImplCollector$LT$sekejap..PyEdgeHit$GT$$GT$10py_methods5ITEMS10trampoline17he30dd3bd60ff8637E', symObjAddr: 0x1374, symBinAddr: 0x39420, symSize: 0x3C }
  - { offset: 0xF2455, size: 0x8, addend: 0x0, symName: '__ZN7sekejap162_$LT$impl$u20$pyo3..impl_..pyclass..PyMethods$LT$sekejap..PyPathResult$GT$$u20$for$u20$pyo3..impl_..pyclass..PyClassImplCollector$LT$sekejap..PyPathResult$GT$$GT$10py_methods5ITEMS17h2901e9408b55ee33E', symObjAddr: 0xA5E0, symBinAddr: 0x47DCC8, symSize: 0x0 }
  - { offset: 0xF2467, size: 0x8, addend: 0x0, symName: '__ZN7sekejap162_$LT$impl$u20$pyo3..impl_..pyclass..PyMethods$LT$sekejap..PyPathResult$GT$$u20$for$u20$pyo3..impl_..pyclass..PyClassImplCollector$LT$sekejap..PyPathResult$GT$$GT$10py_methods5ITEMS10trampoline17h029cb78dcb3bf238E', symObjAddr: 0x13B0, symBinAddr: 0x3945C, symSize: 0x3C }
  - { offset: 0xF249B, size: 0x8, addend: 0x0, symName: '__ZN116_$LT$sekejap..PyHit$u20$as$u20$pyo3..conversion..IntoPy$LT$pyo3..instance..Py$LT$pyo3..types..any..PyAny$GT$$GT$$GT$7into_py17ha171eca0f87e8b8aE', symObjAddr: 0x0, symBinAddr: 0x380AC, symSize: 0xBC }
  - { offset: 0xF251E, size: 0x8, addend: 0x0, symName: '__ZN120_$LT$sekejap..PyEdgeHit$u20$as$u20$pyo3..conversion..IntoPy$LT$pyo3..instance..Py$LT$pyo3..types..any..PyAny$GT$$GT$$GT$7into_py17h640bda09feabdfb0E', symObjAddr: 0xBC, symBinAddr: 0x38168, symSize: 0xBC }
  - { offset: 0xF25A1, size: 0x8, addend: 0x0, symName: '__ZN123_$LT$sekejap..PyPathResult$u20$as$u20$pyo3..conversion..IntoPy$LT$pyo3..instance..Py$LT$pyo3..types..any..PyAny$GT$$GT$$GT$7into_py17h9c99a69aecdbc0dbE', symObjAddr: 0x178, symBinAddr: 0x38224, symSize: 0xBC }
  - { offset: 0xF2624, size: 0x8, addend: 0x0, symName: '__ZN53_$LT$sekejap..PyHit$u20$as$u20$core..clone..Clone$GT$5clone17h1e6831b07458bf93E', symObjAddr: 0x4B4, symBinAddr: 0x38560, symSize: 0x8C }
  - { offset: 0xF2656, size: 0x8, addend: 0x0, symName: '__ZN57_$LT$sekejap..PyEdgeHit$u20$as$u20$core..clone..Clone$GT$5clone17h54a30ef3b051e17aE', symObjAddr: 0x540, symBinAddr: 0x385EC, symSize: 0x120 }
  - { offset: 0xF2688, size: 0x8, addend: 0x0, symName: '__ZN63_$LT$sekejap..PyDB$u20$as$u20$pyo3..type_object..PyTypeInfo$GT$15type_object_raw17he1f01a2cbcbb7f57E', symObjAddr: 0x660, symBinAddr: 0x3870C, symSize: 0x24 }
  - { offset: 0xF26C5, size: 0x8, addend: 0x0, symName: '__ZN64_$LT$sekejap..PyHit$u20$as$u20$pyo3..type_object..PyTypeInfo$GT$15type_object_raw17hf17f40535e833769E', symObjAddr: 0x684, symBinAddr: 0x38730, symSize: 0x24 }
  - { offset: 0xF2702, size: 0x8, addend: 0x0, symName: '__ZN68_$LT$sekejap..PyEdgeHit$u20$as$u20$pyo3..type_object..PyTypeInfo$GT$15type_object_raw17hb47c609ef0163d25E', symObjAddr: 0x728, symBinAddr: 0x387D4, symSize: 0x24 }
  - { offset: 0xF273F, size: 0x8, addend: 0x0, symName: '__ZN71_$LT$sekejap..PyPathResult$u20$as$u20$pyo3..type_object..PyTypeInfo$GT$15type_object_raw17h09e0ff36582be11bE', symObjAddr: 0x7CC, symBinAddr: 0x38878, symSize: 0x24 }
  - { offset: 0xF2777, size: 0x8, addend: 0x0, symName: __ZN7sekejap12to_pyedgehit17h633d4f8f11a5e385E, symObjAddr: 0xB04, symBinAddr: 0x38BB0, symSize: 0x120 }
  - { offset: 0xF27AE, size: 0x8, addend: 0x0, symName: '__ZN7sekejap43_$LT$impl$u20$sekejap..sekejap..MakeDef$GT$8make_def15__pyo3_pymodule17h3720950921c533cfE', symObjAddr: 0x13EC, symBinAddr: 0x39498, symSize: 0x38 }
  - { offset: 0xF27DE, size: 0x8, addend: 0x0, symName: __ZN7sekejap7sekejap17hb8f913dc435ca1aeE, symObjAddr: 0x8118, symBinAddr: 0x401C4, symSize: 0x224 }
  - { offset: 0xF28C7, size: 0x8, addend: 0x0, symName: __ZN7sekejap8to_pyhit17h4177cd3a8428f41eE, symObjAddr: 0x833C, symBinAddr: 0x403E8, symSize: 0xB8 }
  - { offset: 0xF4EE8, size: 0x8, addend: 0x0, symName: __ZN7sekejap12PyPathResult21__pymethod___repr____17h0966519802ce108cE, symObjAddr: 0x8F0, symBinAddr: 0x3899C, symSize: 0x178 }
  - { offset: 0xF4FAE, size: 0x8, addend: 0x0, symName: __ZN7sekejap12PyPathResult8__repr__17hb8b3aa90c8b95f09E, symObjAddr: 0xA68, symBinAddr: 0x38B14, symSize: 0x9C }
  - { offset: 0xF5035, size: 0x8, addend: 0x0, symName: __ZN7sekejap4PyDB10edge_count17h4c2194fee2bc7a16E, symObjAddr: 0x1424, symBinAddr: 0x394D0, symSize: 0xA0 }
  - { offset: 0xF5077, size: 0x8, addend: 0x0, symName: __ZN7sekejap4PyDB10node_count17ha6d5ea6466275219E, symObjAddr: 0x14C4, symBinAddr: 0x39570, symSize: 0xA0 }
  - { offset: 0xF50B9, size: 0x8, addend: 0x0, symName: __ZN7sekejap4PyDB10path_query17hf492673b369d005cE, symObjAddr: 0x1564, symBinAddr: 0x39610, symSize: 0x1F8 }
  - { offset: 0xF515B, size: 0x8, addend: 0x0, symName: __ZN7sekejap4PyDB10schema_ddl17hbd69527215f3a193E, symObjAddr: 0x175C, symBinAddr: 0x39808, symSize: 0xC8 }
  - { offset: 0xF51D5, size: 0x8, addend: 0x0, symName: __ZN7sekejap4PyDB11edge_schema17hfd5b4d45ec30ad9fE, symObjAddr: 0x1824, symBinAddr: 0x398D0, symSize: 0xB0 }
  - { offset: 0xF5217, size: 0x8, addend: 0x0, symName: __ZN7sekejap4PyDB14pipeline_query17hce4b13535f074231E, symObjAddr: 0x18D4, symBinAddr: 0x39980, symSize: 0x19C }
  - { offset: 0xF5285, size: 0x8, addend: 0x0, symName: __ZN7sekejap4PyDB16__pymethod_get__17h043fadd48e8ebe1aE, symObjAddr: 0x1A70, symBinAddr: 0x39B1C, symSize: 0x390 }
  - { offset: 0xF5426, size: 0x8, addend: 0x0, symName: __ZN7sekejap4PyDB16__pymethod_put__17hb00f4cf3be4a2df6E, symObjAddr: 0x1E00, symBinAddr: 0x39EAC, symSize: 0x500 }
  - { offset: 0xF5609, size: 0x8, addend: 0x0, symName: __ZN7sekejap4PyDB16collection_names17ha5e0c991e88654ecE, symObjAddr: 0x2300, symBinAddr: 0x3A3AC, symSize: 0xB0 }
  - { offset: 0xF564B, size: 0x8, addend: 0x0, symName: __ZN7sekejap4PyDB17__pymethod_link__17hfd9e69e6389d0c6bE, symObjAddr: 0x23B0, symBinAddr: 0x3A45C, symSize: 0x6B0 }
  - { offset: 0xF58BA, size: 0x8, addend: 0x0, symName: __ZN7sekejap4PyDB17__pymethod_show__17h66eee3c5ae7bb4fdE, symObjAddr: 0x2A60, symBinAddr: 0x3AB0C, symSize: 0x390 }
  - { offset: 0xF5A5F, size: 0x8, addend: 0x0, symName: __ZN7sekejap4PyDB18__pymethod_close__17hf258062f257c910cE, symObjAddr: 0x2DF0, symBinAddr: 0x3AE9C, symSize: 0x19C }
  - { offset: 0xF5B4E, size: 0x8, addend: 0x0, symName: __ZN7sekejap4PyDB18__pymethod_query__17h42a2e3f71edbdec3E, symObjAddr: 0x2F8C, symBinAddr: 0x3B038, symSize: 0x390 }
  - { offset: 0xF5CEF, size: 0x8, addend: 0x0, symName: __ZN7sekejap4PyDB19__pymethod_remove__17hfc42fc6dce0fdb95E, symObjAddr: 0x331C, symBinAddr: 0x3B3C8, symSize: 0x330 }
  - { offset: 0xF5E98, size: 0x8, addend: 0x0, symName: __ZN7sekejap4PyDB19__pymethod_unlink__17h8372babe42f38834E, symObjAddr: 0x364C, symBinAddr: 0x3B6F8, symSize: 0x58C }
  - { offset: 0xF60C5, size: 0x8, addend: 0x0, symName: __ZN7sekejap4PyDB20__pymethod___new____17h2e9e4fc78741d18dE, symObjAddr: 0x3BD8, symBinAddr: 0x3BC84, symSize: 0x350 }
  - { offset: 0xF6259, size: 0x8, addend: 0x0, symName: __ZN7sekejap4PyDB20__pymethod_compact__17ha68238377ae5cab1E, symObjAddr: 0x3F28, symBinAddr: 0x3BFD4, symSize: 0x20C }
  - { offset: 0xF633A, size: 0x8, addend: 0x0, symName: __ZN7sekejap4PyDB20__pymethod_execute__17h536f328676e96caeE, symObjAddr: 0x4134, symBinAddr: 0x3C1E0, symSize: 0x390 }
  - { offset: 0xF64DB, size: 0x8, addend: 0x0, symName: __ZN7sekejap4PyDB21__pymethod___exit____17hc7423cfae52bf254E, symObjAddr: 0x44C4, symBinAddr: 0x3C570, symSize: 0x684 }
  - { offset: 0xF6728, size: 0x8, addend: 0x0, symName: __ZN7sekejap4PyDB21__pymethod___repr____17h6d87ea7bfaf35be1E, symObjAddr: 0x4B48, symBinAddr: 0x3CBF4, symSize: 0x178 }
  - { offset: 0xF67E1, size: 0x8, addend: 0x0, symName: __ZN7sekejap4PyDB21__pymethod_contains__17h01af788a2e7aadd0E, symObjAddr: 0x4CC0, symBinAddr: 0x3CD6C, symSize: 0x390 }
  - { offset: 0xF6982, size: 0x8, addend: 0x0, symName: __ZN7sekejap4PyDB22__pymethod___enter____17h1fcba9b4a341e25dE, symObjAddr: 0x5050, symBinAddr: 0x3D0FC, symSize: 0x1C0 }
  - { offset: 0xF6A4E, size: 0x8, addend: 0x0, symName: __ZN7sekejap4PyDB22__pymethod_link_meta__17h19b02400db35c2f0E, symObjAddr: 0x5210, symBinAddr: 0x3D2BC, symSize: 0x7FC }
  - { offset: 0xF6CF7, size: 0x8, addend: 0x0, symName: __ZN7sekejap4PyDB23__pymethod_edge_count__17h05d7e9e90887656cE, symObjAddr: 0x5A0C, symBinAddr: 0x3DAB8, symSize: 0x20C }
  - { offset: 0xF6DD8, size: 0x8, addend: 0x0, symName: __ZN7sekejap4PyDB23__pymethod_node_count__17he8f6644f2c0af8d8E, symObjAddr: 0x5C18, symBinAddr: 0x3DCC4, symSize: 0x20C }
  - { offset: 0xF6EB9, size: 0x8, addend: 0x0, symName: __ZN7sekejap4PyDB23__pymethod_path_query__17hbcbf30f6a6d84b9bE, symObjAddr: 0x5E24, symBinAddr: 0x3DED0, symSize: 0x3A4 }
  - { offset: 0xF705A, size: 0x8, addend: 0x0, symName: __ZN7sekejap4PyDB23__pymethod_schema_ddl__17h34e8a27e17efdb47E, symObjAddr: 0x61C8, symBinAddr: 0x3E274, symSize: 0x390 }
  - { offset: 0xF71FF, size: 0x8, addend: 0x0, symName: __ZN7sekejap4PyDB24__pymethod_edge_schema__17hbc8a3c7206a67504E, symObjAddr: 0x6558, symBinAddr: 0x3E604, symSize: 0x20C }
  - { offset: 0xF72E0, size: 0x8, addend: 0x0, symName: __ZN7sekejap4PyDB26edge_types_from_collection17h98a720faa0cd1641E, symObjAddr: 0x6764, symBinAddr: 0x3E810, symSize: 0xC8 }
  - { offset: 0xF7331, size: 0x8, addend: 0x0, symName: __ZN7sekejap4PyDB27__pymethod_pipeline_query__17h428187745af42cdcE, symObjAddr: 0x682C, symBinAddr: 0x3E8D8, symSize: 0x390 }
  - { offset: 0xF74D2, size: 0x8, addend: 0x0, symName: __ZN7sekejap4PyDB29__pymethod_collection_names__17h0243f9e570dd792dE, symObjAddr: 0x6BBC, symBinAddr: 0x3EC68, symSize: 0x20C }
  - { offset: 0xF75C0, size: 0x8, addend: 0x0, symName: __ZN7sekejap4PyDB2db17he3fa7c4c4769c806E, symObjAddr: 0x6DC8, symBinAddr: 0x3EE74, symSize: 0x30 }
  - { offset: 0xF75E3, size: 0x8, addend: 0x0, symName: __ZN7sekejap4PyDB39__pymethod_edge_types_from_collection__17h086569589ef879dfE, symObjAddr: 0x6DF8, symBinAddr: 0x3EEA4, symSize: 0x390 }
  - { offset: 0xF7788, size: 0x8, addend: 0x0, symName: __ZN7sekejap4PyDB3get17hafd316814c1df27cE, symObjAddr: 0x7188, symBinAddr: 0x3F234, symSize: 0xC8 }
  - { offset: 0xF77D6, size: 0x8, addend: 0x0, symName: __ZN7sekejap4PyDB3new17h90e99b2037f9a6beE, symObjAddr: 0x7250, symBinAddr: 0x3F2FC, symSize: 0x180 }
  - { offset: 0xF7875, size: 0x8, addend: 0x0, symName: __ZN7sekejap4PyDB3put17h2468d435860a42c1E, symObjAddr: 0x73D0, symBinAddr: 0x3F47C, symSize: 0xD0 }
  - { offset: 0xF78D3, size: 0x8, addend: 0x0, symName: __ZN7sekejap4PyDB4link17h9749db7e336e2d9fE, symObjAddr: 0x74A0, symBinAddr: 0x3F54C, symSize: 0xA0 }
  - { offset: 0xF794B, size: 0x8, addend: 0x0, symName: __ZN7sekejap4PyDB4show17hbb3834a641a00127E, symObjAddr: 0x7540, symBinAddr: 0x3F5EC, symSize: 0x19C }
  - { offset: 0xF79BD, size: 0x8, addend: 0x0, symName: __ZN7sekejap4PyDB5close17heb22210e8e42c795E, symObjAddr: 0x76DC, symBinAddr: 0x3F788, symSize: 0x3C }
  - { offset: 0xF79E0, size: 0x8, addend: 0x0, symName: __ZN7sekejap4PyDB5query17h592b2647fc16d218E, symObjAddr: 0x7718, symBinAddr: 0x3F7C4, symSize: 0x22C }
  - { offset: 0xF7A71, size: 0x8, addend: 0x0, symName: __ZN7sekejap4PyDB6db_mut17h93d1483c2b78aef7E, symObjAddr: 0x7944, symBinAddr: 0x3F9F0, symSize: 0x30 }
  - { offset: 0xF7A94, size: 0x8, addend: 0x0, symName: __ZN7sekejap4PyDB6remove17h6ab83304ab53d5e0E, symObjAddr: 0x7974, symBinAddr: 0x3FA20, symSize: 0x64 }
  - { offset: 0xF7AE1, size: 0x8, addend: 0x0, symName: __ZN7sekejap4PyDB6unlink17h8f0d62def8308ba4E, symObjAddr: 0x79D8, symBinAddr: 0x3FA84, symSize: 0x94 }
  - { offset: 0xF7B4B, size: 0x8, addend: 0x0, symName: __ZN7sekejap4PyDB7compact17h7c7a90bd2322577bE, symObjAddr: 0x7A6C, symBinAddr: 0x3FB18, symSize: 0x9C }
  - { offset: 0xF7B8D, size: 0x8, addend: 0x0, symName: __ZN7sekejap4PyDB7execute17h079a1d7111c874a4E, symObjAddr: 0x7B08, symBinAddr: 0x3FBB4, symSize: 0xC8 }
  - { offset: 0xF7BDD, size: 0x8, addend: 0x0, symName: __ZN7sekejap4PyDB8__exit__17h55b04374294dac05E, symObjAddr: 0x7BD0, symBinAddr: 0x3FC7C, symSize: 0xBC }
  - { offset: 0xF7C2D, size: 0x8, addend: 0x0, symName: __ZN7sekejap4PyDB8__repr__17h96b78a5c46843706E, symObjAddr: 0x7C8C, symBinAddr: 0x3FD38, symSize: 0x78 }
  - { offset: 0xF7C50, size: 0x8, addend: 0x0, symName: __ZN7sekejap4PyDB8contains17ha8bf43fd1b7fbaf8E, symObjAddr: 0x7D04, symBinAddr: 0x3FDB0, symSize: 0xB8 }
  - { offset: 0xF7C9E, size: 0x8, addend: 0x0, symName: __ZN7sekejap4PyDB9__enter__17h7981ea7788d114a2E, symObjAddr: 0x7DBC, symBinAddr: 0x3FE68, symSize: 0x14 }
  - { offset: 0xF7CC1, size: 0x8, addend: 0x0, symName: __ZN7sekejap4PyDB9link_meta17hed25dc0980a7088bE, symObjAddr: 0x7DD0, symBinAddr: 0x3FE7C, symSize: 0x11C }
  - { offset: 0xF7D4D, size: 0x8, addend: 0x0, symName: __ZN7sekejap5PyHit21__pymethod___repr____17hc0823c9cb2c24e00E, symObjAddr: 0x7EEC, symBinAddr: 0x3FF98, symSize: 0x178 }
  - { offset: 0xF7E13, size: 0x8, addend: 0x0, symName: __ZN7sekejap5PyHit8__repr__17h69b7582d48acdbefE, symObjAddr: 0x8064, symBinAddr: 0x40110, symSize: 0xB4 }
  - { offset: 0xF7EAA, size: 0x8, addend: 0x0, symName: __ZN7sekejap9PyEdgeHit21__pymethod___repr____17h353440f0b8344ad8E, symObjAddr: 0x83F4, symBinAddr: 0x404A0, symSize: 0x178 }
  - { offset: 0xF7F70, size: 0x8, addend: 0x0, symName: __ZN7sekejap9PyEdgeHit8__repr__17hcce98c48e45f4dabE, symObjAddr: 0x856C, symBinAddr: 0x40618, symSize: 0xC0 }
  - { offset: 0xF8498, size: 0x8, addend: 0x0, symName: '__ZN106_$LT$core..ops..range..Range$LT$usize$GT$$u20$as$u20$core..slice..index..SliceIndex$LT$$u5b$T$u5d$$GT$$GT$9index_mut17h56f475452a51353aE', symObjAddr: 0x0, symBinAddr: 0x406D8, symSize: 0xBC }
  - { offset: 0xF966B, size: 0x8, addend: 0x0, symName: '__ZN106_$LT$core..ops..range..Range$LT$usize$GT$$u20$as$u20$core..slice..index..SliceIndex$LT$$u5b$T$u5d$$GT$$GT$9index_mut17h56f475452a51353aE', symObjAddr: 0x0, symBinAddr: 0x406D8, symSize: 0xBC }
  - { offset: 0xF971C, size: 0x8, addend: 0x0, symName: '__ZN108_$LT$core..ops..range..RangeTo$LT$usize$GT$$u20$as$u20$core..slice..index..SliceIndex$LT$$u5b$T$u5d$$GT$$GT$9index_mut17h1671b82161700a37E', symObjAddr: 0xBC, symBinAddr: 0x40794, symSize: 0x54 }
  - { offset: 0xF97A3, size: 0x8, addend: 0x0, symName: '__ZN110_$LT$core..ops..range..RangeFrom$LT$usize$GT$$u20$as$u20$core..slice..index..SliceIndex$LT$$u5b$T$u5d$$GT$$GT$5index17h6f33d6045b8f6b32E', symObjAddr: 0x110, symBinAddr: 0x407E8, symSize: 0x70 }
  - { offset: 0xF9FB4, size: 0x8, addend: 0x0, symName: __ZN4pyo35impl_10trampoline10trampoline17h04aa76ede640094eE, symObjAddr: 0x0, symBinAddr: 0x40858, symSize: 0x160 }
  - { offset: 0xFB304, size: 0x8, addend: 0x0, symName: __ZN4pyo35impl_10trampoline10trampoline17h04aa76ede640094eE, symObjAddr: 0x0, symBinAddr: 0x40858, symSize: 0x160 }
  - { offset: 0xFB3A8, size: 0x8, addend: 0x0, symName: __ZN4pyo35impl_10trampoline10trampoline17h3afa8017d8048d16E, symObjAddr: 0x160, symBinAddr: 0x409B8, symSize: 0x14C }
  - { offset: 0xFB44A, size: 0x8, addend: 0x0, symName: __ZN4pyo35impl_10trampoline10trampoline17h84c48c9a92a952e2E, symObjAddr: 0x2AC, symBinAddr: 0x40B04, symSize: 0x15C }
  - { offset: 0xFB4ED, size: 0x8, addend: 0x0, symName: __ZN4pyo35impl_10trampoline10trampoline17hb28beaa808f990acE, symObjAddr: 0x408, symBinAddr: 0x40C60, symSize: 0x158 }
  - { offset: 0xFB590, size: 0x8, addend: 0x0, symName: __ZN4pyo35impl_10trampoline10trampoline17he105e7a8164f68f2E, symObjAddr: 0x560, symBinAddr: 0x40DB8, symSize: 0x158 }
  - { offset: 0xFB638, size: 0x8, addend: 0x0, symName: '__ZN4pyo35impl_10trampoline10trampoline28_$u7b$$u7b$closure$u7d$$u7d$17h26aec337dc0d7492E', symObjAddr: 0x6B8, symBinAddr: 0x40F10, symSize: 0x34 }
  - { offset: 0xFB687, size: 0x8, addend: 0x0, symName: '__ZN4pyo35impl_10trampoline10trampoline28_$u7b$$u7b$closure$u7d$$u7d$17h3305378a960e8692E', symObjAddr: 0x6EC, symBinAddr: 0x40F44, symSize: 0x2C }
  - { offset: 0xFB6D5, size: 0x8, addend: 0x0, symName: '__ZN4pyo35impl_10trampoline10trampoline28_$u7b$$u7b$closure$u7d$$u7d$17h8f72d51270d3b372E', symObjAddr: 0x718, symBinAddr: 0x40F70, symSize: 0x2C }
  - { offset: 0xFB723, size: 0x8, addend: 0x0, symName: '__ZN4pyo35impl_10trampoline10trampoline28_$u7b$$u7b$closure$u7d$$u7d$17hcc83a4a544c27558E', symObjAddr: 0x744, symBinAddr: 0x40F9C, symSize: 0x40 }
  - { offset: 0xFB772, size: 0x8, addend: 0x0, symName: '__ZN4pyo35impl_10trampoline10trampoline28_$u7b$$u7b$closure$u7d$$u7d$17hde30c204ff39f2b6E', symObjAddr: 0x784, symBinAddr: 0x40FDC, symSize: 0x24 }
  - { offset: 0xFB7C6, size: 0x8, addend: 0x0, symName: '__ZN4pyo35impl_10trampoline11module_init28_$u7b$$u7b$closure$u7d$$u7d$17h5f439d2840e8aa1aE', symObjAddr: 0x7A8, symBinAddr: 0x41000, symSize: 0x40 }
  - { offset: 0xFB812, size: 0x8, addend: 0x0, symName: '__ZN4pyo35impl_10trampoline11module_init28_$u7b$$u7b$closure$u7d$$u7d$28_$u7b$$u7b$closure$u7d$$u7d$17h6ac4b36a6892c05dE', symObjAddr: 0x7E8, symBinAddr: 0x41040, symSize: 0x24 }
  - { offset: 0xFB864, size: 0x8, addend: 0x0, symName: __ZN4pyo35impl_10trampoline21trampoline_unraisable17hbd3e8d538793e1e8E, symObjAddr: 0x80C, symBinAddr: 0x41064, symSize: 0x20C }
  - { offset: 0xFB907, size: 0x8, addend: 0x0, symName: '__ZN4pyo35impl_10trampoline21trampoline_unraisable28_$u7b$$u7b$closure$u7d$$u7d$17h0d001f288a6f3a6eE', symObjAddr: 0xA18, symBinAddr: 0x41270, symSize: 0x2C }
  - { offset: 0xFB94C, size: 0x8, addend: 0x0, symName: '__ZN4pyo35impl_10trampoline21trampoline_unraisable28_$u7b$$u7b$closure$u7d$$u7d$17h7f123bceb61a1c1dE', symObjAddr: 0xA44, symBinAddr: 0x4129C, symSize: 0x50 }
  - { offset: 0xFB998, size: 0x8, addend: 0x0, symName: '__ZN4pyo35impl_10trampoline22fastcall_with_keywords28_$u7b$$u7b$closure$u7d$$u7d$17h9875307b8199ee93E', symObjAddr: 0xA94, symBinAddr: 0x412EC, symSize: 0x48 }
  - { offset: 0xFBA64, size: 0x8, addend: 0x0, symName: '__ZN4pyo35impl_10trampoline6noargs28_$u7b$$u7b$closure$u7d$$u7d$17h9cdce673cbb037a9E', symObjAddr: 0xADC, symBinAddr: 0x41334, symSize: 0x34 }
  - { offset: 0xFBAE1, size: 0x8, addend: 0x0, symName: '__ZN4pyo35impl_10trampoline7dealloc28_$u7b$$u7b$closure$u7d$$u7d$17h08eb38af148d29f8E', symObjAddr: 0xB10, symBinAddr: 0x41368, symSize: 0x40 }
  - { offset: 0xFBB5E, size: 0x8, addend: 0x0, symName: '__ZN4pyo35impl_10trampoline7newfunc28_$u7b$$u7b$closure$u7d$$u7d$17h729914ddc0e4a406E', symObjAddr: 0xB50, symBinAddr: 0x413A8, symSize: 0x40 }
  - { offset: 0xFBC0F, size: 0x8, addend: 0x0, symName: '__ZN4pyo35impl_10trampoline8reprfunc28_$u7b$$u7b$closure$u7d$$u7d$17h1fa4746e5c161d6cE', symObjAddr: 0xB90, symBinAddr: 0x413E8, symSize: 0x34 }
  - { offset: 0xFC4DF, size: 0x8, addend: 0x0, symName: __ZN5alloc3vec16in_place_collect13needs_realloc17h8baecc7cdb8d51f1E, symObjAddr: 0x0, symBinAddr: 0x4141C, symSize: 0x70 }
  - { offset: 0xFD1CD, size: 0x8, addend: 0x0, symName: __ZN5alloc3vec16in_place_collect13needs_realloc17h8baecc7cdb8d51f1E, symObjAddr: 0x0, symBinAddr: 0x4141C, symSize: 0x70 }
  - { offset: 0xFD219, size: 0x8, addend: 0x0, symName: __ZN5alloc3vec16in_place_collect13needs_realloc17ha6ce520229f83a0aE, symObjAddr: 0x70, symBinAddr: 0x4148C, symSize: 0x68 }
  - { offset: 0xFD265, size: 0x8, addend: 0x0, symName: __ZN5alloc3vec16in_place_collect18from_iter_in_place17h0b0bcc4323a96e35E, symObjAddr: 0xD8, symBinAddr: 0x414F4, symSize: 0x380 }
  - { offset: 0xFD775, size: 0x8, addend: 0x0, symName: __ZN5alloc3vec16in_place_collect18from_iter_in_place17h59b658eed9fe4973E, symObjAddr: 0x458, symBinAddr: 0x41874, symSize: 0x384 }
  - { offset: 0xFDC8A, size: 0x8, addend: 0x0, symName: '__ZN5alloc3vec16in_place_collect24write_in_place_with_drop28_$u7b$$u7b$closure$u7d$$u7d$17h8f65ac896b65a910E', symObjAddr: 0x7DC, symBinAddr: 0x41BF8, symSize: 0x50 }
  - { offset: 0xFDD0C, size: 0x8, addend: 0x0, symName: '__ZN5alloc3vec16in_place_collect24write_in_place_with_drop28_$u7b$$u7b$closure$u7d$$u7d$17hc253e4ccabbfca87E', symObjAddr: 0x82C, symBinAddr: 0x41C48, symSize: 0x50 }
  - { offset: 0xFEC45, size: 0x8, addend: 0x0, symName: '__ZN7sekejap146_$LT$impl$u20$pyo3..impl_..pyclass..PyMethods$LT$sekejap..PyDB$GT$$u20$for$u20$pyo3..impl_..pyclass..PyClassImplCollector$LT$sekejap..PyDB$GT$$GT$10py_methods17hb4128a8174fbe286E', symObjAddr: 0x0, symBinAddr: 0x41C98, symSize: 0x14 }
  - { offset: 0x100B62, size: 0x8, addend: 0x0, symName: '__ZN7sekejap146_$LT$impl$u20$pyo3..impl_..pyclass..PyMethods$LT$sekejap..PyDB$GT$$u20$for$u20$pyo3..impl_..pyclass..PyClassImplCollector$LT$sekejap..PyDB$GT$$GT$10py_methods17hb4128a8174fbe286E', symObjAddr: 0x0, symBinAddr: 0x41C98, symSize: 0x14 }
  - { offset: 0x100BAD, size: 0x8, addend: 0x0, symName: '__ZN7sekejap146_$LT$impl$u20$pyo3..impl_..pyclass..PyMethods$LT$sekejap..PyDB$GT$$u20$for$u20$pyo3..impl_..pyclass..PyClassImplCollector$LT$sekejap..PyDB$GT$$GT$10py_methods5ITEMS10trampoline160_$LT$impl$u20$pyo3..impl_..pyclass..PyClassNewTextSignature$LT$sekejap..PyDB$GT$$u20$for$u20$pyo3..impl_..pyclass..PyClassImplCollector$LT$sekejap..PyDB$GT$$GT$18new_text_signature17hc9fcf7788d63ec5cE', symObjAddr: 0x14, symBinAddr: 0x41CAC, symSize: 0x1C }
  - { offset: 0x100BEE, size: 0x8, addend: 0x0, symName: '__ZN7sekejap148_$LT$impl$u20$pyo3..impl_..pyclass..PyMethods$LT$sekejap..PyHit$GT$$u20$for$u20$pyo3..impl_..pyclass..PyClassImplCollector$LT$sekejap..PyHit$GT$$GT$10py_methods17h37c16a5665264840E', symObjAddr: 0x30, symBinAddr: 0x41CC8, symSize: 0x14 }
  - { offset: 0x100C2B, size: 0x8, addend: 0x0, symName: '__ZN7sekejap156_$LT$impl$u20$pyo3..impl_..pyclass..PyMethods$LT$sekejap..PyEdgeHit$GT$$u20$for$u20$pyo3..impl_..pyclass..PyClassImplCollector$LT$sekejap..PyEdgeHit$GT$$GT$10py_methods17h66a165c3d6dddd44E', symObjAddr: 0x44, symBinAddr: 0x41CDC, symSize: 0x14 }
  - { offset: 0x100C68, size: 0x8, addend: 0x0, symName: '__ZN7sekejap162_$LT$impl$u20$pyo3..impl_..pyclass..PyMethods$LT$sekejap..PyPathResult$GT$$u20$for$u20$pyo3..impl_..pyclass..PyClassImplCollector$LT$sekejap..PyPathResult$GT$$GT$10py_methods17h6776d618c8541fb5E', symObjAddr: 0x58, symBinAddr: 0x41CF0, symSize: 0x14 }
  - { offset: 0x103CD7, size: 0x8, addend: 0x0, symName: __ZN4pyo35impl_16extract_argument16extract_argument17h4b6afe16aee1a41eE, symObjAddr: 0x0, symBinAddr: 0x41D04, symSize: 0x124 }
  - { offset: 0x106C09, size: 0x8, addend: 0x0, symName: __ZN4pyo35impl_16extract_argument16extract_argument17h4b6afe16aee1a41eE, symObjAddr: 0x0, symBinAddr: 0x41D04, symSize: 0x124 }
  - { offset: 0x106C8D, size: 0x8, addend: 0x0, symName: __ZN4pyo35impl_16extract_argument16extract_argument17h9f3fec2973ae7159E, symObjAddr: 0x124, symBinAddr: 0x41E28, symSize: 0x128 }
  - { offset: 0x106D11, size: 0x8, addend: 0x0, symName: __ZN4pyo35impl_16extract_argument16extract_argument17hb5062d82b5ce2d9aE, symObjAddr: 0x24C, symBinAddr: 0x41F50, symSize: 0x11C }
  - { offset: 0x106F16, size: 0x8, addend: 0x0, symName: '__ZN4pyo35impl_16extract_argument19FunctionDescription26extract_arguments_fastcall28_$u7b$$u7b$closure$u7d$$u7d$17h383a2ae4425d727eE', symObjAddr: 0x1760, symBinAddr: 0x43464, symSize: 0x24 }
  - { offset: 0x106F6E, size: 0x8, addend: 0x0, symName: '__ZN4pyo35impl_16extract_argument19FunctionDescription28extract_arguments_tuple_dict28_$u7b$$u7b$closure$u7d$$u7d$17hb0d2e74fff39f87bE', symObjAddr: 0x1C24, symBinAddr: 0x43928, symSize: 0x24 }
  - { offset: 0x106FC6, size: 0x8, addend: 0x0, symName: '__ZN4pyo35impl_16extract_argument19FunctionDescription36find_keyword_parameter_in_positional28_$u7b$$u7b$closure$u7d$$u7d$17hb92056f62ecf860cE', symObjAddr: 0x1C48, symBinAddr: 0x4394C, symSize: 0x48 }
  - { offset: 0x107026, size: 0x8, addend: 0x0, symName: '__ZN4pyo35impl_16extract_argument19FunctionDescription38find_keyword_parameter_in_keyword_only28_$u7b$$u7b$closure$u7d$$u7d$17h6165a69d735ee8e4E', symObjAddr: 0x1C90, symBinAddr: 0x43994, symSize: 0x38 }
  - { offset: 0x107068, size: 0x8, addend: 0x0, symName: __ZN4pyo35impl_16extract_argument19extract_pyclass_ref17h109eea3572865927E, symObjAddr: 0x1CC8, symBinAddr: 0x439CC, symSize: 0xB0 }
  - { offset: 0x1070C9, size: 0x8, addend: 0x0, symName: __ZN4pyo35impl_16extract_argument19extract_pyclass_ref17h25d56d023772576eE, symObjAddr: 0x1D78, symBinAddr: 0x43A7C, symSize: 0xB0 }
  - { offset: 0x10712A, size: 0x8, addend: 0x0, symName: __ZN4pyo35impl_16extract_argument19extract_pyclass_ref17h4831585cc21c92eaE, symObjAddr: 0x1E28, symBinAddr: 0x43B2C, symSize: 0xB0 }
  - { offset: 0x10718B, size: 0x8, addend: 0x0, symName: __ZN4pyo35impl_16extract_argument19extract_pyclass_ref17h9cc91cf6d26d1fd0E, symObjAddr: 0x1ED8, symBinAddr: 0x43BDC, symSize: 0xB0 }
  - { offset: 0x1071EC, size: 0x8, addend: 0x0, symName: __ZN4pyo35impl_16extract_argument23extract_pyclass_ref_mut17hb0b763548f29147dE, symObjAddr: 0x1F88, symBinAddr: 0x43C8C, symSize: 0xB0 }
  - { offset: 0x10724D, size: 0x8, addend: 0x0, symName: __ZN4pyo35impl_16extract_argument25extract_optional_argument17hf436838c00f45185E, symObjAddr: 0x2038, symBinAddr: 0x43D3C, symSize: 0xCC }
  - { offset: 0x1072C7, size: 0x8, addend: 0x0, symName: '__ZN71_$LT$T$u20$as$u20$pyo3..impl_..extract_argument..PyFunctionArgument$GT$7extract17h3838e2beae9e1d5eE', symObjAddr: 0x2104, symBinAddr: 0x43E08, symSize: 0x28 }
  - { offset: 0x107306, size: 0x8, addend: 0x0, symName: '__ZN71_$LT$T$u20$as$u20$pyo3..impl_..extract_argument..PyFunctionArgument$GT$7extract17h9b6d0af8d436a8aaE', symObjAddr: 0x212C, symBinAddr: 0x43E30, symSize: 0x28 }
  - { offset: 0x107E58, size: 0x8, addend: 0x0, symName: __ZN4pyo35impl_16extract_argument19FunctionDescription13handle_kwargs17h3333d22bceea7997E, symObjAddr: 0x368, symBinAddr: 0x4206C, symSize: 0x6F0 }
  - { offset: 0x108071, size: 0x8, addend: 0x0, symName: __ZN4pyo35impl_16extract_argument19FunctionDescription13handle_kwargs17h7924038e8e430d5eE, symObjAddr: 0xA58, symBinAddr: 0x4275C, symSize: 0x6F8 }
  - { offset: 0x10828E, size: 0x8, addend: 0x0, symName: __ZN4pyo35impl_16extract_argument19FunctionDescription26extract_arguments_fastcall17h0679120c8f928675E, symObjAddr: 0x1150, symBinAddr: 0x42E54, symSize: 0x610 }
  - { offset: 0x1085C1, size: 0x8, addend: 0x0, symName: __ZN4pyo35impl_16extract_argument19FunctionDescription28extract_arguments_tuple_dict17h2c7597b01bf6ea7fE, symObjAddr: 0x1784, symBinAddr: 0x43488, symSize: 0x4A0 }
  - { offset: 0x10A98F, size: 0x8, addend: 0x0, symName: '__ZN5alloc3vec16Vec$LT$T$C$A$GT$13from_parts_in18precondition_check17h6f21aa61ed85edecE', symObjAddr: 0x0, symBinAddr: 0x43E58, symSize: 0x60 }
  - { offset: 0x10A9B0, size: 0x8, addend: 0x0, symName: '__ZN5alloc3vec16Vec$LT$T$C$A$GT$13from_parts_in18precondition_check17h6f21aa61ed85edecE', symObjAddr: 0x0, symBinAddr: 0x43E58, symSize: 0x60 }
  - { offset: 0x10AA09, size: 0x8, addend: 0x0, symName: '__ZN5alloc3vec16Vec$LT$T$C$A$GT$7set_len18precondition_check17h66a21274ce1904aeE', symObjAddr: 0x60, symBinAddr: 0x43EB8, symSize: 0x60 }
  - { offset: 0x10AAB3, size: 0x8, addend: 0x0, symName: '__ZN4pyo35types4none120_$LT$impl$u20$pyo3..conversion..IntoPy$LT$pyo3..instance..Py$LT$pyo3..types..any..PyAny$GT$$GT$$u20$for$u20$$LP$$RP$$GT$7into_py17h3a707a4f76aea9ceE', symObjAddr: 0x0, symBinAddr: 0x43F18, symSize: 0x20 }
  - { offset: 0x10BC14, size: 0x8, addend: 0x0, symName: '__ZN4pyo35types4none120_$LT$impl$u20$pyo3..conversion..IntoPy$LT$pyo3..instance..Py$LT$pyo3..types..any..PyAny$GT$$GT$$u20$for$u20$$LP$$RP$$GT$7into_py17h3a707a4f76aea9ceE', symObjAddr: 0x0, symBinAddr: 0x43F18, symSize: 0x20 }
  - { offset: 0x10C270, size: 0x8, addend: 0x0, symName: __ZN4pyo35types4none6PyNone9get_bound17h1a791c8b221d535eE, symObjAddr: 0x20, symBinAddr: 0x43F38, symSize: 0x2C }
  - { offset: 0x10C2C2, size: 0x8, addend: 0x0, symName: __ZN8pyo3_ffi7cpython10listobject15PyList_SET_ITEM17hf1042894a691ef62E, symObjAddr: 0x0, symBinAddr: 0x43F64, symSize: 0x110 }
  - { offset: 0x10C8A4, size: 0x8, addend: 0x0, symName: __ZN8pyo3_ffi7cpython10listobject15PyList_SET_ITEM17hf1042894a691ef62E, symObjAddr: 0x0, symBinAddr: 0x43F64, symSize: 0x110 }
  - { offset: 0x10D866, size: 0x8, addend: 0x0, symName: '__ZN4pyo311conversions3std3num115_$LT$impl$u20$pyo3..conversion..IntoPy$LT$pyo3..instance..Py$LT$pyo3..types..any..PyAny$GT$$GT$$u20$for$u20$u64$GT$7into_py17ha5f937d0fc634374E', symObjAddr: 0x0, symBinAddr: 0x44074, symSize: 0x2C }
  - { offset: 0x10E9A8, size: 0x8, addend: 0x0, symName: '__ZN4pyo311conversions3std3num115_$LT$impl$u20$pyo3..conversion..IntoPy$LT$pyo3..instance..Py$LT$pyo3..types..any..PyAny$GT$$GT$$u20$for$u20$u64$GT$7into_py17ha5f937d0fc634374E', symObjAddr: 0x0, symBinAddr: 0x44074, symSize: 0x2C }
  - { offset: 0x10E9F3, size: 0x8, addend: 0x0, symName: '__ZN4pyo311conversions3std3num64_$LT$impl$u20$pyo3..conversion..ToPyObject$u20$for$u20$usize$GT$9to_object17ha1da1458cb28e5a7E', symObjAddr: 0x2C, symBinAddr: 0x440A0, symSize: 0x28 }
  - { offset: 0x10EFDF, size: 0x8, addend: 0x0, symName: __ZN4core9core_arch7aarch644neon9generated7vld1_u817hee4c217dedbd344eE, symObjAddr: 0x0, symBinAddr: 0x440C8, symSize: 0x34 }
  - { offset: 0x10F005, size: 0x8, addend: 0x0, symName: __ZN4core9core_arch7aarch644neon9generated7vld1_u817hee4c217dedbd344eE, symObjAddr: 0x0, symBinAddr: 0x440C8, symSize: 0x34 }
  - { offset: 0x10F033, size: 0x8, addend: 0x0, symName: __ZN4core9core_arch7aarch644neon9generated8vcgez_s817hcd0296708cb96413E, symObjAddr: 0x34, symBinAddr: 0x440FC, symSize: 0x68 }
  - { offset: 0x10F21C, size: 0x8, addend: 0x0, symName: '__ZN4core5slice29_$LT$impl$u20$$u5b$T$u5d$$GT$18split_at_unchecked18precondition_check17hccf64c2e6e47fddbE', symObjAddr: 0x0, symBinAddr: 0x44164, symSize: 0x60 }
  - { offset: 0x10F23D, size: 0x8, addend: 0x0, symName: '__ZN4core5slice29_$LT$impl$u20$$u5b$T$u5d$$GT$18split_at_unchecked18precondition_check17hccf64c2e6e47fddbE', symObjAddr: 0x0, symBinAddr: 0x44164, symSize: 0x60 }
  - { offset: 0x10F2E7, size: 0x8, addend: 0x0, symName: '__ZN102_$LT$pyo3..internal..get_slot..Slot$LT$74_i32$GT$$u20$as$u20$pyo3..internal..get_slot..GetSlotImpl$GT$8get_slot17hde5d247e99b8db12E', symObjAddr: 0x0, symBinAddr: 0x441C4, symSize: 0x74 }
  - { offset: 0x110375, size: 0x8, addend: 0x0, symName: '__ZN102_$LT$pyo3..internal..get_slot..Slot$LT$74_i32$GT$$u20$as$u20$pyo3..internal..get_slot..GetSlotImpl$GT$8get_slot17hde5d247e99b8db12E', symObjAddr: 0x0, symBinAddr: 0x441C4, symSize: 0x74 }
  - { offset: 0x11083C, size: 0x8, addend: 0x0, symName: '__ZN63_$LT$I$u20$as$u20$core..iter..traits..collect..IntoIterator$GT$9into_iter17h5a61b972780638f6E', symObjAddr: 0x0, symBinAddr: 0x44238, symSize: 0x18 }
  - { offset: 0x111023, size: 0x8, addend: 0x0, symName: '__ZN63_$LT$I$u20$as$u20$core..iter..traits..collect..IntoIterator$GT$9into_iter17h5a61b972780638f6E', symObjAddr: 0x0, symBinAddr: 0x44238, symSize: 0x18 }
  - { offset: 0x111FF2, size: 0x8, addend: 0x0, symName: '__ZN164_$LT$sekejap..sql.._..$LT$impl$u20$serde_core..de..Deserialize$u20$for$u20$sekejap..sql..FieldDef$GT$..deserialize..__Visitor$u20$as$u20$serde_core..de..Visitor$GT$9visit_map17h20768478f341cea7E', symObjAddr: 0x0, symBinAddr: 0x44250, symSize: 0xA08 }
  - { offset: 0x11207C, size: 0x8, addend: 0x0, symName: '__ZN45_$LT$T$u20$as$u20$alloc..string..ToString$GT$9to_string17h9067fec78c3d7289E', symObjAddr: 0x3F10, symBinAddr: 0x48160, symSize: 0x24 }
  - { offset: 0x1120B9, size: 0x8, addend: 0x0, symName: '__ZN49_$LT$T$u20$as$u20$alloc..string..SpecToString$GT$14spec_to_string17h4f7b918397d45f2eE', symObjAddr: 0x3F34, symBinAddr: 0x48184, symSize: 0xF4 }
  - { offset: 0x112D73, size: 0x8, addend: 0x0, symName: '__ZN164_$LT$sekejap..sql.._..$LT$impl$u20$serde_core..de..Deserialize$u20$for$u20$sekejap..sql..FieldDef$GT$..deserialize..__Visitor$u20$as$u20$serde_core..de..Visitor$GT$9visit_map17h20768478f341cea7E', symObjAddr: 0x0, symBinAddr: 0x44250, symSize: 0xA08 }
  - { offset: 0x113117, size: 0x8, addend: 0x0, symName: '__ZN164_$LT$sekejap..sql.._..$LT$impl$u20$serde_core..de..Deserialize$u20$for$u20$sekejap..sql..FieldDef$GT$..deserialize..__Visitor$u20$as$u20$serde_core..de..Visitor$GT$9visit_seq17h395a76fa38daf1bcE', symObjAddr: 0xA08, symBinAddr: 0x44C58, symSize: 0x480 }
  - { offset: 0x113270, size: 0x8, addend: 0x0, symName: '__ZN165_$LT$sekejap..sql.._..$LT$impl$u20$serde_core..de..Deserialize$u20$for$u20$sekejap..sql..FieldType$GT$..deserialize..__Visitor$u20$as$u20$serde_core..de..Visitor$GT$10visit_enum17h155617e746063eb8E', symObjAddr: 0xE88, symBinAddr: 0x450D8, symSize: 0x354 }
  - { offset: 0x113458, size: 0x8, addend: 0x0, symName: '__ZN165_$LT$sekejap..sql.._..$LT$impl$u20$serde_core..de..Deserialize$u20$for$u20$sekejap..sql..FieldType$GT$..deserialize..__Visitor$u20$as$u20$serde_core..de..Visitor$GT$10visit_enum17h54629cb9715ea2dbE', symObjAddr: 0x11DC, symBinAddr: 0x4542C, symSize: 0x354 }
  - { offset: 0x113640, size: 0x8, addend: 0x0, symName: '__ZN165_$LT$sekejap..sql.._..$LT$impl$u20$serde_core..de..Deserialize$u20$for$u20$sekejap..sql..IndexHint$GT$..deserialize..__Visitor$u20$as$u20$serde_core..de..Visitor$GT$9visit_map17hedd0bc6561693954E', symObjAddr: 0x1530, symBinAddr: 0x45780, symSize: 0x13A4 }
  - { offset: 0x113AB6, size: 0x8, addend: 0x0, symName: '__ZN165_$LT$sekejap..sql.._..$LT$impl$u20$serde_core..de..Deserialize$u20$for$u20$sekejap..sql..IndexHint$GT$..deserialize..__Visitor$u20$as$u20$serde_core..de..Visitor$GT$9visit_seq17ha8b3829b7e0af518E', symObjAddr: 0x28D4, symBinAddr: 0x46B24, symSize: 0x818 }
  - { offset: 0x113D30, size: 0x8, addend: 0x0, symName: '__ZN167_$LT$sekejap..sql.._..$LT$impl$u20$serde_core..de..Deserialize$u20$for$u20$sekejap..sql..TableSchema$GT$..deserialize..__Visitor$u20$as$u20$serde_core..de..Visitor$GT$9visit_map17h7fe42bcc520632deE', symObjAddr: 0x3158, symBinAddr: 0x473A8, symSize: 0x9E4 }
  - { offset: 0x113FAA, size: 0x8, addend: 0x0, symName: '__ZN167_$LT$sekejap..sql.._..$LT$impl$u20$serde_core..de..Deserialize$u20$for$u20$sekejap..sql..TableSchema$GT$..deserialize..__Visitor$u20$as$u20$serde_core..de..Visitor$GT$9visit_seq17h600cdf1a10f10b37E', symObjAddr: 0x3B3C, symBinAddr: 0x47D8C, symSize: 0x3B0 }
  - { offset: 0x1140D0, size: 0x8, addend: 0x0, symName: '__ZN166_$LT$sekejap..sql.._..$LT$impl$u20$serde_core..de..Deserialize$u20$for$u20$sekejap..sql..FieldDef$GT$..deserialize..__Field$u20$as$u20$serde_core..de..Deserialize$GT$11deserialize17hb55cabe24454eedaE', symObjAddr: 0x30EC, symBinAddr: 0x4733C, symSize: 0x24 }
  - { offset: 0x114107, size: 0x8, addend: 0x0, symName: '__ZN167_$LT$sekejap..sql.._..$LT$impl$u20$serde_core..de..Deserialize$u20$for$u20$sekejap..sql..FieldType$GT$..deserialize..__Field$u20$as$u20$serde_core..de..Deserialize$GT$11deserialize17h786b32821fe77be4E', symObjAddr: 0x3110, symBinAddr: 0x47360, symSize: 0x24 }
  - { offset: 0x11413E, size: 0x8, addend: 0x0, symName: '__ZN167_$LT$sekejap..sql.._..$LT$impl$u20$serde_core..de..Deserialize$u20$for$u20$sekejap..sql..IndexHint$GT$..deserialize..__Field$u20$as$u20$serde_core..de..Deserialize$GT$11deserialize17hcd6ae6f874b8f655E', symObjAddr: 0x3134, symBinAddr: 0x47384, symSize: 0x24 }
  - { offset: 0x114175, size: 0x8, addend: 0x0, symName: '__ZN169_$LT$sekejap..sql.._..$LT$impl$u20$serde_core..de..Deserialize$u20$for$u20$sekejap..sql..TableSchema$GT$..deserialize..__Field$u20$as$u20$serde_core..de..Deserialize$GT$11deserialize17h1cd3bea08cd958ceE', symObjAddr: 0x3EEC, symBinAddr: 0x4813C, symSize: 0x24 }
  - { offset: 0x114232, size: 0x8, addend: 0x0, symName: '__ZN7sekejap3sql1_80_$LT$impl$u20$serde_core..de..Deserialize$u20$for$u20$sekejap..sql..FieldDef$GT$11deserialize17h93c87de6f12116a0E', symObjAddr: 0x4028, symBinAddr: 0x48278, symSize: 0x44 }
  - { offset: 0x114269, size: 0x8, addend: 0x0, symName: '__ZN7sekejap3sql1_81_$LT$impl$u20$serde_core..de..Deserialize$u20$for$u20$sekejap..sql..FieldType$GT$11deserialize17h5bfcf7f94bbae2daE', symObjAddr: 0x406C, symBinAddr: 0x482BC, symSize: 0x44 }
  - { offset: 0x1142A0, size: 0x8, addend: 0x0, symName: '__ZN7sekejap3sql1_81_$LT$impl$u20$serde_core..de..Deserialize$u20$for$u20$sekejap..sql..IndexHint$GT$11deserialize17hf489ff9b26e0a2a5E', symObjAddr: 0x40B0, symBinAddr: 0x48300, symSize: 0x44 }
  - { offset: 0x1142D7, size: 0x8, addend: 0x0, symName: '__ZN7sekejap3sql1_83_$LT$impl$u20$serde_core..de..Deserialize$u20$for$u20$sekejap..sql..TableSchema$GT$11deserialize17h1dcf032ad50eddb6E', symObjAddr: 0x40F4, symBinAddr: 0x48344, symSize: 0x44 }
  - { offset: 0x114E9F, size: 0x8, addend: 0x0, symName: __ZN4core5slice20copy_from_slice_impl17ha7bf8666de67d332E, symObjAddr: 0x0, symBinAddr: 0x48388, symSize: 0xAC }
  - { offset: 0x1156CB, size: 0x8, addend: 0x0, symName: __ZN4core5slice20copy_from_slice_impl17ha7bf8666de67d332E, symObjAddr: 0x0, symBinAddr: 0x48388, symSize: 0xAC }
  - { offset: 0x1167B1, size: 0x8, addend: 0x0, symName: '__ZN73_$LT$std..hash..random..RandomState$u20$as$u20$core..default..Default$GT$7default17h33f797c9c58b091eE', symObjAddr: 0x0, symBinAddr: 0x48434, symSize: 0x1C }
  - { offset: 0x116802, size: 0x8, addend: 0x0, symName: '__ZN73_$LT$std..hash..random..RandomState$u20$as$u20$core..default..Default$GT$7default17h33f797c9c58b091eE', symObjAddr: 0x0, symBinAddr: 0x48434, symSize: 0x1C }
  - { offset: 0x116863, size: 0x8, addend: 0x0, symName: '__ZN96_$LT$pyo3..pycell..impl_..BorrowChecker$u20$as$u20$pyo3..pycell..impl_..PyClassBorrowChecker$GT$3new17h15b597c3281f128aE', symObjAddr: 0x0, symBinAddr: 0x48450, symSize: 0x18 }
  - { offset: 0x116884, size: 0x8, addend: 0x0, symName: '__ZN96_$LT$pyo3..pycell..impl_..BorrowChecker$u20$as$u20$pyo3..pycell..impl_..PyClassBorrowChecker$GT$3new17h15b597c3281f128aE', symObjAddr: 0x0, symBinAddr: 0x48450, symSize: 0x18 }
  - { offset: 0x11693C, size: 0x8, addend: 0x0, symName: __ZN4core5slice3raw14from_raw_parts18precondition_check17ha26532d5c26abc4cE, symObjAddr: 0x0, symBinAddr: 0x48468, symSize: 0x10C }
  - { offset: 0x116ADB, size: 0x8, addend: 0x0, symName: __ZN4core5slice3raw14from_raw_parts18precondition_check17ha26532d5c26abc4cE, symObjAddr: 0x0, symBinAddr: 0x48468, symSize: 0x10C }
  - { offset: 0x116BF7, size: 0x8, addend: 0x0, symName: __ZN4core5slice3raw18from_raw_parts_mut18precondition_check17he4306d559474b921E, symObjAddr: 0x10C, symBinAddr: 0x48574, symSize: 0x10C }
  - { offset: 0x116D8C, size: 0x8, addend: 0x0, symName: __ZN9hashbrown7control5group4neon5Group10match_full17hecd60d6b7cead7acE, symObjAddr: 0x0, symBinAddr: 0x48680, symSize: 0x68 }
  - { offset: 0x116E45, size: 0x8, addend: 0x0, symName: __ZN9hashbrown7control5group4neon5Group10match_full17hecd60d6b7cead7acE, symObjAddr: 0x0, symBinAddr: 0x48680, symSize: 0x68 }
  - { offset: 0x116E9B, size: 0x8, addend: 0x0, symName: '__ZN118_$LT$pyo3..impl_..pyclass..SendablePyClass$LT$T$GT$$u20$as$u20$pyo3..impl_..pyclass..PyClassThreadChecker$LT$T$GT$$GT$3new17h24df35dff5b8df7fE', symObjAddr: 0x0, symBinAddr: 0x486E8, symSize: 0x4 }
  - { offset: 0x11965A, size: 0x8, addend: 0x0, symName: '__ZN118_$LT$pyo3..impl_..pyclass..SendablePyClass$LT$T$GT$$u20$as$u20$pyo3..impl_..pyclass..PyClassThreadChecker$LT$T$GT$$GT$3new17h24df35dff5b8df7fE', symObjAddr: 0x0, symBinAddr: 0x486E8, symSize: 0x4 }
  - { offset: 0x11967E, size: 0x8, addend: 0x0, symName: '__ZN118_$LT$pyo3..impl_..pyclass..SendablePyClass$LT$T$GT$$u20$as$u20$pyo3..impl_..pyclass..PyClassThreadChecker$LT$T$GT$$GT$3new17hc356c448e96140a3E', symObjAddr: 0x4, symBinAddr: 0x486EC, symSize: 0x4 }
  - { offset: 0x1196A2, size: 0x8, addend: 0x0, symName: '__ZN118_$LT$pyo3..impl_..pyclass..SendablePyClass$LT$T$GT$$u20$as$u20$pyo3..impl_..pyclass..PyClassThreadChecker$LT$T$GT$$GT$3new17hd7f9b0768c44bfdbE', symObjAddr: 0x8, symBinAddr: 0x486F0, symSize: 0x4 }
  - { offset: 0x1196C6, size: 0x8, addend: 0x0, symName: '__ZN118_$LT$pyo3..impl_..pyclass..SendablePyClass$LT$T$GT$$u20$as$u20$pyo3..impl_..pyclass..PyClassThreadChecker$LT$T$GT$$GT$3new17hee8d7c06d5e84effE', symObjAddr: 0xC, symBinAddr: 0x486F4, symSize: 0x4 }
  - { offset: 0x1196EA, size: 0x8, addend: 0x0, symName: '__ZN118_$LT$pyo3..impl_..pyclass..SendablePyClass$LT$T$GT$$u20$as$u20$pyo3..impl_..pyclass..PyClassThreadChecker$LT$T$GT$$GT$6ensure17h4ec0361448b15814E', symObjAddr: 0x10, symBinAddr: 0x486F8, symSize: 0x10 }
  - { offset: 0x11971D, size: 0x8, addend: 0x0, symName: '__ZN118_$LT$pyo3..impl_..pyclass..SendablePyClass$LT$T$GT$$u20$as$u20$pyo3..impl_..pyclass..PyClassThreadChecker$LT$T$GT$$GT$6ensure17hb415a943d728a823E', symObjAddr: 0x20, symBinAddr: 0x48708, symSize: 0x10 }
  - { offset: 0x119750, size: 0x8, addend: 0x0, symName: '__ZN118_$LT$pyo3..impl_..pyclass..SendablePyClass$LT$T$GT$$u20$as$u20$pyo3..impl_..pyclass..PyClassThreadChecker$LT$T$GT$$GT$6ensure17hba9695338e8035bbE', symObjAddr: 0x30, symBinAddr: 0x48718, symSize: 0x10 }
  - { offset: 0x119783, size: 0x8, addend: 0x0, symName: '__ZN118_$LT$pyo3..impl_..pyclass..SendablePyClass$LT$T$GT$$u20$as$u20$pyo3..impl_..pyclass..PyClassThreadChecker$LT$T$GT$$GT$6ensure17hd6be193e816ce27aE', symObjAddr: 0x40, symBinAddr: 0x48728, symSize: 0x10 }
  - { offset: 0x1197B6, size: 0x8, addend: 0x0, symName: '__ZN118_$LT$pyo3..impl_..pyclass..SendablePyClass$LT$T$GT$$u20$as$u20$pyo3..impl_..pyclass..PyClassThreadChecker$LT$T$GT$$GT$8can_drop17h1e98d7684acf1e92E', symObjAddr: 0x50, symBinAddr: 0x48738, symSize: 0x18 }
  - { offset: 0x119808, size: 0x8, addend: 0x0, symName: '__ZN118_$LT$pyo3..impl_..pyclass..SendablePyClass$LT$T$GT$$u20$as$u20$pyo3..impl_..pyclass..PyClassThreadChecker$LT$T$GT$$GT$8can_drop17h59f01350e0b0285eE', symObjAddr: 0x68, symBinAddr: 0x48750, symSize: 0x18 }
  - { offset: 0x11985A, size: 0x8, addend: 0x0, symName: '__ZN118_$LT$pyo3..impl_..pyclass..SendablePyClass$LT$T$GT$$u20$as$u20$pyo3..impl_..pyclass..PyClassThreadChecker$LT$T$GT$$GT$8can_drop17hc866427cf9c6bb28E', symObjAddr: 0x80, symBinAddr: 0x48768, symSize: 0x18 }
  - { offset: 0x1198AC, size: 0x8, addend: 0x0, symName: '__ZN118_$LT$pyo3..impl_..pyclass..SendablePyClass$LT$T$GT$$u20$as$u20$pyo3..impl_..pyclass..PyClassThreadChecker$LT$T$GT$$GT$8can_drop17hd9b2b4b3a973ba1dE', symObjAddr: 0x98, symBinAddr: 0x48780, symSize: 0x18 }
  - { offset: 0x119904, size: 0x8, addend: 0x0, symName: '__ZN130_$LT$$RF$pyo3..impl_..pyclass..PyClassImplCollector$LT$T$GT$$u20$as$u20$pyo3..impl_..pyclass..PyClassNewTextSignature$LT$T$GT$$GT$18new_text_signature17h0e86b27ca0ae7254E', symObjAddr: 0xB0, symBinAddr: 0x48798, symSize: 0x14 }
  - { offset: 0x11993B, size: 0x8, addend: 0x0, symName: '__ZN130_$LT$$RF$pyo3..impl_..pyclass..PyClassImplCollector$LT$T$GT$$u20$as$u20$pyo3..impl_..pyclass..PyClassNewTextSignature$LT$T$GT$$GT$18new_text_signature17hf83e9f0f6e09115dE', symObjAddr: 0xC4, symBinAddr: 0x487AC, symSize: 0x14 }
  - { offset: 0x119972, size: 0x8, addend: 0x0, symName: '__ZN130_$LT$$RF$pyo3..impl_..pyclass..PyClassImplCollector$LT$T$GT$$u20$as$u20$pyo3..impl_..pyclass..PyClassNewTextSignature$LT$T$GT$$GT$18new_text_signature17hfc074633995f8ac6E', symObjAddr: 0xD8, symBinAddr: 0x487C0, symSize: 0x14 }
  - { offset: 0x1199AA, size: 0x8, addend: 0x0, symName: __ZN4pyo35impl_7pyclass10tp_dealloc17h2cbb849c38ae63cbE, symObjAddr: 0xEC, symBinAddr: 0x487D4, symSize: 0x34 }
  - { offset: 0x1199DD, size: 0x8, addend: 0x0, symName: __ZN4pyo35impl_7pyclass10tp_dealloc17h5f80f56bc6d21e16E, symObjAddr: 0x120, symBinAddr: 0x48808, symSize: 0x34 }
  - { offset: 0x119A10, size: 0x8, addend: 0x0, symName: __ZN4pyo35impl_7pyclass10tp_dealloc17h7e73821c9b6dd72cE, symObjAddr: 0x154, symBinAddr: 0x4883C, symSize: 0x34 }
  - { offset: 0x119A43, size: 0x8, addend: 0x0, symName: __ZN4pyo35impl_7pyclass10tp_dealloc17h9dad72e9796d3b31E, symObjAddr: 0x188, symBinAddr: 0x48870, symSize: 0x34 }
  - { offset: 0x119A7B, size: 0x8, addend: 0x0, symName: __ZN4pyo35impl_7pyclass11PyClassDict10clear_dict17hf8ed1363af12b788E, symObjAddr: 0x1BC, symBinAddr: 0x488A4, symSize: 0x10 }
  - { offset: 0x119AC6, size: 0x8, addend: 0x0, symName: __ZN4pyo35impl_7pyclass12class_offset17h38016972de77c046E, symObjAddr: 0x1CC, symBinAddr: 0x488B4, symSize: 0xC }
  - { offset: 0x119AEE, size: 0x8, addend: 0x0, symName: __ZN4pyo35impl_7pyclass12class_offset17h7a5f4a3bd354be04E, symObjAddr: 0x1D8, symBinAddr: 0x488C0, symSize: 0xC }
  - { offset: 0x119B16, size: 0x8, addend: 0x0, symName: __ZN4pyo35impl_7pyclass12class_offset17h7b18a9532b563ab7E, symObjAddr: 0x1E4, symBinAddr: 0x488CC, symSize: 0xC }
  - { offset: 0x119B43, size: 0x8, addend: 0x0, symName: __ZN4pyo35impl_7pyclass14PyClassWeakRef14clear_weakrefs17h0666abd4105fc05eE, symObjAddr: 0x1F0, symBinAddr: 0x488D8, symSize: 0x14 }
  - { offset: 0x119B9C, size: 0x8, addend: 0x0, symName: __ZN4pyo35impl_7pyclass14pyo3_get_value17hb62a6c7e551b57d3E, symObjAddr: 0x204, symBinAddr: 0x488EC, symSize: 0x188 }
  - { offset: 0x119CD5, size: 0x8, addend: 0x0, symName: __ZN4pyo35impl_7pyclass14pyo3_get_value17he6ac7dbb78b6ee47E, symObjAddr: 0x38C, symBinAddr: 0x48A74, symSize: 0x188 }
  - { offset: 0x119E0E, size: 0x8, addend: 0x0, symName: __ZN4pyo35impl_7pyclass18tp_dealloc_with_gc17h5aa8350a03302e83E, symObjAddr: 0x514, symBinAddr: 0x48BFC, symSize: 0x4C }
  - { offset: 0x119E5F, size: 0x8, addend: 0x0, symName: __ZN4pyo35impl_7pyclass18tp_dealloc_with_gc17h637b3384cde1d207E, symObjAddr: 0x560, symBinAddr: 0x48C48, symSize: 0x4C }
  - { offset: 0x119EB0, size: 0x8, addend: 0x0, symName: __ZN4pyo35impl_7pyclass18tp_dealloc_with_gc17hca494aea4267cd42E, symObjAddr: 0x5AC, symBinAddr: 0x48C94, symSize: 0x4C }
  - { offset: 0x119F01, size: 0x8, addend: 0x0, symName: __ZN4pyo35impl_7pyclass18tp_dealloc_with_gc17he0f08d81ad692995E, symObjAddr: 0x5F8, symBinAddr: 0x48CE0, symSize: 0x4C }
  - { offset: 0x119F52, size: 0x8, addend: 0x0, symName: __ZN4pyo35impl_7pyclass25pyo3_get_value_topyobject17h2815abf40dd04440E, symObjAddr: 0x644, symBinAddr: 0x48D2C, symSize: 0x178 }
  - { offset: 0x11A08C, size: 0x8, addend: 0x0, symName: __ZN4pyo35impl_7pyclass25pyo3_get_value_topyobject17h35d4c70e1c024129E, symObjAddr: 0x7BC, symBinAddr: 0x48EA4, symSize: 0x178 }
  - { offset: 0x11A1C6, size: 0x8, addend: 0x0, symName: __ZN4pyo35impl_7pyclass25pyo3_get_value_topyobject17ha4e02de2ed459177E, symObjAddr: 0x934, symBinAddr: 0x4901C, symSize: 0x178 }
  - { offset: 0x11A300, size: 0x8, addend: 0x0, symName: __ZN4pyo35impl_7pyclass25pyo3_get_value_topyobject17hac2754c82e2aa439E, symObjAddr: 0xAAC, symBinAddr: 0x49194, symSize: 0x178 }
  - { offset: 0x11A43A, size: 0x8, addend: 0x0, symName: __ZN4pyo35impl_7pyclass25pyo3_get_value_topyobject17hc582acd8e92e3874E, symObjAddr: 0xC24, symBinAddr: 0x4930C, symSize: 0x178 }
  - { offset: 0x11A574, size: 0x8, addend: 0x0, symName: __ZN4pyo35impl_7pyclass25pyo3_get_value_topyobject17hcd52c8bdacded6f3E, symObjAddr: 0xD9C, symBinAddr: 0x49484, symSize: 0x178 }
  - { offset: 0x11A6AE, size: 0x8, addend: 0x0, symName: __ZN4pyo35impl_7pyclass25pyo3_get_value_topyobject17hd82cb74d58083d9bE, symObjAddr: 0xF14, symBinAddr: 0x495FC, symSize: 0x178 }
  - { offset: 0x11A7E8, size: 0x8, addend: 0x0, symName: __ZN4pyo35impl_7pyclass25pyo3_get_value_topyobject17hf6fd73d046686b42E, symObjAddr: 0x108C, symBinAddr: 0x49774, symSize: 0x178 }
  - { offset: 0x11C101, size: 0x8, addend: 0x0, symName: '__ZN4pyo35impl_7pyclass29PyClassImplCollector$LT$T$GT$3new17h05f603a0e762677cE', symObjAddr: 0x1204, symBinAddr: 0x498EC, symSize: 0x4 }
  - { offset: 0x11D907, size: 0x8, addend: 0x0, symName: '__ZN4pyo35impl_7pyclass29PyClassImplCollector$LT$T$GT$3new17h9beb5f62fe4f4d2bE', symObjAddr: 0x1208, symBinAddr: 0x498F0, symSize: 0x4 }
  - { offset: 0x11D924, size: 0x8, addend: 0x0, symName: '__ZN4pyo35impl_7pyclass29PyClassImplCollector$LT$T$GT$3new17hbd787379afd183f0E', symObjAddr: 0x120C, symBinAddr: 0x498F4, symSize: 0x4 }
  - { offset: 0x11D941, size: 0x8, addend: 0x0, symName: '__ZN4pyo35impl_7pyclass29PyClassImplCollector$LT$T$GT$3new17he35dfeca3d357643E', symObjAddr: 0x1210, symBinAddr: 0x498F8, symSize: 0x4 }
  - { offset: 0x11DA9F, size: 0x8, addend: 0x0, symName: '__ZN4pyo35impl_7pyclass62PyClassGetterGenerator$LT$ClassT$C$FieldT$C$Offset$C$_$C$_$GT$8generate17h0f32887263dcaf51E', symObjAddr: 0x1214, symBinAddr: 0x498FC, symSize: 0x78 }
  - { offset: 0x11DB31, size: 0x8, addend: 0x0, symName: '__ZN4pyo35impl_7pyclass62PyClassGetterGenerator$LT$ClassT$C$FieldT$C$Offset$C$_$C$_$GT$8generate17h25744b7e51328b0cE', symObjAddr: 0x128C, symBinAddr: 0x49974, symSize: 0x78 }
  - { offset: 0x11DBC3, size: 0x8, addend: 0x0, symName: '__ZN4pyo35impl_7pyclass62PyClassGetterGenerator$LT$ClassT$C$FieldT$C$Offset$C$_$C$_$GT$8generate17h39f1115b0de5a24fE', symObjAddr: 0x1304, symBinAddr: 0x499EC, symSize: 0x78 }
  - { offset: 0x11DC55, size: 0x8, addend: 0x0, symName: '__ZN4pyo35impl_7pyclass62PyClassGetterGenerator$LT$ClassT$C$FieldT$C$Offset$C$_$C$_$GT$8generate17h3dc03b6de856d1e4E', symObjAddr: 0x137C, symBinAddr: 0x49A64, symSize: 0x78 }
  - { offset: 0x11DCE7, size: 0x8, addend: 0x0, symName: '__ZN4pyo35impl_7pyclass62PyClassGetterGenerator$LT$ClassT$C$FieldT$C$Offset$C$_$C$_$GT$8generate17h501a536ed3866245E', symObjAddr: 0x13F4, symBinAddr: 0x49ADC, symSize: 0x78 }
  - { offset: 0x11DD79, size: 0x8, addend: 0x0, symName: '__ZN4pyo35impl_7pyclass62PyClassGetterGenerator$LT$ClassT$C$FieldT$C$Offset$C$_$C$_$GT$8generate17h521c8a8dc5bae90bE', symObjAddr: 0x146C, symBinAddr: 0x49B54, symSize: 0x78 }
  - { offset: 0x11DE0B, size: 0x8, addend: 0x0, symName: '__ZN4pyo35impl_7pyclass62PyClassGetterGenerator$LT$ClassT$C$FieldT$C$Offset$C$_$C$_$GT$8generate17h59e88f016b6761f5E', symObjAddr: 0x14E4, symBinAddr: 0x49BCC, symSize: 0x78 }
  - { offset: 0x11DE9D, size: 0x8, addend: 0x0, symName: '__ZN4pyo35impl_7pyclass62PyClassGetterGenerator$LT$ClassT$C$FieldT$C$Offset$C$_$C$_$GT$8generate17h8f8fc0d62947acf8E', symObjAddr: 0x155C, symBinAddr: 0x49C44, symSize: 0x78 }
  - { offset: 0x11DF2F, size: 0x8, addend: 0x0, symName: '__ZN4pyo35impl_7pyclass62PyClassGetterGenerator$LT$ClassT$C$FieldT$C$Offset$C$_$C$_$GT$8generate17hc193c2fc40d26769E', symObjAddr: 0x15D4, symBinAddr: 0x49CBC, symSize: 0x78 }
  - { offset: 0x11DFC1, size: 0x8, addend: 0x0, symName: '__ZN4pyo35impl_7pyclass62PyClassGetterGenerator$LT$ClassT$C$FieldT$C$Offset$C$_$C$_$GT$8generate17he630644ad093b63aE', symObjAddr: 0x164C, symBinAddr: 0x49D34, symSize: 0x78 }
  - { offset: 0x11E0CA, size: 0x8, addend: 0x0, symName: __ZN4pyo310exceptions9PyIOError7new_err17h7f58999d314c12b0E, symObjAddr: 0x0, symBinAddr: 0x49DAC, symSize: 0x34 }
  - { offset: 0x11F3AA, size: 0x8, addend: 0x0, symName: '__ZN77_$LT$pyo3..exceptions..PyIOError$u20$as$u20$pyo3..type_object..PyTypeInfo$GT$15type_object_raw28_$u7b$$u7b$closure$u7d$$u7d$17hf67a29f6f6ab012eE', symObjAddr: 0x8C, symBinAddr: 0x49E38, symSize: 0x4C }
  - { offset: 0x11F554, size: 0x8, addend: 0x0, symName: __ZN4pyo311type_object10PyTypeInfo17type_object_bound17h16cc95a746f28e88E, symObjAddr: 0x5C, symBinAddr: 0x49E08, symSize: 0x30 }
  - { offset: 0x11FBB1, size: 0x8, addend: 0x0, symName: __ZN4pyo310exceptions9PyIOError7new_err17h7f58999d314c12b0E, symObjAddr: 0x0, symBinAddr: 0x49DAC, symSize: 0x34 }
  - { offset: 0x11FC04, size: 0x8, addend: 0x0, symName: __ZN4pyo310exceptions9PyIOError7new_err17he9bd732c23fa6895E, symObjAddr: 0x34, symBinAddr: 0x49DE0, symSize: 0x28 }
  - { offset: 0x11FC92, size: 0x8, addend: 0x0, symName: __ZN4core3fmt9Arguments3new17h01077ae98c8a0b4fE, symObjAddr: 0x0, symBinAddr: 0x49E84, symSize: 0x1C }
  - { offset: 0x120046, size: 0x8, addend: 0x0, symName: __ZN4core3fmt9Arguments3new17h01077ae98c8a0b4fE, symObjAddr: 0x0, symBinAddr: 0x49E84, symSize: 0x1C }
  - { offset: 0x1200AC, size: 0x8, addend: 0x0, symName: __ZN4core3fmt9Arguments3new17h1bf1ee91818e3ca1E, symObjAddr: 0x1C, symBinAddr: 0x49EA0, symSize: 0x1C }
  - { offset: 0x120112, size: 0x8, addend: 0x0, symName: __ZN4core3fmt9Arguments3new17h2e2af3fb19c219b9E, symObjAddr: 0x38, symBinAddr: 0x49EBC, symSize: 0x1C }
  - { offset: 0x12015E, size: 0x8, addend: 0x0, symName: __ZN4core3fmt9Arguments3new17h3658d0646a8b9667E, symObjAddr: 0x54, symBinAddr: 0x49ED8, symSize: 0x1C }
  - { offset: 0x1201AA, size: 0x8, addend: 0x0, symName: __ZN4core3fmt9Arguments3new17hb18aff75de90f597E, symObjAddr: 0x70, symBinAddr: 0x49EF4, symSize: 0x1C }
  - { offset: 0x1201FA, size: 0x8, addend: 0x0, symName: __ZN4pyo311type_object10PyTypeInfo17type_object_bound17h61039de17588fb45E, symObjAddr: 0x0, symBinAddr: 0x49F10, symSize: 0x30 }
  - { offset: 0x12135C, size: 0x8, addend: 0x0, symName: __ZN4pyo311type_object10PyTypeInfo17type_object_bound17h61039de17588fb45E, symObjAddr: 0x0, symBinAddr: 0x49F10, symSize: 0x30 }
  - { offset: 0x1213B2, size: 0x8, addend: 0x0, symName: '__ZN73_$LT$pyo3..types..any..PyAny$u20$as$u20$pyo3..type_object..PyTypeInfo$GT$15type_object_raw28_$u7b$$u7b$closure$u7d$$u7d$17h7fb567e3edadf59fE', symObjAddr: 0x30, symBinAddr: 0x49F40, symSize: 0x18 }
  - { offset: 0x1219DE, size: 0x8, addend: 0x0, symName: '__ZN10serde_json3map59Map$LT$alloc..string..String$C$serde_json..value..Value$GT$3new17h2df30d7fba5e055dE', symObjAddr: 0x0, symBinAddr: 0x49F58, symSize: 0x38 }
  - { offset: 0x1222BA, size: 0x8, addend: 0x0, symName: '__ZN10serde_json3map59Map$LT$alloc..string..String$C$serde_json..value..Value$GT$3new17h2df30d7fba5e055dE', symObjAddr: 0x0, symBinAddr: 0x49F58, symSize: 0x38 }
  - { offset: 0x1222DA, size: 0x8, addend: 0x0, symName: '__ZN10serde_json3map59Map$LT$alloc..string..String$C$serde_json..value..Value$GT$6insert17heb1f5e77fa9630e5E', symObjAddr: 0x38, symBinAddr: 0x49F90, symSize: 0x54 }
  - { offset: 0x122338, size: 0x8, addend: 0x0, symName: __ZN4core4iter6traits8iterator8Iterator6copied17hce5a34538f9fca39E, symObjAddr: 0x0, symBinAddr: 0x49FE4, symSize: 0x1C }
  - { offset: 0x122B1F, size: 0x8, addend: 0x0, symName: __ZN4core4iter6traits8iterator8Iterator6copied17hce5a34538f9fca39E, symObjAddr: 0x0, symBinAddr: 0x49FE4, symSize: 0x1C }
  - { offset: 0x123ABF, size: 0x8, addend: 0x0, symName: '__ZN91_$LT$core..slice..iter..Iter$LT$T$GT$$u20$as$u20$core..iter..traits..iterator..Iterator$GT$4next17h57c893c6a4250295E', symObjAddr: 0x6C, symBinAddr: 0x4A050, symSize: 0x84 }
  - { offset: 0x123B75, size: 0x8, addend: 0x0, symName: '__ZN91_$LT$core..slice..iter..Iter$LT$T$GT$$u20$as$u20$core..iter..traits..iterator..Iterator$GT$4next17h57db1f84ac7908e2E', symObjAddr: 0xF0, symBinAddr: 0x4A0D4, symSize: 0x84 }
  - { offset: 0x123C2B, size: 0x8, addend: 0x0, symName: '__ZN91_$LT$core..slice..iter..Iter$LT$T$GT$$u20$as$u20$core..iter..traits..iterator..Iterator$GT$4next17hd533fd84b424188dE', symObjAddr: 0x174, symBinAddr: 0x4A158, symSize: 0x84 }
  - { offset: 0x123D30, size: 0x8, addend: 0x0, symName: '__ZN91_$LT$core..slice..iter..Iter$LT$T$GT$$u20$as$u20$core..iter..traits..iterator..Iterator$GT$8position17hf34ee13470e3a8b9E', symObjAddr: 0x1F8, symBinAddr: 0x4A1DC, symSize: 0x194 }
  - { offset: 0x123EBD, size: 0x8, addend: 0x0, symName: '__ZN91_$LT$core..slice..iter..Iter$LT$T$GT$$u20$as$u20$core..iter..traits..iterator..Iterator$GT$8position17hfaddcc4cc60d3044E', symObjAddr: 0x38C, symBinAddr: 0x4A370, symSize: 0x194 }
  - { offset: 0x124901, size: 0x8, addend: 0x0, symName: '__ZN4core5slice4iter13Iter$LT$T$GT$3new17h9038f5b0d24d29a2E', symObjAddr: 0x1C, symBinAddr: 0x4A000, symSize: 0x50 }
  - { offset: 0x124D1B, size: 0x8, addend: 0x0, symName: __ZN4core3ptr19copy_nonoverlapping18precondition_check17h3ead06faea90d39fE, symObjAddr: 0x0, symBinAddr: 0x4A504, symSize: 0x168 }
  - { offset: 0x124E03, size: 0x8, addend: 0x0, symName: __ZN4core3ptr19copy_nonoverlapping18precondition_check17h3ead06faea90d39fE, symObjAddr: 0x0, symBinAddr: 0x4A504, symSize: 0x168 }
  - { offset: 0x125035, size: 0x8, addend: 0x0, symName: __ZN4pyo35impl_12deprecations12inspect_type17h0defd7c272dd0e16E, symObjAddr: 0x0, symBinAddr: 0x4A66C, symSize: 0x18 }
  - { offset: 0x127191, size: 0x8, addend: 0x0, symName: __ZN4pyo35impl_12deprecations12inspect_type17h0defd7c272dd0e16E, symObjAddr: 0x0, symBinAddr: 0x4A66C, symSize: 0x18 }
  - { offset: 0x1271D0, size: 0x8, addend: 0x0, symName: __ZN4pyo35impl_12deprecations12inspect_type17h2a291f369ce9b0a1E, symObjAddr: 0x18, symBinAddr: 0x4A684, symSize: 0x18 }
  - { offset: 0x12720F, size: 0x8, addend: 0x0, symName: __ZN4pyo35impl_12deprecations12inspect_type17h41824eaa73a41282E, symObjAddr: 0x30, symBinAddr: 0x4A69C, symSize: 0x18 }
  - { offset: 0x12724E, size: 0x8, addend: 0x0, symName: __ZN4pyo35impl_12deprecations12inspect_type17h5d1ee2969e0e7a40E, symObjAddr: 0x48, symBinAddr: 0x4A6B4, symSize: 0x18 }
  - { offset: 0x12728D, size: 0x8, addend: 0x0, symName: __ZN4pyo35impl_12deprecations12inspect_type17h61ebee7a12e034efE, symObjAddr: 0x60, symBinAddr: 0x4A6CC, symSize: 0x14 }
  - { offset: 0x1272CC, size: 0x8, addend: 0x0, symName: __ZN4pyo35impl_12deprecations12inspect_type17h69f13d00f972c5b3E, symObjAddr: 0x74, symBinAddr: 0x4A6E0, symSize: 0x18 }
  - { offset: 0x12730B, size: 0x8, addend: 0x0, symName: __ZN4pyo35impl_12deprecations12inspect_type17hd01086d54f698117E, symObjAddr: 0x8C, symBinAddr: 0x4A6F8, symSize: 0x1C }
  - { offset: 0x12734A, size: 0x8, addend: 0x0, symName: __ZN4pyo35impl_12deprecations12inspect_type17hee36ad77240034fcE, symObjAddr: 0xA8, symBinAddr: 0x4A714, symSize: 0x1C }
  - { offset: 0x1277D6, size: 0x8, addend: 0x0, symName: '__ZN87_$LT$pyo3..impl_..deprecations..GilRefs$LT$T$GT$$u20$as$u20$core..ops..deref..Deref$GT$5deref17h2d11b9e5a08a93dcE', symObjAddr: 0x164, symBinAddr: 0x4A7D0, symSize: 0x14 }
  - { offset: 0x12780B, size: 0x8, addend: 0x0, symName: '__ZN87_$LT$pyo3..impl_..deprecations..GilRefs$LT$T$GT$$u20$as$u20$core..ops..deref..Deref$GT$5deref17h4deeef6de98e331cE', symObjAddr: 0x178, symBinAddr: 0x4A7E4, symSize: 0x14 }
  - { offset: 0x127840, size: 0x8, addend: 0x0, symName: '__ZN87_$LT$pyo3..impl_..deprecations..GilRefs$LT$T$GT$$u20$as$u20$core..ops..deref..Deref$GT$5deref17h58986b9f29722ea8E', symObjAddr: 0x18C, symBinAddr: 0x4A7F8, symSize: 0x14 }
  - { offset: 0x127875, size: 0x8, addend: 0x0, symName: '__ZN87_$LT$pyo3..impl_..deprecations..GilRefs$LT$T$GT$$u20$as$u20$core..ops..deref..Deref$GT$5deref17h66a946f27fcee630E', symObjAddr: 0x1A0, symBinAddr: 0x4A80C, symSize: 0x14 }
  - { offset: 0x1278AA, size: 0x8, addend: 0x0, symName: '__ZN87_$LT$pyo3..impl_..deprecations..GilRefs$LT$T$GT$$u20$as$u20$core..ops..deref..Deref$GT$5deref17h6780f5b0adc3ab94E', symObjAddr: 0x1B4, symBinAddr: 0x4A820, symSize: 0x14 }
  - { offset: 0x1278DF, size: 0x8, addend: 0x0, symName: '__ZN87_$LT$pyo3..impl_..deprecations..GilRefs$LT$T$GT$$u20$as$u20$core..ops..deref..Deref$GT$5deref17h96cbc89d52dd2117E', symObjAddr: 0x1C8, symBinAddr: 0x4A834, symSize: 0x14 }
  - { offset: 0x127914, size: 0x8, addend: 0x0, symName: '__ZN87_$LT$pyo3..impl_..deprecations..GilRefs$LT$T$GT$$u20$as$u20$core..ops..deref..Deref$GT$5deref17ha59f3cebd43717f7E', symObjAddr: 0x1DC, symBinAddr: 0x4A848, symSize: 0x14 }
  - { offset: 0x127949, size: 0x8, addend: 0x0, symName: '__ZN87_$LT$pyo3..impl_..deprecations..GilRefs$LT$T$GT$$u20$as$u20$core..ops..deref..Deref$GT$5deref17hfb73bad3caf02e6eE', symObjAddr: 0x1F0, symBinAddr: 0x4A85C, symSize: 0x14 }
  - { offset: 0x127984, size: 0x8, addend: 0x0, symName: '__ZN93_$LT$pyo3..impl_..deprecations..OptionGilRefs$LT$T$GT$$u20$as$u20$core..ops..deref..Deref$GT$5deref17h0452f3077bcab205E', symObjAddr: 0x204, symBinAddr: 0x4A870, symSize: 0x14 }
  - { offset: 0x1279B9, size: 0x8, addend: 0x0, symName: '__ZN93_$LT$pyo3..impl_..deprecations..OptionGilRefs$LT$T$GT$$u20$as$u20$core..ops..deref..Deref$GT$5deref17h08d4b0c2442e29feE', symObjAddr: 0x218, symBinAddr: 0x4A884, symSize: 0x14 }
  - { offset: 0x1279EE, size: 0x8, addend: 0x0, symName: '__ZN93_$LT$pyo3..impl_..deprecations..OptionGilRefs$LT$T$GT$$u20$as$u20$core..ops..deref..Deref$GT$5deref17h09b2c9dde18edc64E', symObjAddr: 0x22C, symBinAddr: 0x4A898, symSize: 0x14 }
  - { offset: 0x127A23, size: 0x8, addend: 0x0, symName: '__ZN93_$LT$pyo3..impl_..deprecations..OptionGilRefs$LT$T$GT$$u20$as$u20$core..ops..deref..Deref$GT$5deref17h148d2e8e472920e3E', symObjAddr: 0x240, symBinAddr: 0x4A8AC, symSize: 0x14 }
  - { offset: 0x127A58, size: 0x8, addend: 0x0, symName: '__ZN93_$LT$pyo3..impl_..deprecations..OptionGilRefs$LT$T$GT$$u20$as$u20$core..ops..deref..Deref$GT$5deref17h339f0816c135d113E', symObjAddr: 0x254, symBinAddr: 0x4A8C0, symSize: 0x14 }
  - { offset: 0x127A8D, size: 0x8, addend: 0x0, symName: '__ZN93_$LT$pyo3..impl_..deprecations..OptionGilRefs$LT$T$GT$$u20$as$u20$core..ops..deref..Deref$GT$5deref17h58c0acb849f69fa0E', symObjAddr: 0x268, symBinAddr: 0x4A8D4, symSize: 0x14 }
  - { offset: 0x127AC2, size: 0x8, addend: 0x0, symName: '__ZN93_$LT$pyo3..impl_..deprecations..OptionGilRefs$LT$T$GT$$u20$as$u20$core..ops..deref..Deref$GT$5deref17hcdd3db3e747fdb38E', symObjAddr: 0x27C, symBinAddr: 0x4A8E8, symSize: 0x14 }
  - { offset: 0x127AF7, size: 0x8, addend: 0x0, symName: '__ZN93_$LT$pyo3..impl_..deprecations..OptionGilRefs$LT$T$GT$$u20$as$u20$core..ops..deref..Deref$GT$5deref17he80865ed71cf49e7E', symObjAddr: 0x290, symBinAddr: 0x4A8FC, symSize: 0x14 }
  - { offset: 0x127D27, size: 0x8, addend: 0x0, symName: '__ZN4pyo35impl_12deprecations16GilRefs$LT$T$GT$3new17h0d52cf704cba9447E', symObjAddr: 0xC4, symBinAddr: 0x4A730, symSize: 0x4 }
  - { offset: 0x129CC5, size: 0x8, addend: 0x0, symName: '__ZN4pyo35impl_12deprecations16GilRefs$LT$T$GT$3new17h126bf8a804ad7b5dE', symObjAddr: 0xC8, symBinAddr: 0x4A734, symSize: 0x4 }
  - { offset: 0x129CEF, size: 0x8, addend: 0x0, symName: '__ZN4pyo35impl_12deprecations16GilRefs$LT$T$GT$3new17h24720395cfbbe54bE', symObjAddr: 0xCC, symBinAddr: 0x4A738, symSize: 0x4 }
  - { offset: 0x129D0C, size: 0x8, addend: 0x0, symName: '__ZN4pyo35impl_12deprecations16GilRefs$LT$T$GT$3new17h75fc036c0354c278E', symObjAddr: 0xD0, symBinAddr: 0x4A73C, symSize: 0x4 }
  - { offset: 0x12A1AA, size: 0x8, addend: 0x0, symName: '__ZN4pyo35impl_12deprecations16GilRefs$LT$T$GT$3new17h7a4799770210e70fE', symObjAddr: 0xD4, symBinAddr: 0x4A740, symSize: 0x4 }
  - { offset: 0x12A1C7, size: 0x8, addend: 0x0, symName: '__ZN4pyo35impl_12deprecations16GilRefs$LT$T$GT$3new17h95e90d88820fe641E', symObjAddr: 0xD8, symBinAddr: 0x4A744, symSize: 0x4 }
  - { offset: 0x12A1E4, size: 0x8, addend: 0x0, symName: '__ZN4pyo35impl_12deprecations16GilRefs$LT$T$GT$3new17hc42e9463d7ac46f8E', symObjAddr: 0xDC, symBinAddr: 0x4A748, symSize: 0x4 }
  - { offset: 0x12A20E, size: 0x8, addend: 0x0, symName: '__ZN4pyo35impl_12deprecations16GilRefs$LT$T$GT$3new17hc564b7f9b3634799E', symObjAddr: 0xE0, symBinAddr: 0x4A74C, symSize: 0x4 }
  - { offset: 0x12A238, size: 0x8, addend: 0x0, symName: '__ZN4pyo35impl_12deprecations19NotAGilRef$LT$T$GT$12function_arg17h60d6400a4bbde8daE', symObjAddr: 0xE4, symBinAddr: 0x4A750, symSize: 0x10 }
  - { offset: 0x12A270, size: 0x8, addend: 0x0, symName: '__ZN4pyo35impl_12deprecations19NotAGilRef$LT$T$GT$12function_arg17h6666e5db2ead2873E', symObjAddr: 0xF4, symBinAddr: 0x4A760, symSize: 0x10 }
  - { offset: 0x12A2A8, size: 0x8, addend: 0x0, symName: '__ZN4pyo35impl_12deprecations19NotAGilRef$LT$T$GT$12function_arg17h70a03db9448d441dE', symObjAddr: 0x104, symBinAddr: 0x4A770, symSize: 0x10 }
  - { offset: 0x12A2E0, size: 0x8, addend: 0x0, symName: '__ZN4pyo35impl_12deprecations19NotAGilRef$LT$T$GT$12function_arg17h7919832a488276beE', symObjAddr: 0x114, symBinAddr: 0x4A780, symSize: 0x10 }
  - { offset: 0x12A318, size: 0x8, addend: 0x0, symName: '__ZN4pyo35impl_12deprecations19NotAGilRef$LT$T$GT$12function_arg17h8cc5c1e4d40ace3aE', symObjAddr: 0x124, symBinAddr: 0x4A790, symSize: 0x10 }
  - { offset: 0x12A350, size: 0x8, addend: 0x0, symName: '__ZN4pyo35impl_12deprecations19NotAGilRef$LT$T$GT$12function_arg17h988d217591232f46E', symObjAddr: 0x134, symBinAddr: 0x4A7A0, symSize: 0x10 }
  - { offset: 0x12A388, size: 0x8, addend: 0x0, symName: '__ZN4pyo35impl_12deprecations19NotAGilRef$LT$T$GT$12function_arg17h9aa10d3f65220a25E', symObjAddr: 0x144, symBinAddr: 0x4A7B0, symSize: 0x10 }
  - { offset: 0x12A3C0, size: 0x8, addend: 0x0, symName: '__ZN4pyo35impl_12deprecations19NotAGilRef$LT$T$GT$12function_arg17hdfdaa4bc3606c47eE', symObjAddr: 0x154, symBinAddr: 0x4A7C0, symSize: 0x10 }
  - { offset: 0x12A4D9, size: 0x8, addend: 0x0, symName: '__ZN9hashbrown3map24HashMap$LT$K$C$V$C$S$GT$24with_capacity_and_hasher17h2aeb50986d394522E', symObjAddr: 0x0, symBinAddr: 0x4A910, symSize: 0x78 }
  - { offset: 0x12A88A, size: 0x8, addend: 0x0, symName: '__ZN9hashbrown3map24HashMap$LT$K$C$V$C$S$GT$24with_capacity_and_hasher17h2aeb50986d394522E', symObjAddr: 0x0, symBinAddr: 0x4A910, symSize: 0x78 }
  - { offset: 0x12A913, size: 0x8, addend: 0x0, symName: '__ZN86_$LT$core..marker..PhantomData$LT$T$GT$$u20$as$u20$serde_core..de..DeserializeSeed$GT$11deserialize17h0480f639d0deeed2E', symObjAddr: 0x0, symBinAddr: 0x4A988, symSize: 0x24 }
  - { offset: 0x12B041, size: 0x8, addend: 0x0, symName: '__ZN86_$LT$core..marker..PhantomData$LT$T$GT$$u20$as$u20$serde_core..de..DeserializeSeed$GT$11deserialize17h0480f639d0deeed2E', symObjAddr: 0x0, symBinAddr: 0x4A988, symSize: 0x24 }
  - { offset: 0x12B09C, size: 0x8, addend: 0x0, symName: '__ZN86_$LT$core..marker..PhantomData$LT$T$GT$$u20$as$u20$serde_core..de..DeserializeSeed$GT$11deserialize17h0f9285cfff14a036E', symObjAddr: 0x24, symBinAddr: 0x4A9AC, symSize: 0x24 }
  - { offset: 0x12B0F7, size: 0x8, addend: 0x0, symName: '__ZN86_$LT$core..marker..PhantomData$LT$T$GT$$u20$as$u20$serde_core..de..DeserializeSeed$GT$11deserialize17h1b64cef20e9cc397E', symObjAddr: 0x48, symBinAddr: 0x4A9D0, symSize: 0x24 }
  - { offset: 0x12B152, size: 0x8, addend: 0x0, symName: '__ZN86_$LT$core..marker..PhantomData$LT$T$GT$$u20$as$u20$serde_core..de..DeserializeSeed$GT$11deserialize17h1cabd37b06fe2b33E', symObjAddr: 0x6C, symBinAddr: 0x4A9F4, symSize: 0x24 }
  - { offset: 0x12B1AD, size: 0x8, addend: 0x0, symName: '__ZN86_$LT$core..marker..PhantomData$LT$T$GT$$u20$as$u20$serde_core..de..DeserializeSeed$GT$11deserialize17h24310bd19c6f5f46E', symObjAddr: 0x90, symBinAddr: 0x4AA18, symSize: 0x24 }
  - { offset: 0x12B208, size: 0x8, addend: 0x0, symName: '__ZN86_$LT$core..marker..PhantomData$LT$T$GT$$u20$as$u20$serde_core..de..DeserializeSeed$GT$11deserialize17h280292970ed0737eE', symObjAddr: 0xB4, symBinAddr: 0x4AA3C, symSize: 0x24 }
  - { offset: 0x12B263, size: 0x8, addend: 0x0, symName: '__ZN86_$LT$core..marker..PhantomData$LT$T$GT$$u20$as$u20$serde_core..de..DeserializeSeed$GT$11deserialize17h3923c6d0353dca06E', symObjAddr: 0xD8, symBinAddr: 0x4AA60, symSize: 0x24 }
  - { offset: 0x12B2BE, size: 0x8, addend: 0x0, symName: '__ZN86_$LT$core..marker..PhantomData$LT$T$GT$$u20$as$u20$serde_core..de..DeserializeSeed$GT$11deserialize17h3aa6bab28a014b05E', symObjAddr: 0xFC, symBinAddr: 0x4AA84, symSize: 0x24 }
  - { offset: 0x12B319, size: 0x8, addend: 0x0, symName: '__ZN86_$LT$core..marker..PhantomData$LT$T$GT$$u20$as$u20$serde_core..de..DeserializeSeed$GT$11deserialize17h3bd546f832e4b803E', symObjAddr: 0x120, symBinAddr: 0x4AAA8, symSize: 0x24 }
  - { offset: 0x12B374, size: 0x8, addend: 0x0, symName: '__ZN86_$LT$core..marker..PhantomData$LT$T$GT$$u20$as$u20$serde_core..de..DeserializeSeed$GT$11deserialize17h42e4934321078a09E', symObjAddr: 0x144, symBinAddr: 0x4AACC, symSize: 0x24 }
  - { offset: 0x12B3CF, size: 0x8, addend: 0x0, symName: '__ZN86_$LT$core..marker..PhantomData$LT$T$GT$$u20$as$u20$serde_core..de..DeserializeSeed$GT$11deserialize17h473318240579225fE', symObjAddr: 0x168, symBinAddr: 0x4AAF0, symSize: 0x24 }
  - { offset: 0x12B42A, size: 0x8, addend: 0x0, symName: '__ZN86_$LT$core..marker..PhantomData$LT$T$GT$$u20$as$u20$serde_core..de..DeserializeSeed$GT$11deserialize17h4e06beb052afd752E', symObjAddr: 0x18C, symBinAddr: 0x4AB14, symSize: 0x24 }
  - { offset: 0x12B485, size: 0x8, addend: 0x0, symName: '__ZN86_$LT$core..marker..PhantomData$LT$T$GT$$u20$as$u20$serde_core..de..DeserializeSeed$GT$11deserialize17h51be763c86903673E', symObjAddr: 0x1B0, symBinAddr: 0x4AB38, symSize: 0x24 }
  - { offset: 0x12B4E0, size: 0x8, addend: 0x0, symName: '__ZN86_$LT$core..marker..PhantomData$LT$T$GT$$u20$as$u20$serde_core..de..DeserializeSeed$GT$11deserialize17h553b24817395d2bfE', symObjAddr: 0x1D4, symBinAddr: 0x4AB5C, symSize: 0x24 }
  - { offset: 0x12B53B, size: 0x8, addend: 0x0, symName: '__ZN86_$LT$core..marker..PhantomData$LT$T$GT$$u20$as$u20$serde_core..de..DeserializeSeed$GT$11deserialize17h566b37c2f34e2048E', symObjAddr: 0x1F8, symBinAddr: 0x4AB80, symSize: 0x24 }
  - { offset: 0x12B596, size: 0x8, addend: 0x0, symName: '__ZN86_$LT$core..marker..PhantomData$LT$T$GT$$u20$as$u20$serde_core..de..DeserializeSeed$GT$11deserialize17h59db8f659ef99a71E', symObjAddr: 0x21C, symBinAddr: 0x4ABA4, symSize: 0x24 }
  - { offset: 0x12B5F1, size: 0x8, addend: 0x0, symName: '__ZN86_$LT$core..marker..PhantomData$LT$T$GT$$u20$as$u20$serde_core..de..DeserializeSeed$GT$11deserialize17h5ad715f335a7e433E', symObjAddr: 0x240, symBinAddr: 0x4ABC8, symSize: 0x24 }
  - { offset: 0x12B64C, size: 0x8, addend: 0x0, symName: '__ZN86_$LT$core..marker..PhantomData$LT$T$GT$$u20$as$u20$serde_core..de..DeserializeSeed$GT$11deserialize17h693866034b05a0aaE', symObjAddr: 0x264, symBinAddr: 0x4ABEC, symSize: 0x24 }
  - { offset: 0x12B6A7, size: 0x8, addend: 0x0, symName: '__ZN86_$LT$core..marker..PhantomData$LT$T$GT$$u20$as$u20$serde_core..de..DeserializeSeed$GT$11deserialize17h6a1619f31c842a07E', symObjAddr: 0x288, symBinAddr: 0x4AC10, symSize: 0x24 }
  - { offset: 0x12B702, size: 0x8, addend: 0x0, symName: '__ZN86_$LT$core..marker..PhantomData$LT$T$GT$$u20$as$u20$serde_core..de..DeserializeSeed$GT$11deserialize17h6e13e32c9e68ab9dE', symObjAddr: 0x2AC, symBinAddr: 0x4AC34, symSize: 0x24 }
  - { offset: 0x12B75D, size: 0x8, addend: 0x0, symName: '__ZN86_$LT$core..marker..PhantomData$LT$T$GT$$u20$as$u20$serde_core..de..DeserializeSeed$GT$11deserialize17h7b22654c4c0bb022E', symObjAddr: 0x2D0, symBinAddr: 0x4AC58, symSize: 0x24 }
  - { offset: 0x12B7B8, size: 0x8, addend: 0x0, symName: '__ZN86_$LT$core..marker..PhantomData$LT$T$GT$$u20$as$u20$serde_core..de..DeserializeSeed$GT$11deserialize17h7ea94bf61e976135E', symObjAddr: 0x2F4, symBinAddr: 0x4AC7C, symSize: 0x24 }
  - { offset: 0x12B813, size: 0x8, addend: 0x0, symName: '__ZN86_$LT$core..marker..PhantomData$LT$T$GT$$u20$as$u20$serde_core..de..DeserializeSeed$GT$11deserialize17h842600aab01c6d85E', symObjAddr: 0x318, symBinAddr: 0x4ACA0, symSize: 0x24 }
  - { offset: 0x12B86E, size: 0x8, addend: 0x0, symName: '__ZN86_$LT$core..marker..PhantomData$LT$T$GT$$u20$as$u20$serde_core..de..DeserializeSeed$GT$11deserialize17h89e937cf458a0630E', symObjAddr: 0x33C, symBinAddr: 0x4ACC4, symSize: 0x24 }
  - { offset: 0x12B8C9, size: 0x8, addend: 0x0, symName: '__ZN86_$LT$core..marker..PhantomData$LT$T$GT$$u20$as$u20$serde_core..de..DeserializeSeed$GT$11deserialize17h8ab4a3dac9286de0E', symObjAddr: 0x360, symBinAddr: 0x4ACE8, symSize: 0x24 }
  - { offset: 0x12B924, size: 0x8, addend: 0x0, symName: '__ZN86_$LT$core..marker..PhantomData$LT$T$GT$$u20$as$u20$serde_core..de..DeserializeSeed$GT$11deserialize17h8fc672b76e27252fE', symObjAddr: 0x384, symBinAddr: 0x4AD0C, symSize: 0x24 }
  - { offset: 0x12B97F, size: 0x8, addend: 0x0, symName: '__ZN86_$LT$core..marker..PhantomData$LT$T$GT$$u20$as$u20$serde_core..de..DeserializeSeed$GT$11deserialize17h92b4e478b9da6f9dE', symObjAddr: 0x3A8, symBinAddr: 0x4AD30, symSize: 0x24 }
  - { offset: 0x12B9DA, size: 0x8, addend: 0x0, symName: '__ZN86_$LT$core..marker..PhantomData$LT$T$GT$$u20$as$u20$serde_core..de..DeserializeSeed$GT$11deserialize17h97e5c5418f307cb4E', symObjAddr: 0x3CC, symBinAddr: 0x4AD54, symSize: 0x24 }
  - { offset: 0x12BA35, size: 0x8, addend: 0x0, symName: '__ZN86_$LT$core..marker..PhantomData$LT$T$GT$$u20$as$u20$serde_core..de..DeserializeSeed$GT$11deserialize17h9aa25db30928f6eeE', symObjAddr: 0x3F0, symBinAddr: 0x4AD78, symSize: 0x24 }
  - { offset: 0x12BA90, size: 0x8, addend: 0x0, symName: '__ZN86_$LT$core..marker..PhantomData$LT$T$GT$$u20$as$u20$serde_core..de..DeserializeSeed$GT$11deserialize17h9bb7ddf4c39a9949E', symObjAddr: 0x414, symBinAddr: 0x4AD9C, symSize: 0x24 }
  - { offset: 0x12BAEB, size: 0x8, addend: 0x0, symName: '__ZN86_$LT$core..marker..PhantomData$LT$T$GT$$u20$as$u20$serde_core..de..DeserializeSeed$GT$11deserialize17h9ed5ffb5042c66eeE', symObjAddr: 0x438, symBinAddr: 0x4ADC0, symSize: 0x24 }
  - { offset: 0x12BB46, size: 0x8, addend: 0x0, symName: '__ZN86_$LT$core..marker..PhantomData$LT$T$GT$$u20$as$u20$serde_core..de..DeserializeSeed$GT$11deserialize17haa522408250c34aaE', symObjAddr: 0x45C, symBinAddr: 0x4ADE4, symSize: 0x24 }
  - { offset: 0x12BBA1, size: 0x8, addend: 0x0, symName: '__ZN86_$LT$core..marker..PhantomData$LT$T$GT$$u20$as$u20$serde_core..de..DeserializeSeed$GT$11deserialize17hab2dc2b424f74d19E', symObjAddr: 0x480, symBinAddr: 0x4AE08, symSize: 0x24 }
  - { offset: 0x12BBFC, size: 0x8, addend: 0x0, symName: '__ZN86_$LT$core..marker..PhantomData$LT$T$GT$$u20$as$u20$serde_core..de..DeserializeSeed$GT$11deserialize17hb1df17c96d2dc28eE', symObjAddr: 0x4A4, symBinAddr: 0x4AE2C, symSize: 0x24 }
  - { offset: 0x12BC57, size: 0x8, addend: 0x0, symName: '__ZN86_$LT$core..marker..PhantomData$LT$T$GT$$u20$as$u20$serde_core..de..DeserializeSeed$GT$11deserialize17hb38cbed37f05610bE', symObjAddr: 0x4C8, symBinAddr: 0x4AE50, symSize: 0x24 }
  - { offset: 0x12BCB2, size: 0x8, addend: 0x0, symName: '__ZN86_$LT$core..marker..PhantomData$LT$T$GT$$u20$as$u20$serde_core..de..DeserializeSeed$GT$11deserialize17hc886982c65adda1aE', symObjAddr: 0x4EC, symBinAddr: 0x4AE74, symSize: 0x24 }
  - { offset: 0x12BD0D, size: 0x8, addend: 0x0, symName: '__ZN86_$LT$core..marker..PhantomData$LT$T$GT$$u20$as$u20$serde_core..de..DeserializeSeed$GT$11deserialize17hd1373144a3aea908E', symObjAddr: 0x510, symBinAddr: 0x4AE98, symSize: 0x24 }
  - { offset: 0x12BD68, size: 0x8, addend: 0x0, symName: '__ZN86_$LT$core..marker..PhantomData$LT$T$GT$$u20$as$u20$serde_core..de..DeserializeSeed$GT$11deserialize17he0ce8175b80130afE', symObjAddr: 0x534, symBinAddr: 0x4AEBC, symSize: 0x24 }
  - { offset: 0x12BDC3, size: 0x8, addend: 0x0, symName: '__ZN86_$LT$core..marker..PhantomData$LT$T$GT$$u20$as$u20$serde_core..de..DeserializeSeed$GT$11deserialize17he67119dba6bb1ab9E', symObjAddr: 0x558, symBinAddr: 0x4AEE0, symSize: 0x24 }
  - { offset: 0x12BE1E, size: 0x8, addend: 0x0, symName: '__ZN86_$LT$core..marker..PhantomData$LT$T$GT$$u20$as$u20$serde_core..de..DeserializeSeed$GT$11deserialize17hf06f398b27b9a9bbE', symObjAddr: 0x57C, symBinAddr: 0x4AF04, symSize: 0x24 }
  - { offset: 0x12BE79, size: 0x8, addend: 0x0, symName: '__ZN86_$LT$core..marker..PhantomData$LT$T$GT$$u20$as$u20$serde_core..de..DeserializeSeed$GT$11deserialize17hf5304cdf32895a41E', symObjAddr: 0x5A0, symBinAddr: 0x4AF28, symSize: 0x24 }
  - { offset: 0x12BED4, size: 0x8, addend: 0x0, symName: '__ZN86_$LT$core..marker..PhantomData$LT$T$GT$$u20$as$u20$serde_core..de..DeserializeSeed$GT$11deserialize17hf77f977e47dd011eE', symObjAddr: 0x5C4, symBinAddr: 0x4AF4C, symSize: 0x24 }
  - { offset: 0x12BF2F, size: 0x8, addend: 0x0, symName: '__ZN86_$LT$core..marker..PhantomData$LT$T$GT$$u20$as$u20$serde_core..de..DeserializeSeed$GT$11deserialize17hf94806c4c4700734E', symObjAddr: 0x5E8, symBinAddr: 0x4AF70, symSize: 0x24 }
  - { offset: 0x12BF8A, size: 0x8, addend: 0x0, symName: '__ZN86_$LT$core..marker..PhantomData$LT$T$GT$$u20$as$u20$serde_core..de..DeserializeSeed$GT$11deserialize17hff481a73f3a54587E', symObjAddr: 0x60C, symBinAddr: 0x4AF94, symSize: 0x24 }
  - { offset: 0x12ECAB, size: 0x8, addend: 0x0, symName: __ZN3std4hash6random11RandomState3new4KEYS27__rust_std_internal_init_fn17hedae88a28c7ddc12E, symObjAddr: 0x0, symBinAddr: 0x4AFD4, symSize: 0x24 }
  - { offset: 0x12ECD6, size: 0x8, addend: 0x0, symName: __ZN3std4hash6random11RandomState3new4KEYS27__rust_std_internal_init_fn17hedae88a28c7ddc12E, symObjAddr: 0x0, symBinAddr: 0x4AFD4, symSize: 0x24 }
  - { offset: 0x12ECFB, size: 0x8, addend: 0x0, symName: '__ZN69_$LT$std..hash..random..RandomState$u20$as$u20$core..clone..Clone$GT$5clone17hebf10fe35902324fE', symObjAddr: 0x24, symBinAddr: 0x4AFF8, symSize: 0x20 }
  - { offset: 0x12ED2D, size: 0x8, addend: 0x0, symName: '__ZN71_$LT$std..hash..random..DefaultHasher$u20$as$u20$core..hash..Hasher$GT$5write17h64bc1cb5c8b76663E', symObjAddr: 0x44, symBinAddr: 0x4B018, symSize: 0x2C }
  - { offset: 0x12ED87, size: 0x8, addend: 0x0, symName: '__ZN71_$LT$std..hash..random..DefaultHasher$u20$as$u20$core..hash..Hasher$GT$6finish17ha88474ba7e529d68E', symObjAddr: 0x70, symBinAddr: 0x4B044, symSize: 0x20 }
  - { offset: 0x12EDCF, size: 0x8, addend: 0x0, symName: '__ZN71_$LT$std..hash..random..DefaultHasher$u20$as$u20$core..hash..Hasher$GT$9write_str17hd4124425f40d5228E', symObjAddr: 0x90, symBinAddr: 0x4B064, symSize: 0x2C }
  - { offset: 0x12EE5F, size: 0x8, addend: 0x0, symName: '__ZN73_$LT$std..hash..random..RandomState$u20$as$u20$core..default..Default$GT$7default17h723cf611f30b346eE', symObjAddr: 0xBC, symBinAddr: 0x4B090, symSize: 0x1C }
  - { offset: 0x12EE97, size: 0x8, addend: 0x0, symName: '__ZN74_$LT$std..hash..random..RandomState$u20$as$u20$core..hash..BuildHasher$GT$12build_hasher17h69ce7a58524b924fE', symObjAddr: 0xD8, symBinAddr: 0x4B0AC, symSize: 0xCC }
  - { offset: 0x12F23C, size: 0x8, addend: 0x0, symName: '__ZN10serde_core3ser5impls60_$LT$impl$u20$serde_core..ser..Serialize$u20$for$u20$f32$GT$9serialize17ha4793d1fc8bdff52E', symObjAddr: 0x0, symBinAddr: 0x4B178, symSize: 0x38 }
  - { offset: 0x12FA74, size: 0x8, addend: 0x0, symName: '__ZN10serde_core3ser5impls60_$LT$impl$u20$serde_core..ser..Serialize$u20$for$u20$f32$GT$9serialize17ha4793d1fc8bdff52E', symObjAddr: 0x0, symBinAddr: 0x4B178, symSize: 0x38 }
  - { offset: 0x12FAB7, size: 0x8, addend: 0x0, symName: '__ZN10serde_core3ser5impls60_$LT$impl$u20$serde_core..ser..Serialize$u20$for$u20$f32$GT$9serialize17hc06668f1c918fe70E', symObjAddr: 0x38, symBinAddr: 0x4B1B0, symSize: 0x38 }
  - { offset: 0x12FB00, size: 0x8, addend: 0x0, symName: '__ZN10serde_core3ser5impls60_$LT$impl$u20$serde_core..ser..Serialize$u20$for$u20$f64$GT$9serialize17h703c99959c165e3bE', symObjAddr: 0x70, symBinAddr: 0x4B1E8, symSize: 0x28 }
  - { offset: 0x12FB43, size: 0x8, addend: 0x0, symName: '__ZN10serde_core3ser5impls60_$LT$impl$u20$serde_core..ser..Serialize$u20$for$u20$f64$GT$9serialize17h9c9401779730effeE', symObjAddr: 0x98, symBinAddr: 0x4B210, symSize: 0x38 }
  - { offset: 0x12FB8C, size: 0x8, addend: 0x0, symName: '__ZN10serde_core3ser5impls60_$LT$impl$u20$serde_core..ser..Serialize$u20$for$u20$i64$GT$9serialize17h297992b593eaccaeE', symObjAddr: 0xD0, symBinAddr: 0x4B248, symSize: 0x28 }
  - { offset: 0x12FBD5, size: 0x8, addend: 0x0, symName: '__ZN10serde_core3ser5impls60_$LT$impl$u20$serde_core..ser..Serialize$u20$for$u20$str$GT$9serialize17h35d9563ee8861dc0E', symObjAddr: 0xF8, symBinAddr: 0x4B270, symSize: 0x48 }
  - { offset: 0x12FC18, size: 0x8, addend: 0x0, symName: '__ZN10serde_core3ser5impls60_$LT$impl$u20$serde_core..ser..Serialize$u20$for$u20$str$GT$9serialize17h9ba402987bd066d9E', symObjAddr: 0x140, symBinAddr: 0x4B2B8, symSize: 0x48 }
  - { offset: 0x12FC5B, size: 0x8, addend: 0x0, symName: '__ZN10serde_core3ser5impls60_$LT$impl$u20$serde_core..ser..Serialize$u20$for$u20$str$GT$9serialize17hbbe8ed965f15fdddE', symObjAddr: 0x188, symBinAddr: 0x4B300, symSize: 0x48 }
  - { offset: 0x12FC9E, size: 0x8, addend: 0x0, symName: '__ZN10serde_core3ser5impls60_$LT$impl$u20$serde_core..ser..Serialize$u20$for$u20$str$GT$9serialize17he5596a29fb477f24E', symObjAddr: 0x1D0, symBinAddr: 0x4B348, symSize: 0x28 }
  - { offset: 0x12FCE7, size: 0x8, addend: 0x0, symName: '__ZN10serde_core3ser5impls60_$LT$impl$u20$serde_core..ser..Serialize$u20$for$u20$u32$GT$9serialize17hd5ad79c71710c476E', symObjAddr: 0x1F8, symBinAddr: 0x4B370, symSize: 0x38 }
  - { offset: 0x12FD2A, size: 0x8, addend: 0x0, symName: '__ZN10serde_core3ser5impls60_$LT$impl$u20$serde_core..ser..Serialize$u20$for$u20$u32$GT$9serialize17hf6b757431b2ac99bE', symObjAddr: 0x230, symBinAddr: 0x4B3A8, symSize: 0x38 }
  - { offset: 0x12FD73, size: 0x8, addend: 0x0, symName: '__ZN10serde_core3ser5impls60_$LT$impl$u20$serde_core..ser..Serialize$u20$for$u20$u64$GT$9serialize17h123a14a59f9cf3e2E', symObjAddr: 0x268, symBinAddr: 0x4B3E0, symSize: 0x38 }
  - { offset: 0x12FDB6, size: 0x8, addend: 0x0, symName: '__ZN10serde_core3ser5impls60_$LT$impl$u20$serde_core..ser..Serialize$u20$for$u20$u64$GT$9serialize17h76def483a8976efaE', symObjAddr: 0x2A0, symBinAddr: 0x4B418, symSize: 0x38 }
  - { offset: 0x12FDFF, size: 0x8, addend: 0x0, symName: '__ZN10serde_core3ser5impls61_$LT$impl$u20$serde_core..ser..Serialize$u20$for$u20$bool$GT$9serialize17h0ac7ff246b851ff5E', symObjAddr: 0x2D8, symBinAddr: 0x4B450, symSize: 0x3C }
  - { offset: 0x12FE42, size: 0x8, addend: 0x0, symName: '__ZN10serde_core3ser5impls61_$LT$impl$u20$serde_core..ser..Serialize$u20$for$u20$bool$GT$9serialize17h41ceecf60010be72E', symObjAddr: 0x314, symBinAddr: 0x4B48C, symSize: 0x2C }
  - { offset: 0x12FE85, size: 0x8, addend: 0x0, symName: '__ZN10serde_core3ser5impls61_$LT$impl$u20$serde_core..ser..Serialize$u20$for$u20$bool$GT$9serialize17h73ff3834c47c85ccE', symObjAddr: 0x340, symBinAddr: 0x4B4B8, symSize: 0x3C }
  - { offset: 0x12FECE, size: 0x8, addend: 0x0, symName: '__ZN10serde_core3ser5impls62_$LT$impl$u20$serde_core..ser..Serialize$u20$for$u20$$RF$T$GT$9serialize17h15cde2e7904f7e02E', symObjAddr: 0x37C, symBinAddr: 0x4B4F4, symSize: 0x30 }
  - { offset: 0x12FF1D, size: 0x8, addend: 0x0, symName: '__ZN10serde_core3ser5impls62_$LT$impl$u20$serde_core..ser..Serialize$u20$for$u20$$RF$T$GT$9serialize17h160ba4bfa91272d9E', symObjAddr: 0x3AC, symBinAddr: 0x4B524, symSize: 0x28 }
  - { offset: 0x12FF6C, size: 0x8, addend: 0x0, symName: '__ZN10serde_core3ser5impls62_$LT$impl$u20$serde_core..ser..Serialize$u20$for$u20$$RF$T$GT$9serialize17h16bff2ada2e684e2E', symObjAddr: 0x3D4, symBinAddr: 0x4B54C, symSize: 0x28 }
  - { offset: 0x12FFBB, size: 0x8, addend: 0x0, symName: '__ZN10serde_core3ser5impls62_$LT$impl$u20$serde_core..ser..Serialize$u20$for$u20$$RF$T$GT$9serialize17h283c457041c099abE', symObjAddr: 0x3FC, symBinAddr: 0x4B574, symSize: 0x30 }
  - { offset: 0x13000A, size: 0x8, addend: 0x0, symName: '__ZN10serde_core3ser5impls62_$LT$impl$u20$serde_core..ser..Serialize$u20$for$u20$$RF$T$GT$9serialize17h2fb2547897156c72E', symObjAddr: 0x42C, symBinAddr: 0x4B5A4, symSize: 0x30 }
  - { offset: 0x130059, size: 0x8, addend: 0x0, symName: '__ZN10serde_core3ser5impls62_$LT$impl$u20$serde_core..ser..Serialize$u20$for$u20$$RF$T$GT$9serialize17h67a9d9756a0e0304E', symObjAddr: 0x45C, symBinAddr: 0x4B5D4, symSize: 0x30 }
  - { offset: 0x1300A8, size: 0x8, addend: 0x0, symName: '__ZN10serde_core3ser5impls62_$LT$impl$u20$serde_core..ser..Serialize$u20$for$u20$$RF$T$GT$9serialize17h6d9dd1e00822c67cE', symObjAddr: 0x48C, symBinAddr: 0x4B604, symSize: 0x30 }
  - { offset: 0x1300F7, size: 0x8, addend: 0x0, symName: '__ZN10serde_core3ser5impls62_$LT$impl$u20$serde_core..ser..Serialize$u20$for$u20$$RF$T$GT$9serialize17h8a1e0fee769128f7E', symObjAddr: 0x4BC, symBinAddr: 0x4B634, symSize: 0x28 }
  - { offset: 0x130146, size: 0x8, addend: 0x0, symName: '__ZN10serde_core3ser5impls62_$LT$impl$u20$serde_core..ser..Serialize$u20$for$u20$$RF$T$GT$9serialize17h93be418fbf4488caE', symObjAddr: 0x4E4, symBinAddr: 0x4B65C, symSize: 0x30 }
  - { offset: 0x130195, size: 0x8, addend: 0x0, symName: '__ZN10serde_core3ser5impls62_$LT$impl$u20$serde_core..ser..Serialize$u20$for$u20$$RF$T$GT$9serialize17ha75c13ce4ba7d035E', symObjAddr: 0x514, symBinAddr: 0x4B68C, symSize: 0x30 }
  - { offset: 0x1301E4, size: 0x8, addend: 0x0, symName: '__ZN10serde_core3ser5impls62_$LT$impl$u20$serde_core..ser..Serialize$u20$for$u20$$RF$T$GT$9serialize17hcc9140478fe5e7c2E', symObjAddr: 0x544, symBinAddr: 0x4B6BC, symSize: 0x28 }
  - { offset: 0x130233, size: 0x8, addend: 0x0, symName: '__ZN10serde_core3ser5impls62_$LT$impl$u20$serde_core..ser..Serialize$u20$for$u20$$RF$T$GT$9serialize17hdaa3ab0918c635d1E', symObjAddr: 0x56C, symBinAddr: 0x4B6E4, symSize: 0x28 }
  - { offset: 0x130282, size: 0x8, addend: 0x0, symName: '__ZN10serde_core3ser5impls62_$LT$impl$u20$serde_core..ser..Serialize$u20$for$u20$$RF$T$GT$9serialize17he86b5165876af015E', symObjAddr: 0x594, symBinAddr: 0x4B70C, symSize: 0x28 }
  - { offset: 0x1302D7, size: 0x8, addend: 0x0, symName: '__ZN10serde_core3ser5impls62_$LT$impl$u20$serde_core..ser..Serialize$u20$for$u20$usize$GT$9serialize17h556aff37489f7f54E', symObjAddr: 0x5BC, symBinAddr: 0x4B734, symSize: 0x28 }
  - { offset: 0x13031A, size: 0x8, addend: 0x0, symName: '__ZN10serde_core3ser5impls62_$LT$impl$u20$serde_core..ser..Serialize$u20$for$u20$usize$GT$9serialize17h6a87ac05e60b22d9E', symObjAddr: 0x5E4, symBinAddr: 0x4B75C, symSize: 0x38 }
  - { offset: 0x130363, size: 0x8, addend: 0x0, symName: '__ZN10serde_core3ser5impls72_$LT$impl$u20$serde_core..ser..Serialize$u20$for$u20$$LP$T0$C$T1$RP$$GT$9serialize17h1b043ca92f877868E', symObjAddr: 0x61C, symBinAddr: 0x4B794, symSize: 0x170 }
  - { offset: 0x130E4B, size: 0x8, addend: 0x0, symName: __ZN9hashbrown3raw11TableLayout20calculate_layout_for17h375ff54b9625b398E, symObjAddr: 0x0, symBinAddr: 0x4B904, symSize: 0x220 }
  - { offset: 0x13248F, size: 0x8, addend: 0x0, symName: __ZN9hashbrown3raw19capacity_to_buckets17hb9e5523973749626E, symObjAddr: 0xF60, symBinAddr: 0x4C864, symSize: 0x2C8 }
  - { offset: 0x132AC4, size: 0x8, addend: 0x0, symName: __ZN9hashbrown3raw11TableLayout20calculate_layout_for17h375ff54b9625b398E, symObjAddr: 0x0, symBinAddr: 0x4B904, symSize: 0x220 }
  - { offset: 0x132FA2, size: 0x8, addend: 0x0, symName: __ZN9hashbrown3raw13RawTableInner15rehash_in_place17h320bef84c41829a0E, symObjAddr: 0x220, symBinAddr: 0x4BB24, symSize: 0x408 }
  - { offset: 0x133804, size: 0x8, addend: 0x0, symName: __ZN9hashbrown3raw13RawTableInner16fix_insert_index17hdaa685cf167519e7E, symObjAddr: 0x628, symBinAddr: 0x4BF2C, symSize: 0x100 }
  - { offset: 0x133A76, size: 0x8, addend: 0x0, symName: __ZN9hashbrown3raw13RawTableInner17find_insert_index17h0e3d37f1f5ed1373E, symObjAddr: 0x728, symBinAddr: 0x4C02C, symSize: 0xFC }
  - { offset: 0x133D7B, size: 0x8, addend: 0x0, symName: __ZN9hashbrown3raw13RawTableInner23prepare_rehash_in_place17h1549fccb2e4934adE, symObjAddr: 0x824, symBinAddr: 0x4C128, symSize: 0x204 }
  - { offset: 0x134371, size: 0x8, addend: 0x0, symName: __ZN9hashbrown3raw13RawTableInner26find_insert_index_in_group17hdc13de6214aaf924E, symObjAddr: 0xA28, symBinAddr: 0x4C32C, symSize: 0x120 }
  - { offset: 0x13462E, size: 0x8, addend: 0x0, symName: __ZN9hashbrown3raw13RawTableInner31find_or_find_insert_index_inner17h249c02709db0d31bE, symObjAddr: 0xB48, symBinAddr: 0x4C44C, symSize: 0x2A0 }
  - { offset: 0x134A50, size: 0x8, addend: 0x0, symName: __ZN9hashbrown3raw13RawTableInner5erase17h0e7ee755cde3d349E, symObjAddr: 0xDE8, symBinAddr: 0x4C6EC, symSize: 0x178 }
  - { offset: 0x134D60, size: 0x8, addend: 0x0, symName: '__ZN106_$LT$core..ops..range..Range$LT$usize$GT$$u20$as$u20$core..slice..index..SliceIndex$LT$$u5b$T$u5d$$GT$$GT$13get_unchecked18precondition_check17h1dae4f6ea662b7abE', symObjAddr: 0x0, symBinAddr: 0x4CB2C, symSize: 0x80 }
  - { offset: 0x134D86, size: 0x8, addend: 0x0, symName: '__ZN106_$LT$core..ops..range..Range$LT$usize$GT$$u20$as$u20$core..slice..index..SliceIndex$LT$$u5b$T$u5d$$GT$$GT$13get_unchecked18precondition_check17h1dae4f6ea662b7abE', symObjAddr: 0x0, symBinAddr: 0x4CB2C, symSize: 0x80 }
  - { offset: 0x134DED, size: 0x8, addend: 0x0, symName: '__ZN106_$LT$core..ops..range..Range$LT$usize$GT$$u20$as$u20$core..slice..index..SliceIndex$LT$$u5b$T$u5d$$GT$$GT$17get_unchecked_mut18precondition_check17he89f2d6f067fef92E', symObjAddr: 0x80, symBinAddr: 0x4CBAC, symSize: 0x80 }
  - { offset: 0x134E5A, size: 0x8, addend: 0x0, symName: '__ZN75_$LT$usize$u20$as$u20$core..slice..index..SliceIndex$LT$$u5b$T$u5d$$GT$$GT$13get_unchecked18precondition_check17h0acce94c602e5cfdE', symObjAddr: 0x100, symBinAddr: 0x4CC2C, symSize: 0x60 }
  - { offset: 0x134EB3, size: 0x8, addend: 0x0, symName: '__ZN75_$LT$usize$u20$as$u20$core..slice..index..SliceIndex$LT$$u5b$T$u5d$$GT$$GT$17get_unchecked_mut18precondition_check17h823ccad81d59a0b3E', symObjAddr: 0x160, symBinAddr: 0x4CC8C, symSize: 0x60 }
  - { offset: 0x134F5E, size: 0x8, addend: 0x0, symName: '__ZN3std2io5impls60_$LT$impl$u20$std..io..Read$u20$for$u20$$RF$$u5b$u8$u5d$$GT$4read17h851349b852abecf3E', symObjAddr: 0x0, symBinAddr: 0x4CCEC, symSize: 0x1CC }
  - { offset: 0x1351D1, size: 0x8, addend: 0x0, symName: '__ZN3std2io5impls60_$LT$impl$u20$std..io..Read$u20$for$u20$$RF$$u5b$u8$u5d$$GT$4read17h851349b852abecf3E', symObjAddr: 0x0, symBinAddr: 0x4CCEC, symSize: 0x1CC }
  - { offset: 0x1357DD, size: 0x8, addend: 0x0, symName: __ZN4core3cmp8Ordering5is_lt17hddc9eee24f27b5ffE, symObjAddr: 0x0, symBinAddr: 0x4CEB8, symSize: 0x1C }
  - { offset: 0x135843, size: 0x8, addend: 0x0, symName: '__ZN60_$LT$core..cmp..Ordering$u20$as$u20$core..cmp..PartialEq$GT$2eq17h7e8a8cb235dd1953E', symObjAddr: 0x78, symBinAddr: 0x4CF30, symSize: 0x2C }
  - { offset: 0x135891, size: 0x8, addend: 0x0, symName: __ZN4core3cmp8Ordering5is_lt17hddc9eee24f27b5ffE, symObjAddr: 0x0, symBinAddr: 0x4CEB8, symSize: 0x1C }
  - { offset: 0x1358B4, size: 0x8, addend: 0x0, symName: __ZN4core3cmp8Ordering7reverse17h1a1cf06530bf9218E, symObjAddr: 0x1C, symBinAddr: 0x4CED4, symSize: 0x5C }
  - { offset: 0x135902, size: 0x8, addend: 0x0, symName: '__ZN86_$LT$core..marker..PhantomData$LT$T$GT$$u20$as$u20$serde_core..de..DeserializeSeed$GT$11deserialize17h033637869f20ce1eE', symObjAddr: 0x0, symBinAddr: 0x4CF5C, symSize: 0x24 }
  - { offset: 0x135F34, size: 0x8, addend: 0x0, symName: '__ZN86_$LT$core..marker..PhantomData$LT$T$GT$$u20$as$u20$serde_core..de..DeserializeSeed$GT$11deserialize17h033637869f20ce1eE', symObjAddr: 0x0, symBinAddr: 0x4CF5C, symSize: 0x24 }
  - { offset: 0x135F8F, size: 0x8, addend: 0x0, symName: '__ZN86_$LT$core..marker..PhantomData$LT$T$GT$$u20$as$u20$serde_core..de..DeserializeSeed$GT$11deserialize17h05f66596e6a5839bE', symObjAddr: 0x24, symBinAddr: 0x4CF80, symSize: 0x34 }
  - { offset: 0x135FEB, size: 0x8, addend: 0x0, symName: '__ZN86_$LT$core..marker..PhantomData$LT$T$GT$$u20$as$u20$serde_core..de..DeserializeSeed$GT$11deserialize17h06e80f1c8f0e3c24E', symObjAddr: 0x58, symBinAddr: 0x4CFB4, symSize: 0x24 }
  - { offset: 0x136046, size: 0x8, addend: 0x0, symName: '__ZN86_$LT$core..marker..PhantomData$LT$T$GT$$u20$as$u20$serde_core..de..DeserializeSeed$GT$11deserialize17h0da47049d53d032bE', symObjAddr: 0x7C, symBinAddr: 0x4CFD8, symSize: 0x34 }
  - { offset: 0x1360A2, size: 0x8, addend: 0x0, symName: '__ZN86_$LT$core..marker..PhantomData$LT$T$GT$$u20$as$u20$serde_core..de..DeserializeSeed$GT$11deserialize17h1dc98e6e11971ee7E', symObjAddr: 0xB0, symBinAddr: 0x4D00C, symSize: 0x34 }
  - { offset: 0x1360FE, size: 0x8, addend: 0x0, symName: '__ZN86_$LT$core..marker..PhantomData$LT$T$GT$$u20$as$u20$serde_core..de..DeserializeSeed$GT$11deserialize17h29586a4d02a7f7ebE', symObjAddr: 0xE4, symBinAddr: 0x4D040, symSize: 0x34 }
  - { offset: 0x13615A, size: 0x8, addend: 0x0, symName: '__ZN86_$LT$core..marker..PhantomData$LT$T$GT$$u20$as$u20$serde_core..de..DeserializeSeed$GT$11deserialize17h4082a82106e61483E', symObjAddr: 0x118, symBinAddr: 0x4D074, symSize: 0x24 }
  - { offset: 0x1361B5, size: 0x8, addend: 0x0, symName: '__ZN86_$LT$core..marker..PhantomData$LT$T$GT$$u20$as$u20$serde_core..de..DeserializeSeed$GT$11deserialize17h42dd82ef31bb6ca1E', symObjAddr: 0x13C, symBinAddr: 0x4D098, symSize: 0x34 }
  - { offset: 0x136211, size: 0x8, addend: 0x0, symName: '__ZN86_$LT$core..marker..PhantomData$LT$T$GT$$u20$as$u20$serde_core..de..DeserializeSeed$GT$11deserialize17h46decc4c9a206d31E', symObjAddr: 0x170, symBinAddr: 0x4D0CC, symSize: 0x24 }
  - { offset: 0x13626C, size: 0x8, addend: 0x0, symName: '__ZN86_$LT$core..marker..PhantomData$LT$T$GT$$u20$as$u20$serde_core..de..DeserializeSeed$GT$11deserialize17h515669bed17f34f8E', symObjAddr: 0x194, symBinAddr: 0x4D0F0, symSize: 0x24 }
  - { offset: 0x1362C7, size: 0x8, addend: 0x0, symName: '__ZN86_$LT$core..marker..PhantomData$LT$T$GT$$u20$as$u20$serde_core..de..DeserializeSeed$GT$11deserialize17h56048abc6ae1d4a9E', symObjAddr: 0x1B8, symBinAddr: 0x4D114, symSize: 0x34 }
  - { offset: 0x136323, size: 0x8, addend: 0x0, symName: '__ZN86_$LT$core..marker..PhantomData$LT$T$GT$$u20$as$u20$serde_core..de..DeserializeSeed$GT$11deserialize17h5e718ed09c1e6e64E', symObjAddr: 0x1EC, symBinAddr: 0x4D148, symSize: 0x34 }
  - { offset: 0x13637F, size: 0x8, addend: 0x0, symName: '__ZN86_$LT$core..marker..PhantomData$LT$T$GT$$u20$as$u20$serde_core..de..DeserializeSeed$GT$11deserialize17h69a7958eea55235eE', symObjAddr: 0x220, symBinAddr: 0x4D17C, symSize: 0x24 }
  - { offset: 0x1363DA, size: 0x8, addend: 0x0, symName: '__ZN86_$LT$core..marker..PhantomData$LT$T$GT$$u20$as$u20$serde_core..de..DeserializeSeed$GT$11deserialize17h71cfcdaf446e6582E', symObjAddr: 0x244, symBinAddr: 0x4D1A0, symSize: 0x34 }
  - { offset: 0x136436, size: 0x8, addend: 0x0, symName: '__ZN86_$LT$core..marker..PhantomData$LT$T$GT$$u20$as$u20$serde_core..de..DeserializeSeed$GT$11deserialize17h786c967c816f91d8E', symObjAddr: 0x278, symBinAddr: 0x4D1D4, symSize: 0x34 }
  - { offset: 0x136492, size: 0x8, addend: 0x0, symName: '__ZN86_$LT$core..marker..PhantomData$LT$T$GT$$u20$as$u20$serde_core..de..DeserializeSeed$GT$11deserialize17h823200bf29fb01b6E', symObjAddr: 0x2AC, symBinAddr: 0x4D208, symSize: 0x34 }
  - { offset: 0x1364EE, size: 0x8, addend: 0x0, symName: '__ZN86_$LT$core..marker..PhantomData$LT$T$GT$$u20$as$u20$serde_core..de..DeserializeSeed$GT$11deserialize17h83b954da2a292c8bE', symObjAddr: 0x2E0, symBinAddr: 0x4D23C, symSize: 0x34 }
  - { offset: 0x13654A, size: 0x8, addend: 0x0, symName: '__ZN86_$LT$core..marker..PhantomData$LT$T$GT$$u20$as$u20$serde_core..de..DeserializeSeed$GT$11deserialize17h8490d9b9d65fd95cE', symObjAddr: 0x314, symBinAddr: 0x4D270, symSize: 0x34 }
  - { offset: 0x1365A6, size: 0x8, addend: 0x0, symName: '__ZN86_$LT$core..marker..PhantomData$LT$T$GT$$u20$as$u20$serde_core..de..DeserializeSeed$GT$11deserialize17h85a2e31293e25673E', symObjAddr: 0x348, symBinAddr: 0x4D2A4, symSize: 0x34 }
  - { offset: 0x136602, size: 0x8, addend: 0x0, symName: '__ZN86_$LT$core..marker..PhantomData$LT$T$GT$$u20$as$u20$serde_core..de..DeserializeSeed$GT$11deserialize17h85cbb0f162cbcb39E', symObjAddr: 0x37C, symBinAddr: 0x4D2D8, symSize: 0x24 }
  - { offset: 0x13665D, size: 0x8, addend: 0x0, symName: '__ZN86_$LT$core..marker..PhantomData$LT$T$GT$$u20$as$u20$serde_core..de..DeserializeSeed$GT$11deserialize17h863ef135b035c229E', symObjAddr: 0x3A0, symBinAddr: 0x4D2FC, symSize: 0x34 }
  - { offset: 0x1366B9, size: 0x8, addend: 0x0, symName: '__ZN86_$LT$core..marker..PhantomData$LT$T$GT$$u20$as$u20$serde_core..de..DeserializeSeed$GT$11deserialize17h908abcb5aad839c9E', symObjAddr: 0x3D4, symBinAddr: 0x4D330, symSize: 0x34 }
  - { offset: 0x136715, size: 0x8, addend: 0x0, symName: '__ZN86_$LT$core..marker..PhantomData$LT$T$GT$$u20$as$u20$serde_core..de..DeserializeSeed$GT$11deserialize17h95603693d24f00cdE', symObjAddr: 0x408, symBinAddr: 0x4D364, symSize: 0x34 }
  - { offset: 0x136771, size: 0x8, addend: 0x0, symName: '__ZN86_$LT$core..marker..PhantomData$LT$T$GT$$u20$as$u20$serde_core..de..DeserializeSeed$GT$11deserialize17h9bb9fb929e983fabE', symObjAddr: 0x43C, symBinAddr: 0x4D398, symSize: 0x24 }
  - { offset: 0x1367CC, size: 0x8, addend: 0x0, symName: '__ZN86_$LT$core..marker..PhantomData$LT$T$GT$$u20$as$u20$serde_core..de..DeserializeSeed$GT$11deserialize17ha968756fbc1e32ffE', symObjAddr: 0x460, symBinAddr: 0x4D3BC, symSize: 0x24 }
  - { offset: 0x136827, size: 0x8, addend: 0x0, symName: '__ZN86_$LT$core..marker..PhantomData$LT$T$GT$$u20$as$u20$serde_core..de..DeserializeSeed$GT$11deserialize17haaca1fa332221da0E', symObjAddr: 0x484, symBinAddr: 0x4D3E0, symSize: 0x24 }
  - { offset: 0x136882, size: 0x8, addend: 0x0, symName: '__ZN86_$LT$core..marker..PhantomData$LT$T$GT$$u20$as$u20$serde_core..de..DeserializeSeed$GT$11deserialize17haeacbd69dc514e1fE', symObjAddr: 0x4A8, symBinAddr: 0x4D404, symSize: 0x34 }
  - { offset: 0x1368DE, size: 0x8, addend: 0x0, symName: '__ZN86_$LT$core..marker..PhantomData$LT$T$GT$$u20$as$u20$serde_core..de..DeserializeSeed$GT$11deserialize17hb4022ce56f1e74f5E', symObjAddr: 0x4DC, symBinAddr: 0x4D438, symSize: 0x34 }
  - { offset: 0x13693A, size: 0x8, addend: 0x0, symName: '__ZN86_$LT$core..marker..PhantomData$LT$T$GT$$u20$as$u20$serde_core..de..DeserializeSeed$GT$11deserialize17hbea5bec8301d0c59E', symObjAddr: 0x510, symBinAddr: 0x4D46C, symSize: 0x24 }
  - { offset: 0x136995, size: 0x8, addend: 0x0, symName: '__ZN86_$LT$core..marker..PhantomData$LT$T$GT$$u20$as$u20$serde_core..de..DeserializeSeed$GT$11deserialize17hc290780e077e69a7E', symObjAddr: 0x534, symBinAddr: 0x4D490, symSize: 0x24 }
  - { offset: 0x1369F0, size: 0x8, addend: 0x0, symName: '__ZN86_$LT$core..marker..PhantomData$LT$T$GT$$u20$as$u20$serde_core..de..DeserializeSeed$GT$11deserialize17hc318705fcb21b39cE', symObjAddr: 0x558, symBinAddr: 0x4D4B4, symSize: 0x24 }
  - { offset: 0x136A4B, size: 0x8, addend: 0x0, symName: '__ZN86_$LT$core..marker..PhantomData$LT$T$GT$$u20$as$u20$serde_core..de..DeserializeSeed$GT$11deserialize17hc8be5e5a9a77f314E', symObjAddr: 0x57C, symBinAddr: 0x4D4D8, symSize: 0x34 }
  - { offset: 0x136AA7, size: 0x8, addend: 0x0, symName: '__ZN86_$LT$core..marker..PhantomData$LT$T$GT$$u20$as$u20$serde_core..de..DeserializeSeed$GT$11deserialize17hc9e087ac57778714E', symObjAddr: 0x5B0, symBinAddr: 0x4D50C, symSize: 0x24 }
  - { offset: 0x136B02, size: 0x8, addend: 0x0, symName: '__ZN86_$LT$core..marker..PhantomData$LT$T$GT$$u20$as$u20$serde_core..de..DeserializeSeed$GT$11deserialize17hd7d42eaceb053fc9E', symObjAddr: 0x5D4, symBinAddr: 0x4D530, symSize: 0x34 }
  - { offset: 0x136B5E, size: 0x8, addend: 0x0, symName: '__ZN86_$LT$core..marker..PhantomData$LT$T$GT$$u20$as$u20$serde_core..de..DeserializeSeed$GT$11deserialize17hd8ce80bdcc06cd7fE', symObjAddr: 0x608, symBinAddr: 0x4D564, symSize: 0x34 }
  - { offset: 0x136BBA, size: 0x8, addend: 0x0, symName: '__ZN86_$LT$core..marker..PhantomData$LT$T$GT$$u20$as$u20$serde_core..de..DeserializeSeed$GT$11deserialize17hdfd628619b821ab9E', symObjAddr: 0x63C, symBinAddr: 0x4D598, symSize: 0x34 }
  - { offset: 0x136C16, size: 0x8, addend: 0x0, symName: '__ZN86_$LT$core..marker..PhantomData$LT$T$GT$$u20$as$u20$serde_core..de..DeserializeSeed$GT$11deserialize17he0de8463f9680794E', symObjAddr: 0x670, symBinAddr: 0x4D5CC, symSize: 0x34 }
  - { offset: 0x136C72, size: 0x8, addend: 0x0, symName: '__ZN86_$LT$core..marker..PhantomData$LT$T$GT$$u20$as$u20$serde_core..de..DeserializeSeed$GT$11deserialize17he454b336bd6bff6eE', symObjAddr: 0x6A4, symBinAddr: 0x4D600, symSize: 0x34 }
  - { offset: 0x136CCE, size: 0x8, addend: 0x0, symName: '__ZN86_$LT$core..marker..PhantomData$LT$T$GT$$u20$as$u20$serde_core..de..DeserializeSeed$GT$11deserialize17he798c4819bcd259dE', symObjAddr: 0x6D8, symBinAddr: 0x4D634, symSize: 0x34 }
  - { offset: 0x136D2A, size: 0x8, addend: 0x0, symName: '__ZN86_$LT$core..marker..PhantomData$LT$T$GT$$u20$as$u20$serde_core..de..DeserializeSeed$GT$11deserialize17he98661e366554efeE', symObjAddr: 0x70C, symBinAddr: 0x4D668, symSize: 0x24 }
  - { offset: 0x136D85, size: 0x8, addend: 0x0, symName: '__ZN86_$LT$core..marker..PhantomData$LT$T$GT$$u20$as$u20$serde_core..de..DeserializeSeed$GT$11deserialize17heb6c5026aefd7b92E', symObjAddr: 0x730, symBinAddr: 0x4D68C, symSize: 0x34 }
  - { offset: 0x136DE1, size: 0x8, addend: 0x0, symName: '__ZN86_$LT$core..marker..PhantomData$LT$T$GT$$u20$as$u20$serde_core..de..DeserializeSeed$GT$11deserialize17hfba5824702f04fa0E', symObjAddr: 0x764, symBinAddr: 0x4D6C0, symSize: 0x24 }
  - { offset: 0x138F19, size: 0x8, addend: 0x0, symName: '__ZN4core3ops8function5impls79_$LT$impl$u20$core..ops..function..FnMut$LT$A$GT$$u20$for$u20$$RF$mut$u20$F$GT$8call_mut17h8491fd0e48bc7999E', symObjAddr: 0x0, symBinAddr: 0x4D6E4, symSize: 0x30 }
  - { offset: 0x138F3F, size: 0x8, addend: 0x0, symName: '__ZN4core3ops8function5impls79_$LT$impl$u20$core..ops..function..FnMut$LT$A$GT$$u20$for$u20$$RF$mut$u20$F$GT$8call_mut17h8491fd0e48bc7999E', symObjAddr: 0x0, symBinAddr: 0x4D6E4, symSize: 0x30 }
  - { offset: 0x138F8E, size: 0x8, addend: 0x0, symName: '__ZN4core3ops8function5impls79_$LT$impl$u20$core..ops..function..FnMut$LT$A$GT$$u20$for$u20$$RF$mut$u20$F$GT$8call_mut17hecfaba11a5fefcffE', symObjAddr: 0x30, symBinAddr: 0x4D714, symSize: 0x30 }
  - { offset: 0x138FDD, size: 0x8, addend: 0x0, symName: '__ZN4core3ops8function5impls79_$LT$impl$u20$core..ops..function..FnMut$LT$A$GT$$u20$for$u20$$RF$mut$u20$F$GT$8call_mut17hf9504c5a7c027743E', symObjAddr: 0x60, symBinAddr: 0x4D744, symSize: 0x30 }
  - { offset: 0x13902C, size: 0x8, addend: 0x0, symName: '__ZN4core3ops8function5impls79_$LT$impl$u20$core..ops..function..FnMut$LT$A$GT$$u20$for$u20$$RF$mut$u20$F$GT$8call_mut17hfdd80b965d36c37dE', symObjAddr: 0x90, symBinAddr: 0x4D774, symSize: 0x30 }
  - { offset: 0x139094, size: 0x8, addend: 0x0, symName: '__ZN7sekejap10text_index5query13ilike_matches28_$u7b$$u7b$closure$u7d$$u7d$17h6edcb3578c3c1ba6E', symObjAddr: 0xC0, symBinAddr: 0x4D7A4, symSize: 0x28 }
  - { offset: 0x1390E3, size: 0x8, addend: 0x0, symName: '__ZN7sekejap10text_index5query13ilike_matches28_$u7b$$u7b$closure$u7d$$u7d$17h75eb60410ecddaa6E', symObjAddr: 0xE8, symBinAddr: 0x4D7CC, symSize: 0x34 }
  - { offset: 0x139119, size: 0x8, addend: 0x0, symName: '__ZN7sekejap10text_index5query13ilike_matches28_$u7b$$u7b$closure$u7d$$u7d$17hb63076540678f39cE', symObjAddr: 0x11C, symBinAddr: 0x4D800, symSize: 0x34 }
  - { offset: 0x13914F, size: 0x8, addend: 0x0, symName: '__ZN7sekejap10text_index5query13ilike_matches28_$u7b$$u7b$closure$u7d$$u7d$17hc5ff680ad474d5e3E', symObjAddr: 0x150, symBinAddr: 0x4D834, symSize: 0x28 }
  - { offset: 0x13919E, size: 0x8, addend: 0x0, symName: '__ZN7sekejap10text_index5query13ilike_matches28_$u7b$$u7b$closure$u7d$$u7d$17hea9e259eb28a9370E', symObjAddr: 0x178, symBinAddr: 0x4D85C, symSize: 0x34 }
  - { offset: 0x1391D4, size: 0x8, addend: 0x0, symName: '__ZN7sekejap10text_index5query13ilike_matches28_$u7b$$u7b$closure$u7d$$u7d$17hf2143fc337aa9fb7E', symObjAddr: 0x1AC, symBinAddr: 0x4D890, symSize: 0x34 }
  - { offset: 0x139372, size: 0x8, addend: 0x0, symName: '__ZN154_$LT$sekejap.._..$LT$impl$u20$serde_core..de..Deserialize$u20$for$u20$sekejap..SnapEdge$GT$..deserialize..__Visitor$u20$as$u20$serde_core..de..Visitor$GT$9expecting17h6a7824384f8f1e9dE', symObjAddr: 0x0, symBinAddr: 0x4D8C4, symSize: 0x40 }
  - { offset: 0x13E1B3, size: 0x8, addend: 0x0, symName: '__ZN154_$LT$sekejap.._..$LT$impl$u20$serde_core..de..Deserialize$u20$for$u20$sekejap..SnapEdge$GT$..deserialize..__Visitor$u20$as$u20$serde_core..de..Visitor$GT$9expecting17h6a7824384f8f1e9dE', symObjAddr: 0x0, symBinAddr: 0x4D8C4, symSize: 0x40 }
  - { offset: 0x13E1F0, size: 0x8, addend: 0x0, symName: '__ZN154_$LT$sekejap.._..$LT$impl$u20$serde_core..de..Deserialize$u20$for$u20$sekejap..SnapHnsw$GT$..deserialize..__Visitor$u20$as$u20$serde_core..de..Visitor$GT$9expecting17hbdc392d8437a203dE', symObjAddr: 0x40, symBinAddr: 0x4D904, symSize: 0x40 }
  - { offset: 0x13E22D, size: 0x8, addend: 0x0, symName: '__ZN154_$LT$sekejap.._..$LT$impl$u20$serde_core..de..Deserialize$u20$for$u20$sekejap..SnapNode$GT$..deserialize..__Visitor$u20$as$u20$serde_core..de..Visitor$GT$9expecting17h27d3e49a03d1e2f2E', symObjAddr: 0x80, symBinAddr: 0x4D944, symSize: 0x40 }
  - { offset: 0x13E26A, size: 0x8, addend: 0x0, symName: '__ZN154_$LT$sekejap.._..$LT$impl$u20$serde_core..de..Deserialize$u20$for$u20$sekejap..Snapshot$GT$..deserialize..__Visitor$u20$as$u20$serde_core..de..Visitor$GT$9expecting17h61ce3c9aa5ac5bffE', symObjAddr: 0xC0, symBinAddr: 0x4D984, symSize: 0x40 }
  - { offset: 0x13E2A7, size: 0x8, addend: 0x0, symName: '__ZN156_$LT$sekejap.._..$LT$impl$u20$serde_core..de..Deserialize$u20$for$u20$sekejap..SnapVector$GT$..deserialize..__Visitor$u20$as$u20$serde_core..de..Visitor$GT$9expecting17h66b42187fdf276ffE', symObjAddr: 0x100, symBinAddr: 0x4D9C4, symSize: 0x40 }
  - { offset: 0x13E392, size: 0x8, addend: 0x0, symName: '__ZN50_$LT$sekejap..OrdF64$u20$as$u20$core..cmp..Ord$GT$3cmp17hd9f3026460a64756E', symObjAddr: 0x280, symBinAddr: 0x4DA04, symSize: 0x2C }
  - { offset: 0x13E3D2, size: 0x8, addend: 0x0, symName: '__ZN52_$LT$sekejap..FieldKey$u20$as$u20$core..cmp..Ord$GT$3cmp17h15b2e3f32bd6e78aE', symObjAddr: 0x2AC, symBinAddr: 0x4DA30, symSize: 0x1F0 }
  - { offset: 0x13E4DE, size: 0x8, addend: 0x0, symName: '__ZN56_$LT$sekejap..OrdF64$u20$as$u20$core..cmp..PartialEq$GT$2eq17h88bff284e6e10ddbE', symObjAddr: 0x49C, symBinAddr: 0x4DC20, symSize: 0x2C }
  - { offset: 0x13E51E, size: 0x8, addend: 0x0, symName: '__ZN57_$LT$sekejap..OrdF64$u20$as$u20$core..cmp..PartialOrd$GT$11partial_cmp17h0e845265a5d29c17E', symObjAddr: 0x4C8, symBinAddr: 0x4DC4C, symSize: 0x2C }
  - { offset: 0x13E55E, size: 0x8, addend: 0x0, symName: '__ZN58_$LT$sekejap..FieldKey$u20$as$u20$core..cmp..PartialEq$GT$2eq17h2504f70a1c62f51cE', symObjAddr: 0x508, symBinAddr: 0x4DC78, symSize: 0x1E0 }
  - { offset: 0x13E64C, size: 0x8, addend: 0x0, symName: '__ZN59_$LT$sekejap..FieldKey$u20$as$u20$core..cmp..PartialOrd$GT$11partial_cmp17hcaeb3b44cee9a412E', symObjAddr: 0x6E8, symBinAddr: 0x4DE58, symSize: 0x1C4 }
  - { offset: 0x13F9B6, size: 0x8, addend: 0x0, symName: __ZN7sekejap14default_hnsw_m17hadbd01ffc1296b42E, symObjAddr: 0x1A5C, symBinAddr: 0x4E01C, symSize: 0xC }
  - { offset: 0x13F9D4, size: 0x8, addend: 0x0, symName: __ZN7sekejap15default_hnsw_ef17h3d08171ba18d11f8E, symObjAddr: 0x1A68, symBinAddr: 0x4E028, symSize: 0xC }
  - { offset: 0x13F9F2, size: 0x8, addend: 0x0, symName: __ZN7sekejap16value_as_f32_vec17h2ad14f2dca198282E, symObjAddr: 0x1A74, symBinAddr: 0x4E034, symSize: 0x98 }
  - { offset: 0x13FA5C, size: 0x8, addend: 0x0, symName: __ZN7sekejap18field_type_matches17hb660a10b98174491E, symObjAddr: 0x1B0C, symBinAddr: 0x4E0CC, symSize: 0x160 }
  - { offset: 0x13FA99, size: 0x8, addend: 0x0, symName: __ZN7sekejap21extract_string_fields17hcef897f4696cc23aE, symObjAddr: 0x1C6C, symBinAddr: 0x4E22C, symSize: 0x3E0 }
  - { offset: 0x13FCCB, size: 0x8, addend: 0x0, symName: __ZN7sekejap22is_filter_or_traversal17h511359730794e649E, symObjAddr: 0x204C, symBinAddr: 0x4E60C, symSize: 0x5C }
  - { offset: 0x13FCF9, size: 0x8, addend: 0x0, symName: __ZN7sekejap31validate_payload_against_schema17h2ce317fbef7ed431E, symObjAddr: 0x20A8, symBinAddr: 0x4E668, symSize: 0x1D8 }
  - { offset: 0x13FE0A, size: 0x8, addend: 0x0, symName: __ZN7sekejap31validate_updates_against_schema17hadf8aa4331c77f1bE, symObjAddr: 0x2280, symBinAddr: 0x4E840, symSize: 0x1C4 }
  - { offset: 0x140B83, size: 0x8, addend: 0x0, symName: __ZN7sekejap7sk_hash17hea7ba8c275190fb5E, symObjAddr: 0x15D2C, symBinAddr: 0x61218, symSize: 0x34 }
  - { offset: 0x144587, size: 0x8, addend: 0x0, symName: __ZN7sekejap6CoreDB10all_hashes17h34a4c15df4e15625E, symObjAddr: 0x2444, symBinAddr: 0x4EA04, symSize: 0x4C }
  - { offset: 0x144609, size: 0x8, addend: 0x0, symName: __ZN7sekejap6CoreDB10btree_seed17h691dc8fd80c07002E, symObjAddr: 0x2490, symBinAddr: 0x4EA50, symSize: 0xA20 }
  - { offset: 0x1448CD, size: 0x8, addend: 0x0, symName: __ZN7sekejap6CoreDB10edge_count17h4749794a0f2efcebE, symObjAddr: 0x2F10, symBinAddr: 0x4F470, symSize: 0x44 }
  - { offset: 0x144924, size: 0x8, addend: 0x0, symName: __ZN7sekejap6CoreDB10hnsw_index17hea1e60280c7b3cb7E, symObjAddr: 0x30A8, symBinAddr: 0x4F4B4, symSize: 0x30 }
  - { offset: 0x144956, size: 0x8, addend: 0x0, symName: __ZN7sekejap6CoreDB10node_count17hfdadc766b3fa3d5aE, symObjAddr: 0x30D8, symBinAddr: 0x4F4E4, symSize: 0x24 }
  - { offset: 0x144979, size: 0x8, addend: 0x0, symName: __ZN7sekejap6CoreDB10path_query17h81be5568b4d1d603E, symObjAddr: 0x30FC, symBinAddr: 0x4F508, symSize: 0x1F0 }
  - { offset: 0x144A32, size: 0x8, addend: 0x0, symName: __ZN7sekejap6CoreDB10put_vector17h01d9981a0df4b280E, symObjAddr: 0x32EC, symBinAddr: 0x4F6F8, symSize: 0x25C }
  - { offset: 0x144AF0, size: 0x8, addend: 0x0, symName: __ZN7sekejap6CoreDB10remove_raw17haf7f8c3099e7f590E, symObjAddr: 0x3548, symBinAddr: 0x4F954, symSize: 0x720 }
  - { offset: 0x144D1E, size: 0x8, addend: 0x0, symName: __ZN7sekejap6CoreDB10schema_ddl17h56ef2f2801731040E, symObjAddr: 0x3C68, symBinAddr: 0x50074, symSize: 0x248 }
  - { offset: 0x144E10, size: 0x8, addend: 0x0, symName: __ZN7sekejap6CoreDB10unlink_raw17hc9531725c6b57e6dE, symObjAddr: 0x3EB0, symBinAddr: 0x502BC, symSize: 0x114 }
  - { offset: 0x144F2C, size: 0x8, addend: 0x0, symName: __ZN7sekejap6CoreDB11apply_index17h6f5b055b96fea7ecE, symObjAddr: 0x3FC4, symBinAddr: 0x503D0, symSize: 0x438 }
  - { offset: 0x1450F5, size: 0x8, addend: 0x0, symName: __ZN7sekejap6CoreDB11edge_schema17h184844c98ba80b39E, symObjAddr: 0x4480, symBinAddr: 0x50808, symSize: 0x53C }
  - { offset: 0x1452BC, size: 0x8, addend: 0x0, symName: __ZN7sekejap6CoreDB12spatial_grid17h648bd97ad1c006d7E, symObjAddr: 0x4BB4, symBinAddr: 0x50D44, symSize: 0x24 }
  - { offset: 0x1452EC, size: 0x8, addend: 0x0, symName: __ZN7sekejap6CoreDB12vector_field17ha30e02220a72d498E, symObjAddr: 0x4BD8, symBinAddr: 0x50D68, symSize: 0x30 }
  - { offset: 0x14531E, size: 0x8, addend: 0x0, symName: __ZN7sekejap6CoreDB13link_meta_raw17h0be24f8be07eb60dE, symObjAddr: 0x4CB8, symBinAddr: 0x50D98, symSize: 0x2F0 }
  - { offset: 0x145440, size: 0x8, addend: 0x0, symName: __ZN7sekejap6CoreDB13load_snapshot17h606cf644fa663243E, symObjAddr: 0x4FA8, symBinAddr: 0x51088, symSize: 0x1098 }
  - { offset: 0x1456E3, size: 0x8, addend: 0x0, symName: __ZN7sekejap6CoreDB14build_snapshot17h1e7692c72c115895E, symObjAddr: 0x6040, symBinAddr: 0x52120, symSize: 0x938 }
  - { offset: 0x1458E2, size: 0x8, addend: 0x0, symName: __ZN7sekejap6CoreDB14drop_index_raw17h69d52f8f003ce5f3E, symObjAddr: 0x6978, symBinAddr: 0x52A58, symSize: 0x324 }
  - { offset: 0x1459B5, size: 0x8, addend: 0x0, symName: __ZN7sekejap6CoreDB14drop_table_raw17hefde1e1aab55d5c6E, symObjAddr: 0x6C9C, symBinAddr: 0x52D7C, symSize: 0x288 }
  - { offset: 0x145A70, size: 0x8, addend: 0x0, symName: __ZN7sekejap6CoreDB14pipeline_query17h4564faa790803724E, symObjAddr: 0x6F24, symBinAddr: 0x53004, symSize: 0x170 }
  - { offset: 0x145B66, size: 0x8, addend: 0x0, symName: __ZN7sekejap6CoreDB15alter_table_raw17h9348273f33e4a580E, symObjAddr: 0x7094, symBinAddr: 0x53174, symSize: 0x23A0 }
  - { offset: 0x14635F, size: 0x8, addend: 0x0, symName: __ZN7sekejap6CoreDB15build_gin_index17hd7525ab29b27acd6E, symObjAddr: 0x9434, symBinAddr: 0x55514, symSize: 0x1E4 }
  - { offset: 0x1463C0, size: 0x8, addend: 0x0, symName: __ZN7sekejap6CoreDB16build_bm25_index17ha8f736a5f2083195E, symObjAddr: 0x984C, symBinAddr: 0x556F8, symSize: 0x1E4 }
  - { offset: 0x146421, size: 0x8, addend: 0x0, symName: __ZN7sekejap6CoreDB16build_hnsw_index17h71828026db6befcfE, symObjAddr: 0x9A30, symBinAddr: 0x558DC, symSize: 0x1D0 }
  - { offset: 0x1464C2, size: 0x8, addend: 0x0, symName: __ZN7sekejap6CoreDB16collection_names17hc6311c005131fd51E, symObjAddr: 0x9C00, symBinAddr: 0x55AAC, symSize: 0x1CC }
  - { offset: 0x14653F, size: 0x8, addend: 0x0, symName: __ZN7sekejap6CoreDB17bfs_shortest_path17h0d66340d743f2e7aE, symObjAddr: 0x9E30, symBinAddr: 0x55C78, symSize: 0x7C8 }
  - { offset: 0x1466D8, size: 0x8, addend: 0x0, symName: __ZN7sekejap6CoreDB17build_field_index17ha9f4d8c01cb9a487E, symObjAddr: 0xA5F8, symBinAddr: 0x56440, symSize: 0x33C }
  - { offset: 0x1467D1, size: 0x8, addend: 0x0, symName: __ZN7sekejap6CoreDB18collection_members17hf353d77c5ba71ecbE, symObjAddr: 0xA994, symBinAddr: 0x5677C, symSize: 0x30 }
  - { offset: 0x146803, size: 0x8, addend: 0x0, symName: __ZN7sekejap6CoreDB20rebuild_spatial_grid17h7b2e2769bc189e36E, symObjAddr: 0xA9E8, symBinAddr: 0x567AC, symSize: 0xDC }
  - { offset: 0x14683D, size: 0x8, addend: 0x0, symName: __ZN7sekejap6CoreDB20rebuild_text_indexes17h0752790e7d244de4E, symObjAddr: 0xAAC4, symBinAddr: 0x56888, symSize: 0x43C }
  - { offset: 0x146941, size: 0x8, addend: 0x0, symName: __ZN7sekejap6CoreDB20record_index_version17h795bf80d56cd4cb7E, symObjAddr: 0xAF00, symBinAddr: 0x56CC4, symSize: 0x314 }
  - { offset: 0x146A34, size: 0x8, addend: 0x0, symName: __ZN7sekejap6CoreDB25rebuild_gin_for_remaining17hd46a81501e20ce79E, symObjAddr: 0xB630, symBinAddr: 0x56FD8, symSize: 0x310 }
  - { offset: 0x146AC4, size: 0x8, addend: 0x0, symName: __ZN7sekejap6CoreDB26edge_types_from_collection17h65d180be3fff8fc3E, symObjAddr: 0xB940, symBinAddr: 0x572E8, symSize: 0x348 }
  - { offset: 0x146BFA, size: 0x8, addend: 0x0, symName: __ZN7sekejap6CoreDB26rebuild_bm25_for_remaining17hc6709b50a57a2fcdE, symObjAddr: 0xBC88, symBinAddr: 0x57630, symSize: 0x318 }
  - { offset: 0x146C8A, size: 0x8, addend: 0x0, symName: __ZN7sekejap6CoreDB26rebuild_hnsw_for_remaining17h7e82c4b168453b7fE, symObjAddr: 0xBFA0, symBinAddr: 0x57948, symSize: 0x358 }
  - { offset: 0x146D2E, size: 0x8, addend: 0x0, symName: __ZN7sekejap6CoreDB28btree_sorted_seed_from_steps17h513b2620c9236eb5E, symObjAddr: 0xC2F8, symBinAddr: 0x57CA0, symSize: 0x440 }
  - { offset: 0x146F5D, size: 0x8, addend: 0x0, symName: __ZN7sekejap6CoreDB28rebuild_declared_gin_indexes17h7681561fe12f553cE, symObjAddr: 0xC738, symBinAddr: 0x580E0, symSize: 0x198 }
  - { offset: 0x146FDC, size: 0x8, addend: 0x0, symName: __ZN7sekejap6CoreDB29rebuild_declared_hnsw_indexes17h7a8d90f026d20c51E, symObjAddr: 0xC8D0, symBinAddr: 0x58278, symSize: 0x1CC }
  - { offset: 0x14707B, size: 0x8, addend: 0x0, symName: __ZN7sekejap6CoreDB32text_index_candidates_with_limit17h469555c1ac2fa80eE, symObjAddr: 0xCA9C, symBinAddr: 0x58444, symSize: 0x78 }
  - { offset: 0x1470CB, size: 0x8, addend: 0x0, symName: __ZN7sekejap6CoreDB3get17hb7a930e3804c63ffE, symObjAddr: 0xCB44, symBinAddr: 0x584BC, symSize: 0x60 }
  - { offset: 0x1470FD, size: 0x8, addend: 0x0, symName: __ZN7sekejap6CoreDB3new17h5654408f1242ccd0E, symObjAddr: 0xCBA4, symBinAddr: 0x5851C, symSize: 0x3CC }
  - { offset: 0x147110, size: 0x8, addend: 0x0, symName: __ZN7sekejap6CoreDB3put17h39d8b9eb03042583E, symObjAddr: 0xCFCC, symBinAddr: 0x588E8, symSize: 0x5B8 }
  - { offset: 0x14727F, size: 0x8, addend: 0x0, symName: __ZN7sekejap6CoreDB4link17h1f74c2df66c9f0f2E, symObjAddr: 0xD584, symBinAddr: 0x58EA0, symSize: 0x140 }
  - { offset: 0x1472E1, size: 0x8, addend: 0x0, symName: __ZN7sekejap6CoreDB4show17h349052ed08c4bda2E, symObjAddr: 0xD6C4, symBinAddr: 0x58FE0, symSize: 0x1F50 }
  - { offset: 0x1479BF, size: 0x8, addend: 0x0, symName: __ZN7sekejap6CoreDB5query17h99427bb29ab82b96E, symObjAddr: 0xF8E4, symBinAddr: 0x5AF30, symSize: 0x1D8 }
  - { offset: 0x147A6F, size: 0x8, addend: 0x0, symName: __ZN7sekejap6CoreDB6remove17hbfd962b0968cad12E, symObjAddr: 0xFABC, symBinAddr: 0x5B108, symSize: 0x70 }
  - { offset: 0x147AA1, size: 0x8, addend: 0x0, symName: __ZN7sekejap6CoreDB6replay17he60d3c9e3fbc5a4bE, symObjAddr: 0xFB2C, symBinAddr: 0x5B178, symSize: 0x10CC }
  - { offset: 0x147D7A, size: 0x8, addend: 0x0, symName: __ZN7sekejap6CoreDB6unlink17hfb97acbd496758c5E, symObjAddr: 0x10BF8, symBinAddr: 0x5C244, symSize: 0x130 }
  - { offset: 0x147DCC, size: 0x8, addend: 0x0, symName: __ZN7sekejap6CoreDB7compact17hc8a298bf6a63d8eeE, symObjAddr: 0x10D28, symBinAddr: 0x5C374, symSize: 0x6E0 }
  - { offset: 0x147F3C, size: 0x8, addend: 0x0, symName: __ZN7sekejap6CoreDB7execute17h28c8fdb77b6db3cdE, symObjAddr: 0x11408, symBinAddr: 0x5CA54, symSize: 0x353C }
  - { offset: 0x1488C6, size: 0x8, addend: 0x0, symName: __ZN7sekejap6CoreDB7put_raw17h44452b0acf4b13a5E, symObjAddr: 0x14944, symBinAddr: 0x5FF90, symSize: 0xCE0 }
  - { offset: 0x148C93, size: 0x8, addend: 0x0, symName: __ZN7sekejap6CoreDB8contains17hb3ac3d9ab6f5bf3aE, symObjAddr: 0x156F0, symBinAddr: 0x60C70, symSize: 0x54 }
  - { offset: 0x148CC5, size: 0x8, addend: 0x0, symName: __ZN7sekejap6CoreDB8link_raw17h0ec0b932ca09ead0E, symObjAddr: 0x157D8, symBinAddr: 0x60CC4, symSize: 0x1A4 }
  - { offset: 0x148D8E, size: 0x8, addend: 0x0, symName: __ZN7sekejap6CoreDB9fwd_edges17h39692fd5f39db243E, symObjAddr: 0x1597C, symBinAddr: 0x60E68, symSize: 0x30 }
  - { offset: 0x148DC0, size: 0x8, addend: 0x0, symName: __ZN7sekejap6CoreDB9gin_ilike17hd44e7fe725d8429fE, symObjAddr: 0x159AC, symBinAddr: 0x60E98, symSize: 0x88 }
  - { offset: 0x148E10, size: 0x8, addend: 0x0, symName: __ZN7sekejap6CoreDB9link_meta17h78ab5c07dd23a485E, symObjAddr: 0x15A34, symBinAddr: 0x60F20, symSize: 0x1E4 }
  - { offset: 0x148EAE, size: 0x8, addend: 0x0, symName: __ZN7sekejap6CoreDB9node_data17h31774daf52899491E, symObjAddr: 0x15C18, symBinAddr: 0x61104, symSize: 0x30 }
  - { offset: 0x148EE0, size: 0x8, addend: 0x0, symName: __ZN7sekejap6CoreDB9rev_edges17hc14b8169b9f62ed9E, symObjAddr: 0x15C48, symBinAddr: 0x61134, symSize: 0x30 }
  - { offset: 0x148F12, size: 0x8, addend: 0x0, symName: __ZN7sekejap6CoreDB9wal_write17h23ecdf8ba0d53977E, symObjAddr: 0x15C78, symBinAddr: 0x61164, symSize: 0xB4 }
  - { offset: 0x148F5B, size: 0x8, addend: 0x0, symName: __ZN7sekejap8FieldKey8from_f6417hfb8d625223cece6cE, symObjAddr: 0x15D60, symBinAddr: 0x6124C, symSize: 0x24 }
  - { offset: 0x148F8A, size: 0x8, addend: 0x0, symName: __ZN7sekejap8FieldKey9from_json17ha447937ea74fa43aE, symObjAddr: 0x15D84, symBinAddr: 0x61270, symSize: 0x130 }
  - { offset: 0x1499CD, size: 0x8, addend: 0x0, symName: '__ZN5alloc3str21_$LT$impl$u20$str$GT$18to_ascii_uppercase17h0ee4c228c4f9c3bdE', symObjAddr: 0x0, symBinAddr: 0x613A0, symSize: 0xE0 }
  - { offset: 0x149BF0, size: 0x8, addend: 0x0, symName: '__ZN5alloc3str56_$LT$impl$u20$alloc..borrow..ToOwned$u20$for$u20$str$GT$8to_owned17heb9cd0442de70b1dE', symObjAddr: 0xE0, symBinAddr: 0x61480, symSize: 0x50 }
  - { offset: 0x149CBD, size: 0x8, addend: 0x0, symName: '__ZN5alloc3str21_$LT$impl$u20$str$GT$18to_ascii_uppercase17h0ee4c228c4f9c3bdE', symObjAddr: 0x0, symBinAddr: 0x613A0, symSize: 0xE0 }
  - { offset: 0x14A385, size: 0x8, addend: 0x0, symName: '__ZN10serde_core3ser5impls86_$LT$impl$u20$serde_core..ser..Serialize$u20$for$u20$core..option..Option$LT$T$GT$$GT$9serialize17h35e301698908c38aE', symObjAddr: 0x0, symBinAddr: 0x614D0, symSize: 0x74 }
  - { offset: 0x14B662, size: 0x8, addend: 0x0, symName: '__ZN128_$LT$core..option..Option$LT$V$GT$$u20$as$u20$core..iter..traits..collect..FromIterator$LT$core..option..Option$LT$A$GT$$GT$$GT$9from_iter17h199c3f082a277147E', symObjAddr: 0x238, symBinAddr: 0x61708, symSize: 0x38 }
  - { offset: 0x14B6AB, size: 0x8, addend: 0x0, symName: '__ZN128_$LT$core..option..Option$LT$V$GT$$u20$as$u20$core..iter..traits..collect..FromIterator$LT$core..option..Option$LT$A$GT$$GT$$GT$9from_iter17hc946f6ecd13b4c7bE', symObjAddr: 0x270, symBinAddr: 0x61740, symSize: 0x38 }
  - { offset: 0x14B6F9, size: 0x8, addend: 0x0, symName: '__ZN128_$LT$core..option..Option$LT$V$GT$$u20$as$u20$core..iter..traits..collect..FromIterator$LT$core..option..Option$LT$A$GT$$GT$$GT$9from_iter28_$u7b$$u7b$closure$u7d$$u7d$17h6b5b450d38ac084dE', symObjAddr: 0x2A8, symBinAddr: 0x61778, symSize: 0x28 }
  - { offset: 0x14B76C, size: 0x8, addend: 0x0, symName: '__ZN128_$LT$core..option..Option$LT$V$GT$$u20$as$u20$core..iter..traits..collect..FromIterator$LT$core..option..Option$LT$A$GT$$GT$$GT$9from_iter28_$u7b$$u7b$closure$u7d$$u7d$17hc658aa774f3972dcE', symObjAddr: 0x2D0, symBinAddr: 0x617A0, symSize: 0x28 }
  - { offset: 0x14BA51, size: 0x8, addend: 0x0, symName: '__ZN145_$LT$core..option..Option$LT$T$GT$$u20$as$u20$core..ops..try_trait..FromResidual$LT$core..option..Option$LT$core..convert..Infallible$GT$$GT$$GT$13from_residual17h06da79d216562077E', symObjAddr: 0x2F8, symBinAddr: 0x617C8, symSize: 0x10 }
  - { offset: 0x14BA84, size: 0x8, addend: 0x0, symName: '__ZN145_$LT$core..option..Option$LT$T$GT$$u20$as$u20$core..ops..try_trait..FromResidual$LT$core..option..Option$LT$core..convert..Infallible$GT$$GT$$GT$13from_residual17h0a2ef9d2c24a0e25E', symObjAddr: 0x308, symBinAddr: 0x617D8, symSize: 0x18 }
  - { offset: 0x14BAB7, size: 0x8, addend: 0x0, symName: '__ZN145_$LT$core..option..Option$LT$T$GT$$u20$as$u20$core..ops..try_trait..FromResidual$LT$core..option..Option$LT$core..convert..Infallible$GT$$GT$$GT$13from_residual17h21b25fddde49c567E', symObjAddr: 0x320, symBinAddr: 0x617F0, symSize: 0x10 }
  - { offset: 0x14BAEA, size: 0x8, addend: 0x0, symName: '__ZN145_$LT$core..option..Option$LT$T$GT$$u20$as$u20$core..ops..try_trait..FromResidual$LT$core..option..Option$LT$core..convert..Infallible$GT$$GT$$GT$13from_residual17h4ba6c9e7b35df796E', symObjAddr: 0x330, symBinAddr: 0x61800, symSize: 0x18 }
  - { offset: 0x14BB1D, size: 0x8, addend: 0x0, symName: '__ZN145_$LT$core..option..Option$LT$T$GT$$u20$as$u20$core..ops..try_trait..FromResidual$LT$core..option..Option$LT$core..convert..Infallible$GT$$GT$$GT$13from_residual17h5637233f2df127f8E', symObjAddr: 0x348, symBinAddr: 0x61818, symSize: 0x18 }
  - { offset: 0x14BB50, size: 0x8, addend: 0x0, symName: '__ZN145_$LT$core..option..Option$LT$T$GT$$u20$as$u20$core..ops..try_trait..FromResidual$LT$core..option..Option$LT$core..convert..Infallible$GT$$GT$$GT$13from_residual17h5c393ee7d9c6996fE', symObjAddr: 0x360, symBinAddr: 0x61830, symSize: 0x18 }
  - { offset: 0x14BB83, size: 0x8, addend: 0x0, symName: '__ZN145_$LT$core..option..Option$LT$T$GT$$u20$as$u20$core..ops..try_trait..FromResidual$LT$core..option..Option$LT$core..convert..Infallible$GT$$GT$$GT$13from_residual17h5f6eaf65f5116254E', symObjAddr: 0x378, symBinAddr: 0x61848, symSize: 0x18 }
  - { offset: 0x14BBB6, size: 0x8, addend: 0x0, symName: '__ZN145_$LT$core..option..Option$LT$T$GT$$u20$as$u20$core..ops..try_trait..FromResidual$LT$core..option..Option$LT$core..convert..Infallible$GT$$GT$$GT$13from_residual17h6f5f32387de7903eE', symObjAddr: 0x390, symBinAddr: 0x61860, symSize: 0x10 }
  - { offset: 0x14BBE9, size: 0x8, addend: 0x0, symName: '__ZN145_$LT$core..option..Option$LT$T$GT$$u20$as$u20$core..ops..try_trait..FromResidual$LT$core..option..Option$LT$core..convert..Infallible$GT$$GT$$GT$13from_residual17h766bde86b4926ec4E', symObjAddr: 0x3A0, symBinAddr: 0x61870, symSize: 0x10 }
  - { offset: 0x14BC1C, size: 0x8, addend: 0x0, symName: '__ZN145_$LT$core..option..Option$LT$T$GT$$u20$as$u20$core..ops..try_trait..FromResidual$LT$core..option..Option$LT$core..convert..Infallible$GT$$GT$$GT$13from_residual17h7846d607819d00ceE', symObjAddr: 0x3B0, symBinAddr: 0x61880, symSize: 0x18 }
  - { offset: 0x14BC4F, size: 0x8, addend: 0x0, symName: '__ZN145_$LT$core..option..Option$LT$T$GT$$u20$as$u20$core..ops..try_trait..FromResidual$LT$core..option..Option$LT$core..convert..Infallible$GT$$GT$$GT$13from_residual17h8bacf16288394a9fE', symObjAddr: 0x3C8, symBinAddr: 0x61898, symSize: 0x18 }
  - { offset: 0x15293F, size: 0x8, addend: 0x0, symName: __ZN4core6option6Option4Some17h02e7189f8409c4e1E, symObjAddr: 0x8C34, symBinAddr: 0x696AC, symSize: 0x10 }
  - { offset: 0x152972, size: 0x8, addend: 0x0, symName: __ZN4core6option6Option4Some17h1ae30a94e425b038E, symObjAddr: 0x8C44, symBinAddr: 0x696BC, symSize: 0x10 }
  - { offset: 0x1529A5, size: 0x8, addend: 0x0, symName: __ZN4core6option6Option4Some17h1bd0dbbf49d04b81E, symObjAddr: 0x8C54, symBinAddr: 0x696CC, symSize: 0x10 }
  - { offset: 0x1529D8, size: 0x8, addend: 0x0, symName: __ZN4core6option6Option4Some17h2b099c1d02965b08E, symObjAddr: 0x8C64, symBinAddr: 0x696DC, symSize: 0x10 }
  - { offset: 0x152A0B, size: 0x8, addend: 0x0, symName: __ZN4core6option6Option4Some17h2fadeadc3c275b93E, symObjAddr: 0x8C74, symBinAddr: 0x696EC, symSize: 0x10 }
  - { offset: 0x152A3E, size: 0x8, addend: 0x0, symName: __ZN4core6option6Option4Some17h3014c01295b96bddE, symObjAddr: 0x8C84, symBinAddr: 0x696FC, symSize: 0x10 }
  - { offset: 0x152A71, size: 0x8, addend: 0x0, symName: __ZN4core6option6Option4Some17h31c6daa91ef64b43E, symObjAddr: 0x8C94, symBinAddr: 0x6970C, symSize: 0x18 }
  - { offset: 0x152AA4, size: 0x8, addend: 0x0, symName: __ZN4core6option6Option4Some17h39a2ef0ab16de8e7E, symObjAddr: 0x8CAC, symBinAddr: 0x69724, symSize: 0x10 }
  - { offset: 0x152AD7, size: 0x8, addend: 0x0, symName: __ZN4core6option6Option4Some17h3d7510639c7e1e39E, symObjAddr: 0x8CBC, symBinAddr: 0x69734, symSize: 0x18 }
  - { offset: 0x152B0A, size: 0x8, addend: 0x0, symName: __ZN4core6option6Option4Some17h50a74f9dcbcfeedaE, symObjAddr: 0x8CD4, symBinAddr: 0x6974C, symSize: 0x10 }
  - { offset: 0x152B3D, size: 0x8, addend: 0x0, symName: __ZN4core6option6Option4Some17h5dfbae4943d64ec4E, symObjAddr: 0x8CE4, symBinAddr: 0x6975C, symSize: 0x10 }
  - { offset: 0x152B70, size: 0x8, addend: 0x0, symName: __ZN4core6option6Option4Some17h6596dc3e9a7b9ea8E, symObjAddr: 0x8CF4, symBinAddr: 0x6976C, symSize: 0x14 }
  - { offset: 0x152BA3, size: 0x8, addend: 0x0, symName: __ZN4core6option6Option4Some17h6d25b85d1bd0d0e6E, symObjAddr: 0x8D08, symBinAddr: 0x69780, symSize: 0x10 }
  - { offset: 0x152BD6, size: 0x8, addend: 0x0, symName: __ZN4core6option6Option4Some17h73c76ba786b9497bE, symObjAddr: 0x8D18, symBinAddr: 0x69790, symSize: 0x10 }
  - { offset: 0x152C09, size: 0x8, addend: 0x0, symName: __ZN4core6option6Option4Some17h763843904cdbd392E, symObjAddr: 0x8D28, symBinAddr: 0x697A0, symSize: 0x10 }
  - { offset: 0x152C3C, size: 0x8, addend: 0x0, symName: __ZN4core6option6Option4Some17h7a8547ca1297d07dE, symObjAddr: 0x8D38, symBinAddr: 0x697B0, symSize: 0x10 }
  - { offset: 0x152C6F, size: 0x8, addend: 0x0, symName: __ZN4core6option6Option4Some17h8a8eccfd894de435E, symObjAddr: 0x8D48, symBinAddr: 0x697C0, symSize: 0x10 }
  - { offset: 0x152CA2, size: 0x8, addend: 0x0, symName: __ZN4core6option6Option4Some17h8c5bcde8a2c755daE, symObjAddr: 0x8D58, symBinAddr: 0x697D0, symSize: 0x10 }
  - { offset: 0x152CD5, size: 0x8, addend: 0x0, symName: __ZN4core6option6Option4Some17h9b3d49e69e546c4dE, symObjAddr: 0x8D68, symBinAddr: 0x697E0, symSize: 0x10 }
  - { offset: 0x152D08, size: 0x8, addend: 0x0, symName: __ZN4core6option6Option4Some17h9d6fc96576d3ac3dE, symObjAddr: 0x8D78, symBinAddr: 0x697F0, symSize: 0x14 }
  - { offset: 0x152D3B, size: 0x8, addend: 0x0, symName: __ZN4core6option6Option4Some17hc2c850e15f53013dE, symObjAddr: 0x8D8C, symBinAddr: 0x69804, symSize: 0x10 }
  - { offset: 0x152D6E, size: 0x8, addend: 0x0, symName: __ZN4core6option6Option4Some17hd690f62d62f6b1c8E, symObjAddr: 0x8D9C, symBinAddr: 0x69814, symSize: 0x10 }
  - { offset: 0x152DA1, size: 0x8, addend: 0x0, symName: __ZN4core6option6Option4Some17hd97c34b21134eb3fE, symObjAddr: 0x8DAC, symBinAddr: 0x69824, symSize: 0x18 }
  - { offset: 0x152DD4, size: 0x8, addend: 0x0, symName: __ZN4core6option6Option4Some17hf8b06717f0414138E, symObjAddr: 0x8DC4, symBinAddr: 0x6983C, symSize: 0x10 }
  - { offset: 0x152E0E, size: 0x8, addend: 0x0, symName: '__ZN66_$LT$core..option..Option$LT$T$GT$$u20$as$u20$core..fmt..Debug$GT$3fmt17h10ea56bf1ff4c540E', symObjAddr: 0x8DD4, symBinAddr: 0x6984C, symSize: 0xA0 }
  - { offset: 0x152E78, size: 0x8, addend: 0x0, symName: '__ZN68_$LT$core..option..Option$LT$T$GT$$u20$as$u20$core..clone..Clone$GT$5clone17h171e0b893c5e3d02E', symObjAddr: 0x8E74, symBinAddr: 0x698EC, symSize: 0x78 }
  - { offset: 0x152ECD, size: 0x8, addend: 0x0, symName: '__ZN68_$LT$core..option..Option$LT$T$GT$$u20$as$u20$core..clone..Clone$GT$5clone17h2294b82cb3ab9281E', symObjAddr: 0x8EEC, symBinAddr: 0x69964, symSize: 0x7C }
  - { offset: 0x152F22, size: 0x8, addend: 0x0, symName: '__ZN68_$LT$core..option..Option$LT$T$GT$$u20$as$u20$core..clone..Clone$GT$5clone17h4a2f5045eb42a259E', symObjAddr: 0x8F68, symBinAddr: 0x699E0, symSize: 0x6C }
  - { offset: 0x152F7D, size: 0x8, addend: 0x0, symName: '__ZN75_$LT$core..option..Option$LT$T$GT$$u20$as$u20$core..ops..try_trait..Try$GT$11from_output17h17cdf53405a9f0ceE', symObjAddr: 0x8FD4, symBinAddr: 0x69A4C, symSize: 0x18 }
  - { offset: 0x152FB4, size: 0x8, addend: 0x0, symName: '__ZN75_$LT$core..option..Option$LT$T$GT$$u20$as$u20$core..ops..try_trait..Try$GT$11from_output17h730a35fcc3b48d21E', symObjAddr: 0x8FEC, symBinAddr: 0x69A64, symSize: 0x1C }
  - { offset: 0x152FEB, size: 0x8, addend: 0x0, symName: '__ZN75_$LT$core..option..Option$LT$T$GT$$u20$as$u20$core..ops..try_trait..Try$GT$6branch17h003319754b2d9d4bE', symObjAddr: 0x9008, symBinAddr: 0x69A80, symSize: 0x40 }
  - { offset: 0x153040, size: 0x8, addend: 0x0, symName: '__ZN75_$LT$core..option..Option$LT$T$GT$$u20$as$u20$core..ops..try_trait..Try$GT$6branch17h1d1c856a7d8b8c1dE', symObjAddr: 0x9088, symBinAddr: 0x69AC0, symSize: 0x40 }
  - { offset: 0x153095, size: 0x8, addend: 0x0, symName: '__ZN75_$LT$core..option..Option$LT$T$GT$$u20$as$u20$core..ops..try_trait..Try$GT$6branch17h3f6bee0af4c5c0e0E', symObjAddr: 0x90C8, symBinAddr: 0x69B00, symSize: 0x74 }
  - { offset: 0x1530EA, size: 0x8, addend: 0x0, symName: '__ZN75_$LT$core..option..Option$LT$T$GT$$u20$as$u20$core..ops..try_trait..Try$GT$6branch17h496528d92eb552e7E', symObjAddr: 0x913C, symBinAddr: 0x69B74, symSize: 0x40 }
  - { offset: 0x15313F, size: 0x8, addend: 0x0, symName: '__ZN75_$LT$core..option..Option$LT$T$GT$$u20$as$u20$core..ops..try_trait..Try$GT$6branch17h571bb6202737d537E', symObjAddr: 0x917C, symBinAddr: 0x69BB4, symSize: 0x40 }
  - { offset: 0x153194, size: 0x8, addend: 0x0, symName: '__ZN75_$LT$core..option..Option$LT$T$GT$$u20$as$u20$core..ops..try_trait..Try$GT$6branch17h815ff5fa1f8e0e1fE', symObjAddr: 0x91FC, symBinAddr: 0x69BF4, symSize: 0x48 }
  - { offset: 0x1531E9, size: 0x8, addend: 0x0, symName: '__ZN75_$LT$core..option..Option$LT$T$GT$$u20$as$u20$core..ops..try_trait..Try$GT$6branch17he60d9254a91bce1dE', symObjAddr: 0x92BC, symBinAddr: 0x69C3C, symSize: 0x50 }
  - { offset: 0x15323E, size: 0x8, addend: 0x0, symName: '__ZN75_$LT$core..option..Option$LT$T$GT$$u20$as$u20$core..ops..try_trait..Try$GT$6branch17he8ab72d1622dddf7E', symObjAddr: 0x930C, symBinAddr: 0x69C8C, symSize: 0x40 }
  - { offset: 0x15330B, size: 0x8, addend: 0x0, symName: '__ZN90_$LT$core..option..IntoIter$LT$A$GT$$u20$as$u20$core..iter..traits..iterator..Iterator$GT$4next17h23fb0e9db9d33173E', symObjAddr: 0x938C, symBinAddr: 0x69CCC, symSize: 0x28 }
  - { offset: 0x153383, size: 0x8, addend: 0x0, symName: '__ZN90_$LT$core..option..IntoIter$LT$A$GT$$u20$as$u20$core..iter..traits..iterator..Iterator$GT$4next17hdd55335a7032307fE', symObjAddr: 0x93B4, symBinAddr: 0x69CF4, symSize: 0x20 }
  - { offset: 0x1533FB, size: 0x8, addend: 0x0, symName: '__ZN90_$LT$core..option..IntoIter$LT$A$GT$$u20$as$u20$core..iter..traits..iterator..Iterator$GT$9size_hint17h457f170ea4f84b7aE', symObjAddr: 0x93D4, symBinAddr: 0x69D14, symSize: 0x30 }
  - { offset: 0x153463, size: 0x8, addend: 0x0, symName: '__ZN90_$LT$core..option..IntoIter$LT$A$GT$$u20$as$u20$core..iter..traits..iterator..Iterator$GT$9size_hint17ha5156387bedc8eb8E', symObjAddr: 0x9404, symBinAddr: 0x69D44, symSize: 0x34 }
  - { offset: 0x15351D, size: 0x8, addend: 0x0, symName: '__ZN91_$LT$core..option..Option$LT$T$GT$$u20$as$u20$core..iter..traits..collect..IntoIterator$GT$9into_iter17h10cde6cd31936958E', symObjAddr: 0x9438, symBinAddr: 0x69D78, symSize: 0x14 }
  - { offset: 0x153554, size: 0x8, addend: 0x0, symName: '__ZN91_$LT$core..option..Option$LT$T$GT$$u20$as$u20$core..iter..traits..collect..IntoIterator$GT$9into_iter17h64ce462f50e85d41E', symObjAddr: 0x944C, symBinAddr: 0x69D8C, symSize: 0x14 }
  - { offset: 0x153F57, size: 0x8, addend: 0x0, symName: __ZN4core4iter6traits8iterator8Iterator3map17hd0c2aeaee68251dcE, symObjAddr: 0x408, symBinAddr: 0x618B0, symSize: 0x14 }
  - { offset: 0x153FAF, size: 0x8, addend: 0x0, symName: __ZN4core4iter6traits8iterator8Iterator4fold17h26cc1d4db099525dE, symObjAddr: 0x41C, symBinAddr: 0x618C4, symSize: 0xAC }
  - { offset: 0x15403E, size: 0x8, addend: 0x0, symName: __ZN4core4iter6traits8iterator8Iterator4fold17h2fe6ebf1c236be24E, symObjAddr: 0x4C8, symBinAddr: 0x61970, symSize: 0xE0 }
  - { offset: 0x1540CE, size: 0x8, addend: 0x0, symName: __ZN4core4iter6traits8iterator8Iterator4fold17he300aa9fe347fe99E, symObjAddr: 0x5A8, symBinAddr: 0x61A50, symSize: 0xAC }
  - { offset: 0x15415D, size: 0x8, addend: 0x0, symName: __ZN4core4iter6traits8iterator8Iterator4fuse17h953183e136b0a9bcE, symObjAddr: 0x654, symBinAddr: 0x61AFC, symSize: 0x20 }
  - { offset: 0x154194, size: 0x8, addend: 0x0, symName: __ZN4core4iter6traits8iterator8Iterator7flatten17hb53ddbc218a20890E, symObjAddr: 0x674, symBinAddr: 0x61B1C, symSize: 0x60 }
  - { offset: 0x154206, size: 0x8, addend: 0x0, symName: __ZN4core4iter6traits8iterator8Iterator8flat_map17h94525ecaaf96632aE, symObjAddr: 0x6D4, symBinAddr: 0x61B7C, symSize: 0x68 }
  - { offset: 0x154316, size: 0x8, addend: 0x0, symName: __ZN4core4iter6traits8iterator8Iterator8for_each17h0f8db7aadd3ef89eE, symObjAddr: 0x73C, symBinAddr: 0x61BE4, symSize: 0x3C }
  - { offset: 0x154381, size: 0x8, addend: 0x0, symName: __ZN4core4iter6traits8iterator8Iterator8try_fold17h51d9bcd1325e712bE, symObjAddr: 0x778, symBinAddr: 0x61C20, symSize: 0x138 }
  - { offset: 0x15443C, size: 0x8, addend: 0x0, symName: __ZN4core4iter6traits8iterator8Iterator8try_fold17h5742bd46a8e61d52E, symObjAddr: 0x8B0, symBinAddr: 0x61D58, symSize: 0x138 }
  - { offset: 0x158086, size: 0x8, addend: 0x0, symName: '__ZN10serde_core3ser5impls86_$LT$impl$u20$serde_core..ser..Serialize$u20$for$u20$core..option..Option$LT$T$GT$$GT$9serialize17h35e301698908c38aE', symObjAddr: 0x0, symBinAddr: 0x614D0, symSize: 0x74 }
  - { offset: 0x1580EF, size: 0x8, addend: 0x0, symName: '__ZN10serde_core3ser5impls86_$LT$impl$u20$serde_core..ser..Serialize$u20$for$u20$core..option..Option$LT$T$GT$$GT$9serialize17h61afc1d2d0d8a669E', symObjAddr: 0x74, symBinAddr: 0x61544, symSize: 0x6C }
  - { offset: 0x158158, size: 0x8, addend: 0x0, symName: '__ZN10serde_core3ser5impls86_$LT$impl$u20$serde_core..ser..Serialize$u20$for$u20$core..option..Option$LT$T$GT$$GT$9serialize17h85f5f9c4bd860360E', symObjAddr: 0xE0, symBinAddr: 0x615B0, symSize: 0x74 }
  - { offset: 0x1581C1, size: 0x8, addend: 0x0, symName: '__ZN10serde_core3ser5impls86_$LT$impl$u20$serde_core..ser..Serialize$u20$for$u20$core..option..Option$LT$T$GT$$GT$9serialize17hbf3c380c6d64024eE', symObjAddr: 0x154, symBinAddr: 0x61624, symSize: 0x70 }
  - { offset: 0x15822A, size: 0x8, addend: 0x0, symName: '__ZN10serde_core3ser5impls86_$LT$impl$u20$serde_core..ser..Serialize$u20$for$u20$core..option..Option$LT$T$GT$$GT$9serialize17hf4ac6bd55c94d2e5E', symObjAddr: 0x1C4, symBinAddr: 0x61694, symSize: 0x74 }
  - { offset: 0x159AD8, size: 0x8, addend: 0x0, symName: '__ZN4core6option15Option$LT$T$GT$10ok_or_else17h0968814abcc2b6e6E', symObjAddr: 0x9E8, symBinAddr: 0x61E90, symSize: 0x80 }
  - { offset: 0x159B43, size: 0x8, addend: 0x0, symName: '__ZN4core6option15Option$LT$T$GT$10ok_or_else17h1293816b4c573c2dE', symObjAddr: 0xA68, symBinAddr: 0x61F10, symSize: 0x88 }
  - { offset: 0x159BAE, size: 0x8, addend: 0x0, symName: '__ZN4core6option15Option$LT$T$GT$10ok_or_else17h1c94fc4b74a85e83E', symObjAddr: 0xAF0, symBinAddr: 0x61F98, symSize: 0x80 }
  - { offset: 0x159C26, size: 0x8, addend: 0x0, symName: '__ZN4core6option15Option$LT$T$GT$10ok_or_else17h2fdbbb0fdb17fcdfE', symObjAddr: 0xB70, symBinAddr: 0x62018, symSize: 0x88 }
  - { offset: 0x159CBD, size: 0x8, addend: 0x0, symName: '__ZN4core6option15Option$LT$T$GT$10ok_or_else17h4e589eb389f02f62E', symObjAddr: 0xBF8, symBinAddr: 0x620A0, symSize: 0x7C }
  - { offset: 0x159D28, size: 0x8, addend: 0x0, symName: '__ZN4core6option15Option$LT$T$GT$10ok_or_else17h5a574948444d831dE', symObjAddr: 0xC74, symBinAddr: 0x6211C, symSize: 0xB0 }
  - { offset: 0x159D94, size: 0x8, addend: 0x0, symName: '__ZN4core6option15Option$LT$T$GT$10ok_or_else17h660b183d7b058172E', symObjAddr: 0xD24, symBinAddr: 0x621CC, symSize: 0x80 }
  - { offset: 0x159DFF, size: 0x8, addend: 0x0, symName: '__ZN4core6option15Option$LT$T$GT$10ok_or_else17h930030e3cf8c6889E', symObjAddr: 0xDA4, symBinAddr: 0x6224C, symSize: 0x80 }
  - { offset: 0x159E77, size: 0x8, addend: 0x0, symName: '__ZN4core6option15Option$LT$T$GT$10ok_or_else17hcea096d4032a5a37E', symObjAddr: 0xE24, symBinAddr: 0x622CC, symSize: 0x8C }
  - { offset: 0x159F1A, size: 0x8, addend: 0x0, symName: '__ZN4core6option15Option$LT$T$GT$14unwrap_or_else17h28e461e0c4428d53E', symObjAddr: 0xEB0, symBinAddr: 0x62358, symSize: 0x6C }
  - { offset: 0x159F5F, size: 0x8, addend: 0x0, symName: '__ZN4core6option15Option$LT$T$GT$14unwrap_or_else17hd78858c1aa35436aE', symObjAddr: 0xF1C, symBinAddr: 0x623C4, symSize: 0x6C }
  - { offset: 0x159FB1, size: 0x8, addend: 0x0, symName: '__ZN4core6option15Option$LT$T$GT$17unwrap_or_default17h005f72beca3d5458E', symObjAddr: 0xF88, symBinAddr: 0x62430, symSize: 0x60 }
  - { offset: 0x159FDE, size: 0x8, addend: 0x0, symName: '__ZN4core6option15Option$LT$T$GT$17unwrap_or_default17h0ba574e22ea0ddebE', symObjAddr: 0xFE8, symBinAddr: 0x62490, symSize: 0x60 }
  - { offset: 0x15A00B, size: 0x8, addend: 0x0, symName: '__ZN4core6option15Option$LT$T$GT$17unwrap_or_default17h2da4e94f2a44dcd1E', symObjAddr: 0x1048, symBinAddr: 0x624F0, symSize: 0x60 }
  - { offset: 0x15A056, size: 0x8, addend: 0x0, symName: '__ZN4core6option15Option$LT$T$GT$17unwrap_or_default17h43b9a603eb83d785E', symObjAddr: 0x1108, symBinAddr: 0x62550, symSize: 0x60 }
  - { offset: 0x15A083, size: 0x8, addend: 0x0, symName: '__ZN4core6option15Option$LT$T$GT$17unwrap_or_default17hbeca92a887741aedE', symObjAddr: 0x11C8, symBinAddr: 0x625B0, symSize: 0x60 }
  - { offset: 0x15A0B0, size: 0x8, addend: 0x0, symName: '__ZN4core6option15Option$LT$T$GT$17unwrap_or_default17hcdd75f68495a6e08E', symObjAddr: 0x1228, symBinAddr: 0x62610, symSize: 0x54 }
  - { offset: 0x15A167, size: 0x8, addend: 0x0, symName: '__ZN4core6option15Option$LT$T$GT$18get_or_insert_with17hadf2979844023929E', symObjAddr: 0x127C, symBinAddr: 0x62664, symSize: 0x174 }
  - { offset: 0x15A20B, size: 0x8, addend: 0x0, symName: '__ZN4core6option15Option$LT$T$GT$3map17h04cb0e99eef82f9aE', symObjAddr: 0x13F0, symBinAddr: 0x627D8, symSize: 0x7C }
  - { offset: 0x15A283, size: 0x8, addend: 0x0, symName: '__ZN4core6option15Option$LT$T$GT$3map17h0611d628467c6c55E', symObjAddr: 0x146C, symBinAddr: 0x62854, symSize: 0x60 }
  - { offset: 0x15A2EE, size: 0x8, addend: 0x0, symName: '__ZN4core6option15Option$LT$T$GT$3map17h0c03cef562faf404E', symObjAddr: 0x14CC, symBinAddr: 0x628B4, symSize: 0x60 }
  - { offset: 0x15A3A2, size: 0x8, addend: 0x0, symName: '__ZN4core6option15Option$LT$T$GT$3map17h0f229e195d4295a6E', symObjAddr: 0x152C, symBinAddr: 0x62914, symSize: 0x78 }
  - { offset: 0x15A40D, size: 0x8, addend: 0x0, symName: '__ZN4core6option15Option$LT$T$GT$3map17h0f91cd57b0a93cecE', symObjAddr: 0x15A4, symBinAddr: 0x6298C, symSize: 0x6C }
  - { offset: 0x15A478, size: 0x8, addend: 0x0, symName: '__ZN4core6option15Option$LT$T$GT$3map17h1080ccfaf020a38bE', symObjAddr: 0x1610, symBinAddr: 0x629F8, symSize: 0x78 }
  - { offset: 0x15A4F0, size: 0x8, addend: 0x0, symName: '__ZN4core6option15Option$LT$T$GT$3map17h10c888c5f0a57f83E', symObjAddr: 0x1688, symBinAddr: 0x62A70, symSize: 0x80 }
  - { offset: 0x15A55C, size: 0x8, addend: 0x0, symName: '__ZN4core6option15Option$LT$T$GT$3map17h116a488c3d4af890E', symObjAddr: 0x1708, symBinAddr: 0x62AF0, symSize: 0x80 }
  - { offset: 0x15A5D5, size: 0x8, addend: 0x0, symName: '__ZN4core6option15Option$LT$T$GT$3map17h13af17a2dc861c1dE', symObjAddr: 0x1788, symBinAddr: 0x62B70, symSize: 0x70 }
  - { offset: 0x15A641, size: 0x8, addend: 0x0, symName: '__ZN4core6option15Option$LT$T$GT$3map17h145e3804f60797d7E', symObjAddr: 0x17F8, symBinAddr: 0x62BE0, symSize: 0x5C }
  - { offset: 0x15A6AC, size: 0x8, addend: 0x0, symName: '__ZN4core6option15Option$LT$T$GT$3map17h147521f9fc8eb467E', symObjAddr: 0x1854, symBinAddr: 0x62C3C, symSize: 0x80 }
  - { offset: 0x15A718, size: 0x8, addend: 0x0, symName: '__ZN4core6option15Option$LT$T$GT$3map17h1a81179ee134dccfE', symObjAddr: 0x18D4, symBinAddr: 0x62CBC, symSize: 0x6C }
  - { offset: 0x15A783, size: 0x8, addend: 0x0, symName: '__ZN4core6option15Option$LT$T$GT$3map17h1fe21567fa1e7418E', symObjAddr: 0x1940, symBinAddr: 0x62D28, symSize: 0x6C }
  - { offset: 0x15A7EE, size: 0x8, addend: 0x0, symName: '__ZN4core6option15Option$LT$T$GT$3map17h29cf39c3e68c4e31E', symObjAddr: 0x1A84, symBinAddr: 0x62D94, symSize: 0x6C }
  - { offset: 0x15A859, size: 0x8, addend: 0x0, symName: '__ZN4core6option15Option$LT$T$GT$3map17h2a3fa65cb3d94034E', symObjAddr: 0x1AF0, symBinAddr: 0x62E00, symSize: 0x5C }
  - { offset: 0x15A8E2, size: 0x8, addend: 0x0, symName: '__ZN4core6option15Option$LT$T$GT$3map17h2ae1c8d44ddbcf03E', symObjAddr: 0x1B4C, symBinAddr: 0x62E5C, symSize: 0x74 }
  - { offset: 0x15AA54, size: 0x8, addend: 0x0, symName: '__ZN4core6option15Option$LT$T$GT$3map17h2b32a7ee05aefe60E', symObjAddr: 0x1BC0, symBinAddr: 0x62ED0, symSize: 0x7C }
  - { offset: 0x15AAC0, size: 0x8, addend: 0x0, symName: '__ZN4core6option15Option$LT$T$GT$3map17h2f1d423eb71ed763E', symObjAddr: 0x1C3C, symBinAddr: 0x62F4C, symSize: 0x80 }
  - { offset: 0x15AF18, size: 0x8, addend: 0x0, symName: '__ZN4core6option15Option$LT$T$GT$3map17h33c55fed86c8b131E', symObjAddr: 0x1D44, symBinAddr: 0x62FCC, symSize: 0x68 }
  - { offset: 0x15AF83, size: 0x8, addend: 0x0, symName: '__ZN4core6option15Option$LT$T$GT$3map17h36706d5aba4f193cE', symObjAddr: 0x1DAC, symBinAddr: 0x63034, symSize: 0x60 }
  - { offset: 0x15B008, size: 0x8, addend: 0x0, symName: '__ZN4core6option15Option$LT$T$GT$3map17h37275d13461fb1aeE', symObjAddr: 0x1E0C, symBinAddr: 0x63094, symSize: 0x88 }
  - { offset: 0x15B074, size: 0x8, addend: 0x0, symName: '__ZN4core6option15Option$LT$T$GT$3map17h386af6befb69651fE', symObjAddr: 0x1E94, symBinAddr: 0x6311C, symSize: 0x50 }
  - { offset: 0x15B0DF, size: 0x8, addend: 0x0, symName: '__ZN4core6option15Option$LT$T$GT$3map17h391454c7e11e24bdE', symObjAddr: 0x1EE4, symBinAddr: 0x6316C, symSize: 0x5C }
  - { offset: 0x15B14A, size: 0x8, addend: 0x0, symName: '__ZN4core6option15Option$LT$T$GT$3map17h3965288bab9178e8E', symObjAddr: 0x1F40, symBinAddr: 0x631C8, symSize: 0x5C }
  - { offset: 0x15B1B5, size: 0x8, addend: 0x0, symName: '__ZN4core6option15Option$LT$T$GT$3map17h3a6a82ca986996d8E', symObjAddr: 0x1F9C, symBinAddr: 0x63224, symSize: 0x5C }
  - { offset: 0x15B238, size: 0x8, addend: 0x0, symName: '__ZN4core6option15Option$LT$T$GT$3map17h3aeb7633129596e7E', symObjAddr: 0x1FF8, symBinAddr: 0x63280, symSize: 0x7C }
  - { offset: 0x15B2B1, size: 0x8, addend: 0x0, symName: '__ZN4core6option15Option$LT$T$GT$3map17h3b6684b59cf35783E', symObjAddr: 0x2074, symBinAddr: 0x632FC, symSize: 0x78 }
  - { offset: 0x15B31C, size: 0x8, addend: 0x0, symName: '__ZN4core6option15Option$LT$T$GT$3map17h3fa9852db89ff15dE', symObjAddr: 0x20EC, symBinAddr: 0x63374, symSize: 0x6C }
  - { offset: 0x15B394, size: 0x8, addend: 0x0, symName: '__ZN4core6option15Option$LT$T$GT$3map17h40f8a0675eaaf3f6E', symObjAddr: 0x2158, symBinAddr: 0x633E0, symSize: 0x5C }
  - { offset: 0x15B419, size: 0x8, addend: 0x0, symName: '__ZN4core6option15Option$LT$T$GT$3map17h46d1c40a1f62fdf3E', symObjAddr: 0x22C0, symBinAddr: 0x6343C, symSize: 0x6C }
  - { offset: 0x15B484, size: 0x8, addend: 0x0, symName: '__ZN4core6option15Option$LT$T$GT$3map17h47a23ceeef1eeaccE', symObjAddr: 0x232C, symBinAddr: 0x634A8, symSize: 0x6C }
  - { offset: 0x15B4EF, size: 0x8, addend: 0x0, symName: '__ZN4core6option15Option$LT$T$GT$3map17h4b3844c00ff196d5E', symObjAddr: 0x2398, symBinAddr: 0x63514, symSize: 0x5C }
  - { offset: 0x15B55A, size: 0x8, addend: 0x0, symName: '__ZN4core6option15Option$LT$T$GT$3map17h4df69b24f8fb37eaE', symObjAddr: 0x2460, symBinAddr: 0x63570, symSize: 0x6C }
  - { offset: 0x15B5C5, size: 0x8, addend: 0x0, symName: '__ZN4core6option15Option$LT$T$GT$3map17h4f1452763df41c96E', symObjAddr: 0x24CC, symBinAddr: 0x635DC, symSize: 0x88 }
  - { offset: 0x15B631, size: 0x8, addend: 0x0, symName: '__ZN4core6option15Option$LT$T$GT$3map17h4f9b4ea125ffdbdeE', symObjAddr: 0x2554, symBinAddr: 0x63664, symSize: 0x60 }
  - { offset: 0x15B6C3, size: 0x8, addend: 0x0, symName: '__ZN4core6option15Option$LT$T$GT$3map17h54d7a171bf528918E', symObjAddr: 0x25B4, symBinAddr: 0x636C4, symSize: 0x58 }
  - { offset: 0x15B72E, size: 0x8, addend: 0x0, symName: '__ZN4core6option15Option$LT$T$GT$3map17h59020aa4325575aaE', symObjAddr: 0x2678, symBinAddr: 0x6371C, symSize: 0x6C }
  - { offset: 0x15B7DA, size: 0x8, addend: 0x0, symName: '__ZN4core6option15Option$LT$T$GT$3map17h5e59f0338c94899dE', symObjAddr: 0x273C, symBinAddr: 0x63788, symSize: 0x58 }
  - { offset: 0x15B845, size: 0x8, addend: 0x0, symName: '__ZN4core6option15Option$LT$T$GT$3map17h5f5b9e773ce401d1E', symObjAddr: 0x2794, symBinAddr: 0x637E0, symSize: 0x70 }
  - { offset: 0x15B8B1, size: 0x8, addend: 0x0, symName: '__ZN4core6option15Option$LT$T$GT$3map17h610284c4a4e64afeE', symObjAddr: 0x2804, symBinAddr: 0x63850, symSize: 0x5C }
  - { offset: 0x15B93A, size: 0x8, addend: 0x0, symName: '__ZN4core6option15Option$LT$T$GT$3map17h61d819b1bbde5eeeE', symObjAddr: 0x2860, symBinAddr: 0x638AC, symSize: 0x80 }
  - { offset: 0x15B9A5, size: 0x8, addend: 0x0, symName: '__ZN4core6option15Option$LT$T$GT$3map17h6394869870b45093E', symObjAddr: 0x28E0, symBinAddr: 0x6392C, symSize: 0x6C }
  - { offset: 0x15BA10, size: 0x8, addend: 0x0, symName: '__ZN4core6option15Option$LT$T$GT$3map17h64c07ea0996a8c80E', symObjAddr: 0x294C, symBinAddr: 0x63998, symSize: 0x6C }
  - { offset: 0x15BA88, size: 0x8, addend: 0x0, symName: '__ZN4core6option15Option$LT$T$GT$3map17h71998d538eca5eb8E', symObjAddr: 0x2A40, symBinAddr: 0x63A04, symSize: 0x60 }
  - { offset: 0x15BAF3, size: 0x8, addend: 0x0, symName: '__ZN4core6option15Option$LT$T$GT$3map17h721dbd175caf88d7E', symObjAddr: 0x2AA0, symBinAddr: 0x63A64, symSize: 0x6C }
  - { offset: 0x15BB5E, size: 0x8, addend: 0x0, symName: '__ZN4core6option15Option$LT$T$GT$3map17h72b75aa7b568d86bE', symObjAddr: 0x2B0C, symBinAddr: 0x63AD0, symSize: 0x6C }
  - { offset: 0x15BBC9, size: 0x8, addend: 0x0, symName: '__ZN4core6option15Option$LT$T$GT$3map17h744d59dee5e1ed33E', symObjAddr: 0x2B78, symBinAddr: 0x63B3C, symSize: 0x68 }
  - { offset: 0x15BC34, size: 0x8, addend: 0x0, symName: '__ZN4core6option15Option$LT$T$GT$3map17h77e071cab068137dE', symObjAddr: 0x2BE0, symBinAddr: 0x63BA4, symSize: 0xB0 }
  - { offset: 0x15BCA1, size: 0x8, addend: 0x0, symName: '__ZN4core6option15Option$LT$T$GT$3map17h794326820b67475cE', symObjAddr: 0x2C90, symBinAddr: 0x63C54, symSize: 0x6C }
